   1              	 .syntax unified
   2              	 .cpu cortex-m4
   3              	 .eabi_attribute 27,3
   4              	 .fpu fpv4-sp-d16
   5              	 .eabi_attribute 20,1
   6              	 .eabi_attribute 21,1
   7              	 .eabi_attribute 23,3
   8              	 .eabi_attribute 24,1
   9              	 .eabi_attribute 25,1
  10              	 .eabi_attribute 26,1
  11              	 .eabi_attribute 30,6
  12              	 .eabi_attribute 34,1
  13              	 .eabi_attribute 18,4
  14              	 .thumb
  15              	 .file "system_XMC4500.c"
  16              	 .text
  17              	.Ltext0:
  18              	 .cfi_sections .debug_frame
  19              	 .global SystemCoreClock
  20              	 .section .no_init,"aw",%progbits
  21              	 .align 2
  24              	SystemCoreClock:
  25 0000 00000000 	 .space 4
  26              	 .global g_chipid
  27              	 .align 2
  30              	g_chipid:
  31 0004 00000000 	 .space 16
  31      00000000 
  31      00000000 
  31      00000000 
  32              	 .section .text.delay,"ax",%progbits
  33              	 .align 2
  34              	 .thumb
  35              	 .thumb_func
  37              	delay:
  38              	.LFB130:
  39              	 .file 1 "../Startup/system_XMC4500.c"
   1:../Startup/system_XMC4500.c **** /**************************************************************************************************
   2:../Startup/system_XMC4500.c ****  * @file     system_XMC4500.c
   3:../Startup/system_XMC4500.c ****  * @brief    CMSIS Cortex-M4 Device Peripheral Access Layer Header File for the Infineon XMC4500 De
   4:../Startup/system_XMC4500.c ****  * @version  V3.1.4
   5:../Startup/system_XMC4500.c ****  * @date     26. Sep 2017
   6:../Startup/system_XMC4500.c ****  *
   7:../Startup/system_XMC4500.c ****  * @cond
   8:../Startup/system_XMC4500.c ****  **************************************************************************************************
   9:../Startup/system_XMC4500.c ****  * Copyright (c) 2014-2017, Infineon Technologies AG
  10:../Startup/system_XMC4500.c ****  * All rights reserved.
  11:../Startup/system_XMC4500.c ****  *
  12:../Startup/system_XMC4500.c ****  * Redistribution and use in source and binary forms, with or without modification,are permitted pr
  13:../Startup/system_XMC4500.c ****  * following conditions are met:
  14:../Startup/system_XMC4500.c ****  *
  15:../Startup/system_XMC4500.c ****  * Redistributions of source code must retain the above copyright notice, this list of conditions a
  16:../Startup/system_XMC4500.c ****  * disclaimer.
  17:../Startup/system_XMC4500.c ****  *
  18:../Startup/system_XMC4500.c ****  * Redistributions in binary form must reproduce the above copyright notice, this list of condition
  19:../Startup/system_XMC4500.c ****  * disclaimer in the documentation and/or other materials provided with the distribution.
  20:../Startup/system_XMC4500.c ****  *
  21:../Startup/system_XMC4500.c ****  * Neither the name of the copyright holders nor the names of its contributors may be used to endor
  22:../Startup/system_XMC4500.c ****  * products derived from this software without specific prior written permission.
  23:../Startup/system_XMC4500.c ****  *
  24:../Startup/system_XMC4500.c ****  * THIS SOFTWARE IS PROVIDED BY THE COPYRIGHT HOLDERS AND CONTRIBUTORS "AS IS" AND ANY EXPRESS OR I
  25:../Startup/system_XMC4500.c ****  * INCLUDING, BUT NOT LIMITED TO, THE IMPLIED WARRANTIES OF MERCHANTABILITY AND FITNESS FOR A PARTI
  26:../Startup/system_XMC4500.c ****  * DISCLAIMED. IN NO EVENT SHALL THE COPYRIGHT HOLDER OR CONTRIBUTORS BE LIABLE  FOR ANY DIRECT, IN
  27:../Startup/system_XMC4500.c ****  * SPECIAL, EXEMPLARY, OR CONSEQUENTIAL DAMAGES (INCLUDING, BUT NOT LIMITED TO, PROCUREMENT OF SUBS
  28:../Startup/system_XMC4500.c ****  * SERVICES; LOSS OF USE, DATA, OR PROFITS; OR BUSINESS INTERRUPTION) HOWEVER CAUSED AND ON ANY THE
  29:../Startup/system_XMC4500.c ****  * WHETHER IN CONTRACT, STRICT LIABILITY,OR TORT (INCLUDING NEGLIGENCE OR OTHERWISE) ARISING IN ANY
  30:../Startup/system_XMC4500.c ****  * OF THIS SOFTWARE, EVEN IF ADVISED OF THE POSSIBILITY OF SUCH DAMAGE.
  31:../Startup/system_XMC4500.c ****  *
  32:../Startup/system_XMC4500.c ****  * To improve the quality of the software, users are encouraged to share modifications, enhancement
  33:../Startup/system_XMC4500.c ****  * Infineon Technologies AG dave@infineon.com).
  34:../Startup/system_XMC4500.c ****  **************************************************************************************************
  35:../Startup/system_XMC4500.c ****  *
  36:../Startup/system_XMC4500.c ****  ********************** Version History ***************************************
  37:../Startup/system_XMC4500.c ****  * V3.1.0, Dec 2014, Added options to configure clock settings
  38:../Startup/system_XMC4500.c ****  * V3.1.1, 01. Jun 2016, Fix masking of OSCHPCTRL value 
  39:../Startup/system_XMC4500.c ****  * V3.1.2, 09. Feb 2017, Fix activation of USBPLL when SDMMC clock is enabled
  40:../Startup/system_XMC4500.c ****  * V3.1.3, 19. Jun 2017, Rely on cmsis_compiler.h instead of defining __WEAK
  41:../Startup/system_XMC4500.c ****  *                       Added support for ARM Compiler 6 (armclang)
  42:../Startup/system_XMC4500.c ****  * V3.1.4, 26. Sep 2017, Disable FPU if FPU_USED is zero   
  43:../Startup/system_XMC4500.c ****  *                       Fixed include files
  44:../Startup/system_XMC4500.c ****  ******************************************************************************
  45:../Startup/system_XMC4500.c ****  * @endcond
  46:../Startup/system_XMC4500.c ****  */
  47:../Startup/system_XMC4500.c **** 
  48:../Startup/system_XMC4500.c **** /*******************************************************************************
  49:../Startup/system_XMC4500.c ****  * HEADER FILES
  50:../Startup/system_XMC4500.c ****  *******************************************************************************/
  51:../Startup/system_XMC4500.c **** #include <string.h>
  52:../Startup/system_XMC4500.c **** 
  53:../Startup/system_XMC4500.c **** #include <XMC4500.h>
  54:../Startup/system_XMC4500.c **** #include "system_XMC4500.h"
  55:../Startup/system_XMC4500.c **** 
  56:../Startup/system_XMC4500.c **** /*******************************************************************************
  57:../Startup/system_XMC4500.c ****  * MACROS
  58:../Startup/system_XMC4500.c ****  *******************************************************************************/
  59:../Startup/system_XMC4500.c **** #define CHIPID_LOC ((uint8_t *)0x20000000UL)
  60:../Startup/system_XMC4500.c **** 
  61:../Startup/system_XMC4500.c **** #define PMU_FLASH_WS          (0x3U)
  62:../Startup/system_XMC4500.c **** 
  63:../Startup/system_XMC4500.c **** #define FPLL_FREQUENCY        (120000000U)
  64:../Startup/system_XMC4500.c **** #define FOSCREF               (2500000U)
  65:../Startup/system_XMC4500.c **** #define DELAY_CNT_50US_50MHZ  (2500UL)
  66:../Startup/system_XMC4500.c **** #define DELAY_CNT_150US_50MHZ (7500UL)
  67:../Startup/system_XMC4500.c **** #define DELAY_CNT_50US_60MHZ  (3000UL)
  68:../Startup/system_XMC4500.c **** #define DELAY_CNT_50US_90MHZ  (4500UL)
  69:../Startup/system_XMC4500.c **** #define DELAY_CNT_50US_120MHZ (6000UL)
  70:../Startup/system_XMC4500.c **** 
  71:../Startup/system_XMC4500.c **** #define SCU_PLL_PLLSTAT_OSC_USABLE  (SCU_PLL_PLLSTAT_PLLHV_Msk | \
  72:../Startup/system_XMC4500.c ****                                      SCU_PLL_PLLSTAT_PLLLV_Msk | \
  73:../Startup/system_XMC4500.c ****                                      SCU_PLL_PLLSTAT_PLLSP_Msk)
  74:../Startup/system_XMC4500.c **** 
  75:../Startup/system_XMC4500.c **** /*
  76:../Startup/system_XMC4500.c **** //-------- <<< Use Configuration Wizard in Context Menu >>> ------------------
  77:../Startup/system_XMC4500.c **** */
  78:../Startup/system_XMC4500.c **** 
  79:../Startup/system_XMC4500.c **** /*
  80:../Startup/system_XMC4500.c **** // <h> Clock configuration
  81:../Startup/system_XMC4500.c **** */
  82:../Startup/system_XMC4500.c **** 
  83:../Startup/system_XMC4500.c **** /*
  84:../Startup/system_XMC4500.c **** //    <o> External crystal frequency [Hz]
  85:../Startup/system_XMC4500.c **** //       <8000000=> 8MHz
  86:../Startup/system_XMC4500.c **** //       <12000000=> 12MHz
  87:../Startup/system_XMC4500.c **** //       <16000000=> 16MHz
  88:../Startup/system_XMC4500.c **** //    <i> Defines external crystal frequency
  89:../Startup/system_XMC4500.c **** //    <i> Default: 8MHz
  90:../Startup/system_XMC4500.c **** */
  91:../Startup/system_XMC4500.c **** #define OSCHP_FREQUENCY (12000000U)
  92:../Startup/system_XMC4500.c **** 
  93:../Startup/system_XMC4500.c **** #if OSCHP_FREQUENCY == 8000000U
  94:../Startup/system_XMC4500.c **** #define USB_PDIV (1U)
  95:../Startup/system_XMC4500.c **** #define USB_NDIV (95U)
  96:../Startup/system_XMC4500.c **** #define USB_DIV (3U)
  97:../Startup/system_XMC4500.c **** 
  98:../Startup/system_XMC4500.c **** #elif OSCHP_FREQUENCY == 12000000U
  99:../Startup/system_XMC4500.c **** #define USB_PDIV (1U)
 100:../Startup/system_XMC4500.c **** #define USB_NDIV (63U)
 101:../Startup/system_XMC4500.c **** #define USB_DIV (3U)
 102:../Startup/system_XMC4500.c **** 
 103:../Startup/system_XMC4500.c **** #elif OSCHP_FREQUENCY == 16000000U
 104:../Startup/system_XMC4500.c **** #define USB_PDIV (1U)
 105:../Startup/system_XMC4500.c **** #define USB_NDIV (47U)
 106:../Startup/system_XMC4500.c **** #define USB_DIV (3U)
 107:../Startup/system_XMC4500.c **** 
 108:../Startup/system_XMC4500.c **** #else
 109:../Startup/system_XMC4500.c **** #error "External crystal frequency not supported"
 110:../Startup/system_XMC4500.c **** 
 111:../Startup/system_XMC4500.c **** #endif
 112:../Startup/system_XMC4500.c **** 
 113:../Startup/system_XMC4500.c **** /*
 114:../Startup/system_XMC4500.c **** //    <o> System clock (fSYS) source selection
 115:../Startup/system_XMC4500.c **** //       <0=> Backup clock (24MHz)
 116:../Startup/system_XMC4500.c **** //       <1=> Maximum clock frequency using PLL (120MHz)
 117:../Startup/system_XMC4500.c **** //    <i> Default: Maximum clock frequency using PLL (120MHz)
 118:../Startup/system_XMC4500.c **** */
 119:../Startup/system_XMC4500.c **** #define SYS_CLOCK_SRC 1
 120:../Startup/system_XMC4500.c **** #define SYS_CLOCK_SRC_OFI 0
 121:../Startup/system_XMC4500.c **** #define SYS_CLOCK_SRC_PLL 1
 122:../Startup/system_XMC4500.c **** 
 123:../Startup/system_XMC4500.c **** /*
 124:../Startup/system_XMC4500.c **** //    <o> Backup clock calibration mode
 125:../Startup/system_XMC4500.c **** //       <0=> Factory calibration
 126:../Startup/system_XMC4500.c **** //       <1=> Automatic calibration
 127:../Startup/system_XMC4500.c **** //    <i> Default: Automatic calibration
 128:../Startup/system_XMC4500.c **** */
 129:../Startup/system_XMC4500.c **** #define FOFI_CALIBRATION_MODE 1
 130:../Startup/system_XMC4500.c **** #define FOFI_CALIBRATION_MODE_FACTORY 0
 131:../Startup/system_XMC4500.c **** #define FOFI_CALIBRATION_MODE_AUTOMATIC 1
 132:../Startup/system_XMC4500.c **** 
 133:../Startup/system_XMC4500.c **** /*
 134:../Startup/system_XMC4500.c **** //    <o> Standby clock (fSTDBY) source selection
 135:../Startup/system_XMC4500.c **** //       <0=> Internal slow oscillator (32768Hz)
 136:../Startup/system_XMC4500.c **** //       <1=> External crystal (32768Hz)
 137:../Startup/system_XMC4500.c **** //    <i> Default: Internal slow oscillator (32768Hz)
 138:../Startup/system_XMC4500.c **** */
 139:../Startup/system_XMC4500.c **** #define STDBY_CLOCK_SRC 0
 140:../Startup/system_XMC4500.c **** #define STDBY_CLOCK_SRC_OSI 0
 141:../Startup/system_XMC4500.c **** #define STDBY_CLOCK_SRC_OSCULP 1
 142:../Startup/system_XMC4500.c **** 
 143:../Startup/system_XMC4500.c **** /*
 144:../Startup/system_XMC4500.c **** //    <o> PLL clock source selection
 145:../Startup/system_XMC4500.c **** //       <0=> External crystal
 146:../Startup/system_XMC4500.c **** //       <1=> External direct input
 147:../Startup/system_XMC4500.c **** //       <2=> Internal fast oscillator
 148:../Startup/system_XMC4500.c **** //    <i> Default: External crystal
 149:../Startup/system_XMC4500.c **** */
 150:../Startup/system_XMC4500.c **** #define PLL_CLOCK_SRC 0
 151:../Startup/system_XMC4500.c **** #define PLL_CLOCK_SRC_EXT_XTAL 0
 152:../Startup/system_XMC4500.c **** #define PLL_CLOCK_SRC_EXT_DIRECT 1
 153:../Startup/system_XMC4500.c **** #define PLL_CLOCK_SRC_OFI 2
 154:../Startup/system_XMC4500.c **** 
 155:../Startup/system_XMC4500.c **** #if PLL_CLOCK_SRC == PLL_CLOCK_SRC_EXT_XTAL
 156:../Startup/system_XMC4500.c **** #if OSCHP_FREQUENCY == 8000000U
 157:../Startup/system_XMC4500.c **** #define PLL_PDIV (1U)
 158:../Startup/system_XMC4500.c **** #define PLL_NDIV (89U)
 159:../Startup/system_XMC4500.c **** #define PLL_K2DIV (2U)
 160:../Startup/system_XMC4500.c **** 
 161:../Startup/system_XMC4500.c **** #elif OSCHP_FREQUENCY == 12000000U
 162:../Startup/system_XMC4500.c **** #define PLL_PDIV (1U)
 163:../Startup/system_XMC4500.c **** #define PLL_NDIV (79U)
 164:../Startup/system_XMC4500.c **** #define PLL_K2DIV (3U)
 165:../Startup/system_XMC4500.c **** 
 166:../Startup/system_XMC4500.c **** #elif OSCHP_FREQUENCY == 16000000U
 167:../Startup/system_XMC4500.c **** #define PLL_PDIV (1U)
 168:../Startup/system_XMC4500.c **** #define PLL_NDIV (59U)
 169:../Startup/system_XMC4500.c **** #define PLL_K2DIV (3U)
 170:../Startup/system_XMC4500.c **** 
 171:../Startup/system_XMC4500.c **** #else
 172:../Startup/system_XMC4500.c **** #error "External crystal frequency not supported"
 173:../Startup/system_XMC4500.c **** 
 174:../Startup/system_XMC4500.c **** #endif
 175:../Startup/system_XMC4500.c **** 
 176:../Startup/system_XMC4500.c **** #define VCO ((OSCHP_FREQUENCY / (PLL_PDIV + 1UL)) * (PLL_NDIV + 1UL))
 177:../Startup/system_XMC4500.c **** 
 178:../Startup/system_XMC4500.c **** #else /* PLL_CLOCK_SRC == PLL_CLOCK_SRC_EXT_XTAL */
 179:../Startup/system_XMC4500.c **** 
 180:../Startup/system_XMC4500.c **** #define PLL_PDIV (1U)
 181:../Startup/system_XMC4500.c **** #define PLL_NDIV (39U)
 182:../Startup/system_XMC4500.c **** #define PLL_K2DIV (3U)
 183:../Startup/system_XMC4500.c **** 
 184:../Startup/system_XMC4500.c **** #define VCO ((OFI_FREQUENCY / (PLL_PDIV + 1UL)) * (PLL_NDIV + 1UL))
 185:../Startup/system_XMC4500.c **** 
 186:../Startup/system_XMC4500.c **** #endif /* PLL_CLOCK_SRC == PLL_CLOCK_SRC_OFI */
 187:../Startup/system_XMC4500.c **** 
 188:../Startup/system_XMC4500.c **** #define PLL_K2DIV_0 ((VCO / OFI_FREQUENCY) - 1UL)
 189:../Startup/system_XMC4500.c **** #define PLL_K2DIV_1 ((VCO / 60000000U) - 1UL)
 190:../Startup/system_XMC4500.c **** #define PLL_K2DIV_2 ((VCO / 90000000U) - 1UL)
 191:../Startup/system_XMC4500.c **** 
 192:../Startup/system_XMC4500.c **** #define SCU_CLK_CLKCLR_ENABLE_USBCLK SCU_CLK_CLKCLR_USBCDI_Msk
 193:../Startup/system_XMC4500.c **** #define SCU_CLK_CLKCLR_ENABLE_MMCCLK SCU_CLK_CLKCLR_MMCCDI_Msk
 194:../Startup/system_XMC4500.c **** #define SCU_CLK_CLKCLR_ENABLE_ETHCLK SCU_CLK_CLKCLR_ETH0CDI_Msk
 195:../Startup/system_XMC4500.c **** #define SCU_CLK_CLKCLR_ENABLE_EBUCLK SCU_CLK_CLKCLR_EBUCDI_Msk
 196:../Startup/system_XMC4500.c **** #define SCU_CLK_CLKCLR_ENABLE_CCUCLK SCU_CLK_CLKCLR_CCUCDI_Msk
 197:../Startup/system_XMC4500.c **** #define SCU_CLK_CLKCLR_ENABLE_WDTCLK SCU_CLK_CLKCLR_WDTCDI_Msk
 198:../Startup/system_XMC4500.c **** 
 199:../Startup/system_XMC4500.c **** #define SCU_CLK_USBCLKCR_USBSEL_USBPLL (0U << SCU_CLK_USBCLKCR_USBSEL_Pos)
 200:../Startup/system_XMC4500.c **** #define SCU_CLK_USBCLKCR_USBSEL_PLL    (1U << SCU_CLK_USBCLKCR_USBSEL_Pos)
 201:../Startup/system_XMC4500.c **** 
 202:../Startup/system_XMC4500.c **** #define SCU_CLK_WDTCLKCR_WDTSEL_OFI      (0U << SCU_CLK_WDTCLKCR_WDTSEL_Pos)
 203:../Startup/system_XMC4500.c **** #define SCU_CLK_WDTCLKCR_WDTSEL_STANDBY  (1U << SCU_CLK_WDTCLKCR_WDTSEL_Pos)
 204:../Startup/system_XMC4500.c **** #define SCU_CLK_WDTCLKCR_WDTSEL_PLL      (2U << SCU_CLK_WDTCLKCR_WDTSEL_Pos)
 205:../Startup/system_XMC4500.c **** 
 206:../Startup/system_XMC4500.c **** #define SCU_CLK_EXTCLKCR_ECKSEL_SYS      (0U << SCU_CLK_EXTCLKCR_ECKSEL_Pos)
 207:../Startup/system_XMC4500.c **** #define SCU_CLK_EXTCLKCR_ECKSEL_USBPLL   (2U << SCU_CLK_EXTCLKCR_ECKSEL_Pos)
 208:../Startup/system_XMC4500.c **** #define SCU_CLK_EXTCLKCR_ECKSEL_PLL      (3U << SCU_CLK_EXTCLKCR_ECKSEL_Pos)
 209:../Startup/system_XMC4500.c **** 
 210:../Startup/system_XMC4500.c **** #define EXTCLK_PIN_P0_8  (0)
 211:../Startup/system_XMC4500.c **** #define EXTCLK_PIN_P1_15 (1)
 212:../Startup/system_XMC4500.c **** 
 213:../Startup/system_XMC4500.c **** /*
 214:../Startup/system_XMC4500.c **** //    <h> Clock tree
 215:../Startup/system_XMC4500.c **** //        <o1.0> CPU clock divider
 216:../Startup/system_XMC4500.c **** //                   <0=> fCPU = fSYS
 217:../Startup/system_XMC4500.c **** //                   <1=> fCPU = fSYS / 2
 218:../Startup/system_XMC4500.c **** //        <o2.0>  Peripheral clock divider
 219:../Startup/system_XMC4500.c **** //                     <0=> fPB	= fCPU
 220:../Startup/system_XMC4500.c **** //                     <1=> fPB	= fCPU / 2
 221:../Startup/system_XMC4500.c **** //        <e.4> Enable CCU clock
 222:../Startup/system_XMC4500.c **** //             <o3.0>  CCU clock divider
 223:../Startup/system_XMC4500.c **** //                     <0=> fCCU = fCPU
 224:../Startup/system_XMC4500.c **** //                     <1=> fCCU = fCPU / 2
 225:../Startup/system_XMC4500.c **** //        </e>
 226:../Startup/system_XMC4500.c **** //        <e.5> Enable WDT clock
 227:../Startup/system_XMC4500.c **** //             <o4.0..7>  WDT clock divider <1-256><#-1>
 228:../Startup/system_XMC4500.c **** //             <o4.16..17> WDT clock source <0=> fOFI
 229:../Startup/system_XMC4500.c **** //                                          <1=> fSTDBY
 230:../Startup/system_XMC4500.c **** //                                          <2=> fPLL
 231:../Startup/system_XMC4500.c **** //        </e>
 232:../Startup/system_XMC4500.c **** //        <e.3> Enable EBU clock
 233:../Startup/system_XMC4500.c **** //             <o5.0..5>  EBU clock divider  <1-64><#-1>
 234:../Startup/system_XMC4500.c **** //        </e>
 235:../Startup/system_XMC4500.c **** //        <e.2> Enable ETH clock
 236:../Startup/system_XMC4500.c **** //        </e>
 237:../Startup/system_XMC4500.c **** //        <e.1> Enable MMC clock
 238:../Startup/system_XMC4500.c **** //        </e>
 239:../Startup/system_XMC4500.c **** //        <e.0> Enable USB clock
 240:../Startup/system_XMC4500.c **** //             <o6.16> USB clock source <0=> USBPLL
 241:../Startup/system_XMC4500.c **** //                                      <1=> PLL
 242:../Startup/system_XMC4500.c **** //        </e>
 243:../Startup/system_XMC4500.c **** //        <e7> External Clock configuration
 244:../Startup/system_XMC4500.c **** //            <o8.0..1> External Clock Source Selection
 245:../Startup/system_XMC4500.c **** //                  <0=> System clock
 246:../Startup/system_XMC4500.c **** //                  <2=> USB PLL clock
 247:../Startup/system_XMC4500.c **** //                  <3=> PLL clock
 248:../Startup/system_XMC4500.c **** //            <o8.16..24> External Clock divider <1-512><#-1>
 249:../Startup/system_XMC4500.c **** //            <i> Only valid for USB PLL and PLL clocks
 250:../Startup/system_XMC4500.c **** //            <o9.0> External Clock Pin Selection
 251:../Startup/system_XMC4500.c **** //                  <0=> P0.8
 252:../Startup/system_XMC4500.c **** //                  <1=> P1.15
 253:../Startup/system_XMC4500.c **** //        </e>
 254:../Startup/system_XMC4500.c **** //    </h>
 255:../Startup/system_XMC4500.c **** */
 256:../Startup/system_XMC4500.c **** #define ENABLE_SCUCLK (0U)
 257:../Startup/system_XMC4500.c **** #define CPUCLKDIV (0U)
 258:../Startup/system_XMC4500.c **** #define PBCLKDIV (0U)
 259:../Startup/system_XMC4500.c **** #define CCUCLKDIV (0U)
 260:../Startup/system_XMC4500.c **** #define WDTCLKDIV (0U | SCU_CLK_WDTCLKCR_WDTSEL_OFI)
 261:../Startup/system_XMC4500.c **** #define EBUCLKDIV (0U)
 262:../Startup/system_XMC4500.c **** #define USBCLKDIV (0U | SCU_CLK_USBCLKCR_USBSEL_USBPLL | USB_DIV)
 263:../Startup/system_XMC4500.c **** 
 264:../Startup/system_XMC4500.c **** #define ENABLE_EXTCLK (0U)
 265:../Startup/system_XMC4500.c **** #define EXTCLKDIV (0U | SCU_CLK_EXTCLKCR_ECKSEL_SYS)
 266:../Startup/system_XMC4500.c **** #define EXTCLK_PIN (0U)
 267:../Startup/system_XMC4500.c **** 
 268:../Startup/system_XMC4500.c **** #define ENABLE_PLL \
 269:../Startup/system_XMC4500.c ****     (SYS_CLOCK_SRC == SYS_CLOCK_SRC_PLL) || \
 270:../Startup/system_XMC4500.c ****     ((ENABLE_SCUCLK & SCU_CLK_CLKSET_EBUCEN_Msk) != 0) || \
 271:../Startup/system_XMC4500.c ****     (((ENABLE_SCUCLK & SCU_CLK_CLKSET_USBCEN_Msk) != 0) && ((USBCLKDIV & SCU_CLK_USBCLKCR_USBSEL_Ms
 272:../Startup/system_XMC4500.c ****     (((ENABLE_SCUCLK & SCU_CLK_CLKSET_WDTCEN_Msk) != 0) && ((WDTCLKDIV & SCU_CLK_WDTCLKCR_WDTSEL_Ms
 273:../Startup/system_XMC4500.c **** 
 274:../Startup/system_XMC4500.c **** #define ENABLE_USBPLL \
 275:../Startup/system_XMC4500.c ****     ((((ENABLE_SCUCLK & SCU_CLK_CLKSET_USBCEN_Msk) != 0) && ((USBCLKDIV & SCU_CLK_USBCLKCR_USBSEL_M
 276:../Startup/system_XMC4500.c ****      (((ENABLE_SCUCLK & SCU_CLK_CLKCLR_ENABLE_MMCCLK) != 0) && ((USBCLKDIV & SCU_CLK_USBCLKCR_USBSE
 277:../Startup/system_XMC4500.c **** /*
 278:../Startup/system_XMC4500.c **** // </h>
 279:../Startup/system_XMC4500.c **** */
 280:../Startup/system_XMC4500.c **** 
 281:../Startup/system_XMC4500.c **** /*
 282:../Startup/system_XMC4500.c **** //-------- <<< end of configuration section >>> ------------------
 283:../Startup/system_XMC4500.c **** */
 284:../Startup/system_XMC4500.c ****                                      
 285:../Startup/system_XMC4500.c **** /*******************************************************************************
 286:../Startup/system_XMC4500.c ****  * GLOBAL VARIABLES
 287:../Startup/system_XMC4500.c ****  *******************************************************************************/
 288:../Startup/system_XMC4500.c **** #if defined ( __CC_ARM )
 289:../Startup/system_XMC4500.c **** uint32_t SystemCoreClock __attribute__((at(0x2000FFC0)));
 290:../Startup/system_XMC4500.c **** uint8_t g_chipid[16] __attribute__((at(0x2000FFC4)));
 291:../Startup/system_XMC4500.c **** #elif defined (__ARMCC_VERSION) && (__ARMCC_VERSION >= 6010050)
 292:../Startup/system_XMC4500.c **** uint32_t SystemCoreClock __attribute__((section(".ARM.__at_0x2000FFC0")));
 293:../Startup/system_XMC4500.c **** uint8_t g_chipid[16] __attribute__((section(".ARM.__at_0x2000FFC4")));
 294:../Startup/system_XMC4500.c **** #elif defined ( __ICCARM__ )
 295:../Startup/system_XMC4500.c **** __no_init uint32_t SystemCoreClock;
 296:../Startup/system_XMC4500.c **** __no_init uint8_t g_chipid[16];
 297:../Startup/system_XMC4500.c **** #elif defined ( __GNUC__ )
 298:../Startup/system_XMC4500.c **** uint32_t SystemCoreClock __attribute__((section(".no_init")));
 299:../Startup/system_XMC4500.c **** uint8_t g_chipid[16] __attribute__((section(".no_init")));
 300:../Startup/system_XMC4500.c **** #elif defined ( __TASKING__ )
 301:../Startup/system_XMC4500.c **** uint32_t SystemCoreClock __at( 0x2000FFC0 );
 302:../Startup/system_XMC4500.c **** uint8_t g_chipid[16] __at( 0x2000FFC4 );
 303:../Startup/system_XMC4500.c **** #endif
 304:../Startup/system_XMC4500.c **** 
 305:../Startup/system_XMC4500.c **** extern uint32_t __Vectors;
 306:../Startup/system_XMC4500.c **** 
 307:../Startup/system_XMC4500.c **** /*******************************************************************************
 308:../Startup/system_XMC4500.c ****  * LOCAL FUNCTIONS
 309:../Startup/system_XMC4500.c ****  *******************************************************************************/
 310:../Startup/system_XMC4500.c **** static void delay(uint32_t cycles)
 311:../Startup/system_XMC4500.c **** {
  40              	 .loc 1 311 0
  41              	 .cfi_startproc
  42              	 
  43              	 
  44              	 
  45 0000 80B4     	 push {r7}
  46              	.LCFI0:
  47              	 .cfi_def_cfa_offset 4
  48              	 .cfi_offset 7,-4
  49 0002 85B0     	 sub sp,sp,#20
  50              	.LCFI1:
  51              	 .cfi_def_cfa_offset 24
  52 0004 00AF     	 add r7,sp,#0
  53              	.LCFI2:
  54              	 .cfi_def_cfa_register 7
  55 0006 7860     	 str r0,[r7,#4]
 312:../Startup/system_XMC4500.c ****   volatile uint32_t i;
 313:../Startup/system_XMC4500.c **** 
 314:../Startup/system_XMC4500.c ****   for(i = 0UL; i < cycles ;++i)
  56              	 .loc 1 314 0
  57 0008 0023     	 movs r3,#0
  58 000a FB60     	 str r3,[r7,#12]
  59 000c 03E0     	 b .L2
  60              	.L3:
 315:../Startup/system_XMC4500.c ****   {
 316:../Startup/system_XMC4500.c ****     __NOP();
  61              	 .loc 1 316 0 discriminator 3
  62              	
  63 000e 00BF     	 nop
  64              	
 314:../Startup/system_XMC4500.c ****   {
  65              	 .loc 1 314 0 discriminator 3
  66              	 .thumb
  67 0010 FB68     	 ldr r3,[r7,#12]
  68 0012 0133     	 adds r3,r3,#1
  69 0014 FB60     	 str r3,[r7,#12]
  70              	.L2:
 314:../Startup/system_XMC4500.c ****   {
  71              	 .loc 1 314 0 is_stmt 0 discriminator 1
  72 0016 FA68     	 ldr r2,[r7,#12]
  73 0018 7B68     	 ldr r3,[r7,#4]
  74 001a 9A42     	 cmp r2,r3
  75 001c F7D3     	 bcc .L3
 317:../Startup/system_XMC4500.c ****   }
 318:../Startup/system_XMC4500.c **** }
  76              	 .loc 1 318 0 is_stmt 1
  77 001e 1437     	 adds r7,r7,#20
  78              	.LCFI3:
  79              	 .cfi_def_cfa_offset 4
  80 0020 BD46     	 mov sp,r7
  81              	.LCFI4:
  82              	 .cfi_def_cfa_register 13
  83              	 
  84 0022 5DF8047B 	 ldr r7,[sp],#4
  85              	.LCFI5:
  86              	 .cfi_restore 7
  87              	 .cfi_def_cfa_offset 0
  88 0026 7047     	 bx lr
  89              	 .cfi_endproc
  90              	.LFE130:
  92              	 .section .text.SystemInit,"ax",%progbits
  93              	 .align 2
  94              	 .weak SystemInit
  95              	 .thumb
  96              	 .thumb_func
  98              	SystemInit:
  99              	.LFB131:
 319:../Startup/system_XMC4500.c **** 
 320:../Startup/system_XMC4500.c **** /*******************************************************************************
 321:../Startup/system_XMC4500.c ****  * API IMPLEMENTATION
 322:../Startup/system_XMC4500.c ****  *******************************************************************************/
 323:../Startup/system_XMC4500.c **** 
 324:../Startup/system_XMC4500.c **** __WEAK void SystemInit(void)
 325:../Startup/system_XMC4500.c **** {
 100              	 .loc 1 325 0
 101              	 .cfi_startproc
 102              	 
 103              	 
 104 0000 98B5     	 push {r3,r4,r7,lr}
 105              	.LCFI6:
 106              	 .cfi_def_cfa_offset 16
 107              	 .cfi_offset 3,-16
 108              	 .cfi_offset 4,-12
 109              	 .cfi_offset 7,-8
 110              	 .cfi_offset 14,-4
 111 0002 00AF     	 add r7,sp,#0
 112              	.LCFI7:
 113              	 .cfi_def_cfa_register 7
 326:../Startup/system_XMC4500.c ****   memcpy(g_chipid, CHIPID_LOC, 16);
 114              	 .loc 1 326 0
 115 0004 054A     	 ldr r2,.L5
 116 0006 4FF00053 	 mov r3,#536870912
 117 000a 1446     	 mov r4,r2
 118 000c 0FCB     	 ldmia r3,{r0,r1,r2,r3}
 119 000e 84E80F00 	 stmia r4,{r0,r1,r2,r3}
 327:../Startup/system_XMC4500.c **** 
 328:../Startup/system_XMC4500.c ****   SystemCoreSetup();
 120              	 .loc 1 328 0
 121 0012 FFF7FEFF 	 bl SystemCoreSetup
 329:../Startup/system_XMC4500.c ****   SystemCoreClockSetup(); 
 122              	 .loc 1 329 0
 123 0016 FFF7FEFF 	 bl SystemCoreClockSetup
 330:../Startup/system_XMC4500.c **** }
 124              	 .loc 1 330 0
 125 001a 98BD     	 pop {r3,r4,r7,pc}
 126              	.L6:
 127              	 .align 2
 128              	.L5:
 129 001c 00000000 	 .word g_chipid
 130              	 .cfi_endproc
 131              	.LFE131:
 133              	 .section .text.SystemCoreSetup,"ax",%progbits
 134              	 .align 2
 135              	 .weak SystemCoreSetup
 136              	 .thumb
 137              	 .thumb_func
 139              	SystemCoreSetup:
 140              	.LFB132:
 331:../Startup/system_XMC4500.c **** 
 332:../Startup/system_XMC4500.c **** __WEAK void SystemCoreSetup(void)
 333:../Startup/system_XMC4500.c **** {
 141              	 .loc 1 333 0
 142              	 .cfi_startproc
 143              	 
 144              	 
 145              	 
 146 0000 80B4     	 push {r7}
 147              	.LCFI8:
 148              	 .cfi_def_cfa_offset 4
 149              	 .cfi_offset 7,-4
 150 0002 83B0     	 sub sp,sp,#12
 151              	.LCFI9:
 152              	 .cfi_def_cfa_offset 16
 153 0004 00AF     	 add r7,sp,#0
 154              	.LCFI10:
 155              	 .cfi_def_cfa_register 7
 156              	.LBB8:
 157              	.LBB9:
 158              	 .file 2 "C:/Users/emob/Desktop/smartlogger/design/firmware/xmc4500/smart_logger/smart_logger/Libraries/CMSIS/Include/cmsis_gcc.h"
   1:C:/Users/emob/Desktop/smartlogger/design/firmware/xmc4500/smart_logger/smart_logger/Libraries/CMSIS/Include\cmsis_gcc.h **** /**************************************************************************//**
   2:C:/Users/emob/Desktop/smartlogger/design/firmware/xmc4500/smart_logger/smart_logger/Libraries/CMSIS/Include\cmsis_gcc.h ****  * @file     cmsis_gcc.h
   3:C:/Users/emob/Desktop/smartlogger/design/firmware/xmc4500/smart_logger/smart_logger/Libraries/CMSIS/Include\cmsis_gcc.h ****  * @brief    CMSIS compiler GCC header file
   4:C:/Users/emob/Desktop/smartlogger/design/firmware/xmc4500/smart_logger/smart_logger/Libraries/CMSIS/Include\cmsis_gcc.h ****  * @version  V5.0.4
   5:C:/Users/emob/Desktop/smartlogger/design/firmware/xmc4500/smart_logger/smart_logger/Libraries/CMSIS/Include\cmsis_gcc.h ****  * @date     09. April 2018
   6:C:/Users/emob/Desktop/smartlogger/design/firmware/xmc4500/smart_logger/smart_logger/Libraries/CMSIS/Include\cmsis_gcc.h ****  ******************************************************************************/
   7:C:/Users/emob/Desktop/smartlogger/design/firmware/xmc4500/smart_logger/smart_logger/Libraries/CMSIS/Include\cmsis_gcc.h **** /*
   8:C:/Users/emob/Desktop/smartlogger/design/firmware/xmc4500/smart_logger/smart_logger/Libraries/CMSIS/Include\cmsis_gcc.h ****  * Copyright (c) 2009-2018 Arm Limited. All rights reserved.
   9:C:/Users/emob/Desktop/smartlogger/design/firmware/xmc4500/smart_logger/smart_logger/Libraries/CMSIS/Include\cmsis_gcc.h ****  *
  10:C:/Users/emob/Desktop/smartlogger/design/firmware/xmc4500/smart_logger/smart_logger/Libraries/CMSIS/Include\cmsis_gcc.h ****  * SPDX-License-Identifier: Apache-2.0
  11:C:/Users/emob/Desktop/smartlogger/design/firmware/xmc4500/smart_logger/smart_logger/Libraries/CMSIS/Include\cmsis_gcc.h ****  *
  12:C:/Users/emob/Desktop/smartlogger/design/firmware/xmc4500/smart_logger/smart_logger/Libraries/CMSIS/Include\cmsis_gcc.h ****  * Licensed under the Apache License, Version 2.0 (the License); you may
  13:C:/Users/emob/Desktop/smartlogger/design/firmware/xmc4500/smart_logger/smart_logger/Libraries/CMSIS/Include\cmsis_gcc.h ****  * not use this file except in compliance with the License.
  14:C:/Users/emob/Desktop/smartlogger/design/firmware/xmc4500/smart_logger/smart_logger/Libraries/CMSIS/Include\cmsis_gcc.h ****  * You may obtain a copy of the License at
  15:C:/Users/emob/Desktop/smartlogger/design/firmware/xmc4500/smart_logger/smart_logger/Libraries/CMSIS/Include\cmsis_gcc.h ****  *
  16:C:/Users/emob/Desktop/smartlogger/design/firmware/xmc4500/smart_logger/smart_logger/Libraries/CMSIS/Include\cmsis_gcc.h ****  * www.apache.org/licenses/LICENSE-2.0
  17:C:/Users/emob/Desktop/smartlogger/design/firmware/xmc4500/smart_logger/smart_logger/Libraries/CMSIS/Include\cmsis_gcc.h ****  *
  18:C:/Users/emob/Desktop/smartlogger/design/firmware/xmc4500/smart_logger/smart_logger/Libraries/CMSIS/Include\cmsis_gcc.h ****  * Unless required by applicable law or agreed to in writing, software
  19:C:/Users/emob/Desktop/smartlogger/design/firmware/xmc4500/smart_logger/smart_logger/Libraries/CMSIS/Include\cmsis_gcc.h ****  * distributed under the License is distributed on an AS IS BASIS, WITHOUT
  20:C:/Users/emob/Desktop/smartlogger/design/firmware/xmc4500/smart_logger/smart_logger/Libraries/CMSIS/Include\cmsis_gcc.h ****  * WARRANTIES OR CONDITIONS OF ANY KIND, either express or implied.
  21:C:/Users/emob/Desktop/smartlogger/design/firmware/xmc4500/smart_logger/smart_logger/Libraries/CMSIS/Include\cmsis_gcc.h ****  * See the License for the specific language governing permissions and
  22:C:/Users/emob/Desktop/smartlogger/design/firmware/xmc4500/smart_logger/smart_logger/Libraries/CMSIS/Include\cmsis_gcc.h ****  * limitations under the License.
  23:C:/Users/emob/Desktop/smartlogger/design/firmware/xmc4500/smart_logger/smart_logger/Libraries/CMSIS/Include\cmsis_gcc.h ****  */
  24:C:/Users/emob/Desktop/smartlogger/design/firmware/xmc4500/smart_logger/smart_logger/Libraries/CMSIS/Include\cmsis_gcc.h **** 
  25:C:/Users/emob/Desktop/smartlogger/design/firmware/xmc4500/smart_logger/smart_logger/Libraries/CMSIS/Include\cmsis_gcc.h **** #ifndef __CMSIS_GCC_H
  26:C:/Users/emob/Desktop/smartlogger/design/firmware/xmc4500/smart_logger/smart_logger/Libraries/CMSIS/Include\cmsis_gcc.h **** #define __CMSIS_GCC_H
  27:C:/Users/emob/Desktop/smartlogger/design/firmware/xmc4500/smart_logger/smart_logger/Libraries/CMSIS/Include\cmsis_gcc.h **** 
  28:C:/Users/emob/Desktop/smartlogger/design/firmware/xmc4500/smart_logger/smart_logger/Libraries/CMSIS/Include\cmsis_gcc.h **** /* ignore some GCC warnings */
  29:C:/Users/emob/Desktop/smartlogger/design/firmware/xmc4500/smart_logger/smart_logger/Libraries/CMSIS/Include\cmsis_gcc.h **** #pragma GCC diagnostic push
  30:C:/Users/emob/Desktop/smartlogger/design/firmware/xmc4500/smart_logger/smart_logger/Libraries/CMSIS/Include\cmsis_gcc.h **** #pragma GCC diagnostic ignored "-Wsign-conversion"
  31:C:/Users/emob/Desktop/smartlogger/design/firmware/xmc4500/smart_logger/smart_logger/Libraries/CMSIS/Include\cmsis_gcc.h **** #pragma GCC diagnostic ignored "-Wconversion"
  32:C:/Users/emob/Desktop/smartlogger/design/firmware/xmc4500/smart_logger/smart_logger/Libraries/CMSIS/Include\cmsis_gcc.h **** #pragma GCC diagnostic ignored "-Wunused-parameter"
  33:C:/Users/emob/Desktop/smartlogger/design/firmware/xmc4500/smart_logger/smart_logger/Libraries/CMSIS/Include\cmsis_gcc.h **** 
  34:C:/Users/emob/Desktop/smartlogger/design/firmware/xmc4500/smart_logger/smart_logger/Libraries/CMSIS/Include\cmsis_gcc.h **** /* Fallback for __has_builtin */
  35:C:/Users/emob/Desktop/smartlogger/design/firmware/xmc4500/smart_logger/smart_logger/Libraries/CMSIS/Include\cmsis_gcc.h **** #ifndef __has_builtin
  36:C:/Users/emob/Desktop/smartlogger/design/firmware/xmc4500/smart_logger/smart_logger/Libraries/CMSIS/Include\cmsis_gcc.h ****   #define __has_builtin(x) (0)
  37:C:/Users/emob/Desktop/smartlogger/design/firmware/xmc4500/smart_logger/smart_logger/Libraries/CMSIS/Include\cmsis_gcc.h **** #endif
  38:C:/Users/emob/Desktop/smartlogger/design/firmware/xmc4500/smart_logger/smart_logger/Libraries/CMSIS/Include\cmsis_gcc.h **** 
  39:C:/Users/emob/Desktop/smartlogger/design/firmware/xmc4500/smart_logger/smart_logger/Libraries/CMSIS/Include\cmsis_gcc.h **** /* CMSIS compiler specific defines */
  40:C:/Users/emob/Desktop/smartlogger/design/firmware/xmc4500/smart_logger/smart_logger/Libraries/CMSIS/Include\cmsis_gcc.h **** #ifndef   __ASM
  41:C:/Users/emob/Desktop/smartlogger/design/firmware/xmc4500/smart_logger/smart_logger/Libraries/CMSIS/Include\cmsis_gcc.h ****   #define __ASM                                  __asm
  42:C:/Users/emob/Desktop/smartlogger/design/firmware/xmc4500/smart_logger/smart_logger/Libraries/CMSIS/Include\cmsis_gcc.h **** #endif
  43:C:/Users/emob/Desktop/smartlogger/design/firmware/xmc4500/smart_logger/smart_logger/Libraries/CMSIS/Include\cmsis_gcc.h **** #ifndef   __INLINE
  44:C:/Users/emob/Desktop/smartlogger/design/firmware/xmc4500/smart_logger/smart_logger/Libraries/CMSIS/Include\cmsis_gcc.h ****   #define __INLINE                               inline
  45:C:/Users/emob/Desktop/smartlogger/design/firmware/xmc4500/smart_logger/smart_logger/Libraries/CMSIS/Include\cmsis_gcc.h **** #endif
  46:C:/Users/emob/Desktop/smartlogger/design/firmware/xmc4500/smart_logger/smart_logger/Libraries/CMSIS/Include\cmsis_gcc.h **** #ifndef   __STATIC_INLINE
  47:C:/Users/emob/Desktop/smartlogger/design/firmware/xmc4500/smart_logger/smart_logger/Libraries/CMSIS/Include\cmsis_gcc.h ****   #define __STATIC_INLINE                        static inline
  48:C:/Users/emob/Desktop/smartlogger/design/firmware/xmc4500/smart_logger/smart_logger/Libraries/CMSIS/Include\cmsis_gcc.h **** #endif
  49:C:/Users/emob/Desktop/smartlogger/design/firmware/xmc4500/smart_logger/smart_logger/Libraries/CMSIS/Include\cmsis_gcc.h **** #ifndef   __STATIC_FORCEINLINE                 
  50:C:/Users/emob/Desktop/smartlogger/design/firmware/xmc4500/smart_logger/smart_logger/Libraries/CMSIS/Include\cmsis_gcc.h ****   #define __STATIC_FORCEINLINE                   __attribute__((always_inline)) static inline
  51:C:/Users/emob/Desktop/smartlogger/design/firmware/xmc4500/smart_logger/smart_logger/Libraries/CMSIS/Include\cmsis_gcc.h **** #endif                                           
  52:C:/Users/emob/Desktop/smartlogger/design/firmware/xmc4500/smart_logger/smart_logger/Libraries/CMSIS/Include\cmsis_gcc.h **** #ifndef   __NO_RETURN
  53:C:/Users/emob/Desktop/smartlogger/design/firmware/xmc4500/smart_logger/smart_logger/Libraries/CMSIS/Include\cmsis_gcc.h ****   #define __NO_RETURN                            __attribute__((__noreturn__))
  54:C:/Users/emob/Desktop/smartlogger/design/firmware/xmc4500/smart_logger/smart_logger/Libraries/CMSIS/Include\cmsis_gcc.h **** #endif
  55:C:/Users/emob/Desktop/smartlogger/design/firmware/xmc4500/smart_logger/smart_logger/Libraries/CMSIS/Include\cmsis_gcc.h **** #ifndef   __USED
  56:C:/Users/emob/Desktop/smartlogger/design/firmware/xmc4500/smart_logger/smart_logger/Libraries/CMSIS/Include\cmsis_gcc.h ****   #define __USED                                 __attribute__((used))
  57:C:/Users/emob/Desktop/smartlogger/design/firmware/xmc4500/smart_logger/smart_logger/Libraries/CMSIS/Include\cmsis_gcc.h **** #endif
  58:C:/Users/emob/Desktop/smartlogger/design/firmware/xmc4500/smart_logger/smart_logger/Libraries/CMSIS/Include\cmsis_gcc.h **** #ifndef   __WEAK
  59:C:/Users/emob/Desktop/smartlogger/design/firmware/xmc4500/smart_logger/smart_logger/Libraries/CMSIS/Include\cmsis_gcc.h ****   #define __WEAK                                 __attribute__((weak))
  60:C:/Users/emob/Desktop/smartlogger/design/firmware/xmc4500/smart_logger/smart_logger/Libraries/CMSIS/Include\cmsis_gcc.h **** #endif
  61:C:/Users/emob/Desktop/smartlogger/design/firmware/xmc4500/smart_logger/smart_logger/Libraries/CMSIS/Include\cmsis_gcc.h **** #ifndef   __PACKED
  62:C:/Users/emob/Desktop/smartlogger/design/firmware/xmc4500/smart_logger/smart_logger/Libraries/CMSIS/Include\cmsis_gcc.h ****   #define __PACKED                               __attribute__((packed, aligned(1)))
  63:C:/Users/emob/Desktop/smartlogger/design/firmware/xmc4500/smart_logger/smart_logger/Libraries/CMSIS/Include\cmsis_gcc.h **** #endif
  64:C:/Users/emob/Desktop/smartlogger/design/firmware/xmc4500/smart_logger/smart_logger/Libraries/CMSIS/Include\cmsis_gcc.h **** #ifndef   __PACKED_STRUCT
  65:C:/Users/emob/Desktop/smartlogger/design/firmware/xmc4500/smart_logger/smart_logger/Libraries/CMSIS/Include\cmsis_gcc.h ****   #define __PACKED_STRUCT                        struct __attribute__((packed, aligned(1)))
  66:C:/Users/emob/Desktop/smartlogger/design/firmware/xmc4500/smart_logger/smart_logger/Libraries/CMSIS/Include\cmsis_gcc.h **** #endif
  67:C:/Users/emob/Desktop/smartlogger/design/firmware/xmc4500/smart_logger/smart_logger/Libraries/CMSIS/Include\cmsis_gcc.h **** #ifndef   __PACKED_UNION
  68:C:/Users/emob/Desktop/smartlogger/design/firmware/xmc4500/smart_logger/smart_logger/Libraries/CMSIS/Include\cmsis_gcc.h ****   #define __PACKED_UNION                         union __attribute__((packed, aligned(1)))
  69:C:/Users/emob/Desktop/smartlogger/design/firmware/xmc4500/smart_logger/smart_logger/Libraries/CMSIS/Include\cmsis_gcc.h **** #endif
  70:C:/Users/emob/Desktop/smartlogger/design/firmware/xmc4500/smart_logger/smart_logger/Libraries/CMSIS/Include\cmsis_gcc.h **** #ifndef   __UNALIGNED_UINT32        /* deprecated */
  71:C:/Users/emob/Desktop/smartlogger/design/firmware/xmc4500/smart_logger/smart_logger/Libraries/CMSIS/Include\cmsis_gcc.h ****   #pragma GCC diagnostic push
  72:C:/Users/emob/Desktop/smartlogger/design/firmware/xmc4500/smart_logger/smart_logger/Libraries/CMSIS/Include\cmsis_gcc.h ****   #pragma GCC diagnostic ignored "-Wpacked"
  73:C:/Users/emob/Desktop/smartlogger/design/firmware/xmc4500/smart_logger/smart_logger/Libraries/CMSIS/Include\cmsis_gcc.h ****   #pragma GCC diagnostic ignored "-Wattributes"
  74:C:/Users/emob/Desktop/smartlogger/design/firmware/xmc4500/smart_logger/smart_logger/Libraries/CMSIS/Include\cmsis_gcc.h ****   struct __attribute__((packed)) T_UINT32 { uint32_t v; };
  75:C:/Users/emob/Desktop/smartlogger/design/firmware/xmc4500/smart_logger/smart_logger/Libraries/CMSIS/Include\cmsis_gcc.h ****   #pragma GCC diagnostic pop
  76:C:/Users/emob/Desktop/smartlogger/design/firmware/xmc4500/smart_logger/smart_logger/Libraries/CMSIS/Include\cmsis_gcc.h ****   #define __UNALIGNED_UINT32(x)                  (((struct T_UINT32 *)(x))->v)
  77:C:/Users/emob/Desktop/smartlogger/design/firmware/xmc4500/smart_logger/smart_logger/Libraries/CMSIS/Include\cmsis_gcc.h **** #endif
  78:C:/Users/emob/Desktop/smartlogger/design/firmware/xmc4500/smart_logger/smart_logger/Libraries/CMSIS/Include\cmsis_gcc.h **** #ifndef   __UNALIGNED_UINT16_WRITE
  79:C:/Users/emob/Desktop/smartlogger/design/firmware/xmc4500/smart_logger/smart_logger/Libraries/CMSIS/Include\cmsis_gcc.h ****   #pragma GCC diagnostic push
  80:C:/Users/emob/Desktop/smartlogger/design/firmware/xmc4500/smart_logger/smart_logger/Libraries/CMSIS/Include\cmsis_gcc.h ****   #pragma GCC diagnostic ignored "-Wpacked"
  81:C:/Users/emob/Desktop/smartlogger/design/firmware/xmc4500/smart_logger/smart_logger/Libraries/CMSIS/Include\cmsis_gcc.h ****   #pragma GCC diagnostic ignored "-Wattributes"
  82:C:/Users/emob/Desktop/smartlogger/design/firmware/xmc4500/smart_logger/smart_logger/Libraries/CMSIS/Include\cmsis_gcc.h ****   __PACKED_STRUCT T_UINT16_WRITE { uint16_t v; };
  83:C:/Users/emob/Desktop/smartlogger/design/firmware/xmc4500/smart_logger/smart_logger/Libraries/CMSIS/Include\cmsis_gcc.h ****   #pragma GCC diagnostic pop
  84:C:/Users/emob/Desktop/smartlogger/design/firmware/xmc4500/smart_logger/smart_logger/Libraries/CMSIS/Include\cmsis_gcc.h ****   #define __UNALIGNED_UINT16_WRITE(addr, val)    (void)((((struct T_UINT16_WRITE *)(void *)(addr))-
  85:C:/Users/emob/Desktop/smartlogger/design/firmware/xmc4500/smart_logger/smart_logger/Libraries/CMSIS/Include\cmsis_gcc.h **** #endif
  86:C:/Users/emob/Desktop/smartlogger/design/firmware/xmc4500/smart_logger/smart_logger/Libraries/CMSIS/Include\cmsis_gcc.h **** #ifndef   __UNALIGNED_UINT16_READ
  87:C:/Users/emob/Desktop/smartlogger/design/firmware/xmc4500/smart_logger/smart_logger/Libraries/CMSIS/Include\cmsis_gcc.h ****   #pragma GCC diagnostic push
  88:C:/Users/emob/Desktop/smartlogger/design/firmware/xmc4500/smart_logger/smart_logger/Libraries/CMSIS/Include\cmsis_gcc.h ****   #pragma GCC diagnostic ignored "-Wpacked"
  89:C:/Users/emob/Desktop/smartlogger/design/firmware/xmc4500/smart_logger/smart_logger/Libraries/CMSIS/Include\cmsis_gcc.h ****   #pragma GCC diagnostic ignored "-Wattributes"
  90:C:/Users/emob/Desktop/smartlogger/design/firmware/xmc4500/smart_logger/smart_logger/Libraries/CMSIS/Include\cmsis_gcc.h ****   __PACKED_STRUCT T_UINT16_READ { uint16_t v; };
  91:C:/Users/emob/Desktop/smartlogger/design/firmware/xmc4500/smart_logger/smart_logger/Libraries/CMSIS/Include\cmsis_gcc.h ****   #pragma GCC diagnostic pop
  92:C:/Users/emob/Desktop/smartlogger/design/firmware/xmc4500/smart_logger/smart_logger/Libraries/CMSIS/Include\cmsis_gcc.h ****   #define __UNALIGNED_UINT16_READ(addr)          (((const struct T_UINT16_READ *)(const void *)(add
  93:C:/Users/emob/Desktop/smartlogger/design/firmware/xmc4500/smart_logger/smart_logger/Libraries/CMSIS/Include\cmsis_gcc.h **** #endif
  94:C:/Users/emob/Desktop/smartlogger/design/firmware/xmc4500/smart_logger/smart_logger/Libraries/CMSIS/Include\cmsis_gcc.h **** #ifndef   __UNALIGNED_UINT32_WRITE
  95:C:/Users/emob/Desktop/smartlogger/design/firmware/xmc4500/smart_logger/smart_logger/Libraries/CMSIS/Include\cmsis_gcc.h ****   #pragma GCC diagnostic push
  96:C:/Users/emob/Desktop/smartlogger/design/firmware/xmc4500/smart_logger/smart_logger/Libraries/CMSIS/Include\cmsis_gcc.h ****   #pragma GCC diagnostic ignored "-Wpacked"
  97:C:/Users/emob/Desktop/smartlogger/design/firmware/xmc4500/smart_logger/smart_logger/Libraries/CMSIS/Include\cmsis_gcc.h ****   #pragma GCC diagnostic ignored "-Wattributes"
  98:C:/Users/emob/Desktop/smartlogger/design/firmware/xmc4500/smart_logger/smart_logger/Libraries/CMSIS/Include\cmsis_gcc.h ****   __PACKED_STRUCT T_UINT32_WRITE { uint32_t v; };
  99:C:/Users/emob/Desktop/smartlogger/design/firmware/xmc4500/smart_logger/smart_logger/Libraries/CMSIS/Include\cmsis_gcc.h ****   #pragma GCC diagnostic pop
 100:C:/Users/emob/Desktop/smartlogger/design/firmware/xmc4500/smart_logger/smart_logger/Libraries/CMSIS/Include\cmsis_gcc.h ****   #define __UNALIGNED_UINT32_WRITE(addr, val)    (void)((((struct T_UINT32_WRITE *)(void *)(addr))-
 101:C:/Users/emob/Desktop/smartlogger/design/firmware/xmc4500/smart_logger/smart_logger/Libraries/CMSIS/Include\cmsis_gcc.h **** #endif
 102:C:/Users/emob/Desktop/smartlogger/design/firmware/xmc4500/smart_logger/smart_logger/Libraries/CMSIS/Include\cmsis_gcc.h **** #ifndef   __UNALIGNED_UINT32_READ
 103:C:/Users/emob/Desktop/smartlogger/design/firmware/xmc4500/smart_logger/smart_logger/Libraries/CMSIS/Include\cmsis_gcc.h ****   #pragma GCC diagnostic push
 104:C:/Users/emob/Desktop/smartlogger/design/firmware/xmc4500/smart_logger/smart_logger/Libraries/CMSIS/Include\cmsis_gcc.h ****   #pragma GCC diagnostic ignored "-Wpacked"
 105:C:/Users/emob/Desktop/smartlogger/design/firmware/xmc4500/smart_logger/smart_logger/Libraries/CMSIS/Include\cmsis_gcc.h ****   #pragma GCC diagnostic ignored "-Wattributes"
 106:C:/Users/emob/Desktop/smartlogger/design/firmware/xmc4500/smart_logger/smart_logger/Libraries/CMSIS/Include\cmsis_gcc.h ****   __PACKED_STRUCT T_UINT32_READ { uint32_t v; };
 107:C:/Users/emob/Desktop/smartlogger/design/firmware/xmc4500/smart_logger/smart_logger/Libraries/CMSIS/Include\cmsis_gcc.h ****   #pragma GCC diagnostic pop
 108:C:/Users/emob/Desktop/smartlogger/design/firmware/xmc4500/smart_logger/smart_logger/Libraries/CMSIS/Include\cmsis_gcc.h ****   #define __UNALIGNED_UINT32_READ(addr)          (((const struct T_UINT32_READ *)(const void *)(add
 109:C:/Users/emob/Desktop/smartlogger/design/firmware/xmc4500/smart_logger/smart_logger/Libraries/CMSIS/Include\cmsis_gcc.h **** #endif
 110:C:/Users/emob/Desktop/smartlogger/design/firmware/xmc4500/smart_logger/smart_logger/Libraries/CMSIS/Include\cmsis_gcc.h **** #ifndef   __ALIGNED
 111:C:/Users/emob/Desktop/smartlogger/design/firmware/xmc4500/smart_logger/smart_logger/Libraries/CMSIS/Include\cmsis_gcc.h ****   #define __ALIGNED(x)                           __attribute__((aligned(x)))
 112:C:/Users/emob/Desktop/smartlogger/design/firmware/xmc4500/smart_logger/smart_logger/Libraries/CMSIS/Include\cmsis_gcc.h **** #endif
 113:C:/Users/emob/Desktop/smartlogger/design/firmware/xmc4500/smart_logger/smart_logger/Libraries/CMSIS/Include\cmsis_gcc.h **** #ifndef   __RESTRICT
 114:C:/Users/emob/Desktop/smartlogger/design/firmware/xmc4500/smart_logger/smart_logger/Libraries/CMSIS/Include\cmsis_gcc.h ****   #define __RESTRICT                             __restrict
 115:C:/Users/emob/Desktop/smartlogger/design/firmware/xmc4500/smart_logger/smart_logger/Libraries/CMSIS/Include\cmsis_gcc.h **** #endif
 116:C:/Users/emob/Desktop/smartlogger/design/firmware/xmc4500/smart_logger/smart_logger/Libraries/CMSIS/Include\cmsis_gcc.h **** 
 117:C:/Users/emob/Desktop/smartlogger/design/firmware/xmc4500/smart_logger/smart_logger/Libraries/CMSIS/Include\cmsis_gcc.h **** 
 118:C:/Users/emob/Desktop/smartlogger/design/firmware/xmc4500/smart_logger/smart_logger/Libraries/CMSIS/Include\cmsis_gcc.h **** /* ###########################  Core Function Access  ########################### */
 119:C:/Users/emob/Desktop/smartlogger/design/firmware/xmc4500/smart_logger/smart_logger/Libraries/CMSIS/Include\cmsis_gcc.h **** /** \ingroup  CMSIS_Core_FunctionInterface
 120:C:/Users/emob/Desktop/smartlogger/design/firmware/xmc4500/smart_logger/smart_logger/Libraries/CMSIS/Include\cmsis_gcc.h ****     \defgroup CMSIS_Core_RegAccFunctions CMSIS Core Register Access Functions
 121:C:/Users/emob/Desktop/smartlogger/design/firmware/xmc4500/smart_logger/smart_logger/Libraries/CMSIS/Include\cmsis_gcc.h ****   @{
 122:C:/Users/emob/Desktop/smartlogger/design/firmware/xmc4500/smart_logger/smart_logger/Libraries/CMSIS/Include\cmsis_gcc.h ****  */
 123:C:/Users/emob/Desktop/smartlogger/design/firmware/xmc4500/smart_logger/smart_logger/Libraries/CMSIS/Include\cmsis_gcc.h **** 
 124:C:/Users/emob/Desktop/smartlogger/design/firmware/xmc4500/smart_logger/smart_logger/Libraries/CMSIS/Include\cmsis_gcc.h **** /**
 125:C:/Users/emob/Desktop/smartlogger/design/firmware/xmc4500/smart_logger/smart_logger/Libraries/CMSIS/Include\cmsis_gcc.h ****   \brief   Enable IRQ Interrupts
 126:C:/Users/emob/Desktop/smartlogger/design/firmware/xmc4500/smart_logger/smart_logger/Libraries/CMSIS/Include\cmsis_gcc.h ****   \details Enables IRQ interrupts by clearing the I-bit in the CPSR.
 127:C:/Users/emob/Desktop/smartlogger/design/firmware/xmc4500/smart_logger/smart_logger/Libraries/CMSIS/Include\cmsis_gcc.h ****            Can only be executed in Privileged modes.
 128:C:/Users/emob/Desktop/smartlogger/design/firmware/xmc4500/smart_logger/smart_logger/Libraries/CMSIS/Include\cmsis_gcc.h ****  */
 129:C:/Users/emob/Desktop/smartlogger/design/firmware/xmc4500/smart_logger/smart_logger/Libraries/CMSIS/Include\cmsis_gcc.h **** __STATIC_FORCEINLINE void __enable_irq(void)
 130:C:/Users/emob/Desktop/smartlogger/design/firmware/xmc4500/smart_logger/smart_logger/Libraries/CMSIS/Include\cmsis_gcc.h **** {
 131:C:/Users/emob/Desktop/smartlogger/design/firmware/xmc4500/smart_logger/smart_logger/Libraries/CMSIS/Include\cmsis_gcc.h ****   __ASM volatile ("cpsie i" : : : "memory");
 132:C:/Users/emob/Desktop/smartlogger/design/firmware/xmc4500/smart_logger/smart_logger/Libraries/CMSIS/Include\cmsis_gcc.h **** }
 133:C:/Users/emob/Desktop/smartlogger/design/firmware/xmc4500/smart_logger/smart_logger/Libraries/CMSIS/Include\cmsis_gcc.h **** 
 134:C:/Users/emob/Desktop/smartlogger/design/firmware/xmc4500/smart_logger/smart_logger/Libraries/CMSIS/Include\cmsis_gcc.h **** 
 135:C:/Users/emob/Desktop/smartlogger/design/firmware/xmc4500/smart_logger/smart_logger/Libraries/CMSIS/Include\cmsis_gcc.h **** /**
 136:C:/Users/emob/Desktop/smartlogger/design/firmware/xmc4500/smart_logger/smart_logger/Libraries/CMSIS/Include\cmsis_gcc.h ****   \brief   Disable IRQ Interrupts
 137:C:/Users/emob/Desktop/smartlogger/design/firmware/xmc4500/smart_logger/smart_logger/Libraries/CMSIS/Include\cmsis_gcc.h ****   \details Disables IRQ interrupts by setting the I-bit in the CPSR.
 138:C:/Users/emob/Desktop/smartlogger/design/firmware/xmc4500/smart_logger/smart_logger/Libraries/CMSIS/Include\cmsis_gcc.h ****            Can only be executed in Privileged modes.
 139:C:/Users/emob/Desktop/smartlogger/design/firmware/xmc4500/smart_logger/smart_logger/Libraries/CMSIS/Include\cmsis_gcc.h ****  */
 140:C:/Users/emob/Desktop/smartlogger/design/firmware/xmc4500/smart_logger/smart_logger/Libraries/CMSIS/Include\cmsis_gcc.h **** __STATIC_FORCEINLINE void __disable_irq(void)
 141:C:/Users/emob/Desktop/smartlogger/design/firmware/xmc4500/smart_logger/smart_logger/Libraries/CMSIS/Include\cmsis_gcc.h **** {
 142:C:/Users/emob/Desktop/smartlogger/design/firmware/xmc4500/smart_logger/smart_logger/Libraries/CMSIS/Include\cmsis_gcc.h ****   __ASM volatile ("cpsid i" : : : "memory");
 159              	 .loc 2 142 0
 160              	
 161 0006 72B6     	 cpsid i
 162              	
 163              	 .thumb
 164              	.LBE9:
 165              	.LBE8:
 334:../Startup/system_XMC4500.c ****   uint32_t temp;
 335:../Startup/system_XMC4500.c **** 	
 336:../Startup/system_XMC4500.c ****   /* relocate vector table */
 337:../Startup/system_XMC4500.c ****   __disable_irq();
 338:../Startup/system_XMC4500.c ****   SCB->VTOR = (uint32_t)(&__Vectors);
 166              	 .loc 1 338 0
 167 0008 164B     	 ldr r3,.L8
 168 000a 174A     	 ldr r2,.L8+4
 169 000c 9A60     	 str r2,[r3,#8]
 170              	.LBB10:
 171              	.LBB11:
 143:C:/Users/emob/Desktop/smartlogger/design/firmware/xmc4500/smart_logger/smart_logger/Libraries/CMSIS/Include\cmsis_gcc.h **** }
 144:C:/Users/emob/Desktop/smartlogger/design/firmware/xmc4500/smart_logger/smart_logger/Libraries/CMSIS/Include\cmsis_gcc.h **** 
 145:C:/Users/emob/Desktop/smartlogger/design/firmware/xmc4500/smart_logger/smart_logger/Libraries/CMSIS/Include\cmsis_gcc.h **** 
 146:C:/Users/emob/Desktop/smartlogger/design/firmware/xmc4500/smart_logger/smart_logger/Libraries/CMSIS/Include\cmsis_gcc.h **** /**
 147:C:/Users/emob/Desktop/smartlogger/design/firmware/xmc4500/smart_logger/smart_logger/Libraries/CMSIS/Include\cmsis_gcc.h ****   \brief   Get Control Register
 148:C:/Users/emob/Desktop/smartlogger/design/firmware/xmc4500/smart_logger/smart_logger/Libraries/CMSIS/Include\cmsis_gcc.h ****   \details Returns the content of the Control Register.
 149:C:/Users/emob/Desktop/smartlogger/design/firmware/xmc4500/smart_logger/smart_logger/Libraries/CMSIS/Include\cmsis_gcc.h ****   \return               Control Register value
 150:C:/Users/emob/Desktop/smartlogger/design/firmware/xmc4500/smart_logger/smart_logger/Libraries/CMSIS/Include\cmsis_gcc.h ****  */
 151:C:/Users/emob/Desktop/smartlogger/design/firmware/xmc4500/smart_logger/smart_logger/Libraries/CMSIS/Include\cmsis_gcc.h **** __STATIC_FORCEINLINE uint32_t __get_CONTROL(void)
 152:C:/Users/emob/Desktop/smartlogger/design/firmware/xmc4500/smart_logger/smart_logger/Libraries/CMSIS/Include\cmsis_gcc.h **** {
 153:C:/Users/emob/Desktop/smartlogger/design/firmware/xmc4500/smart_logger/smart_logger/Libraries/CMSIS/Include\cmsis_gcc.h ****   uint32_t result;
 154:C:/Users/emob/Desktop/smartlogger/design/firmware/xmc4500/smart_logger/smart_logger/Libraries/CMSIS/Include\cmsis_gcc.h **** 
 155:C:/Users/emob/Desktop/smartlogger/design/firmware/xmc4500/smart_logger/smart_logger/Libraries/CMSIS/Include\cmsis_gcc.h ****   __ASM volatile ("MRS %0, control" : "=r" (result) );
 156:C:/Users/emob/Desktop/smartlogger/design/firmware/xmc4500/smart_logger/smart_logger/Libraries/CMSIS/Include\cmsis_gcc.h ****   return(result);
 157:C:/Users/emob/Desktop/smartlogger/design/firmware/xmc4500/smart_logger/smart_logger/Libraries/CMSIS/Include\cmsis_gcc.h **** }
 158:C:/Users/emob/Desktop/smartlogger/design/firmware/xmc4500/smart_logger/smart_logger/Libraries/CMSIS/Include\cmsis_gcc.h **** 
 159:C:/Users/emob/Desktop/smartlogger/design/firmware/xmc4500/smart_logger/smart_logger/Libraries/CMSIS/Include\cmsis_gcc.h **** 
 160:C:/Users/emob/Desktop/smartlogger/design/firmware/xmc4500/smart_logger/smart_logger/Libraries/CMSIS/Include\cmsis_gcc.h **** #if (defined (__ARM_FEATURE_CMSE ) && (__ARM_FEATURE_CMSE == 3))
 161:C:/Users/emob/Desktop/smartlogger/design/firmware/xmc4500/smart_logger/smart_logger/Libraries/CMSIS/Include\cmsis_gcc.h **** /**
 162:C:/Users/emob/Desktop/smartlogger/design/firmware/xmc4500/smart_logger/smart_logger/Libraries/CMSIS/Include\cmsis_gcc.h ****   \brief   Get Control Register (non-secure)
 163:C:/Users/emob/Desktop/smartlogger/design/firmware/xmc4500/smart_logger/smart_logger/Libraries/CMSIS/Include\cmsis_gcc.h ****   \details Returns the content of the non-secure Control Register when in secure mode.
 164:C:/Users/emob/Desktop/smartlogger/design/firmware/xmc4500/smart_logger/smart_logger/Libraries/CMSIS/Include\cmsis_gcc.h ****   \return               non-secure Control Register value
 165:C:/Users/emob/Desktop/smartlogger/design/firmware/xmc4500/smart_logger/smart_logger/Libraries/CMSIS/Include\cmsis_gcc.h ****  */
 166:C:/Users/emob/Desktop/smartlogger/design/firmware/xmc4500/smart_logger/smart_logger/Libraries/CMSIS/Include\cmsis_gcc.h **** __STATIC_FORCEINLINE uint32_t __TZ_get_CONTROL_NS(void)
 167:C:/Users/emob/Desktop/smartlogger/design/firmware/xmc4500/smart_logger/smart_logger/Libraries/CMSIS/Include\cmsis_gcc.h **** {
 168:C:/Users/emob/Desktop/smartlogger/design/firmware/xmc4500/smart_logger/smart_logger/Libraries/CMSIS/Include\cmsis_gcc.h ****   uint32_t result;
 169:C:/Users/emob/Desktop/smartlogger/design/firmware/xmc4500/smart_logger/smart_logger/Libraries/CMSIS/Include\cmsis_gcc.h **** 
 170:C:/Users/emob/Desktop/smartlogger/design/firmware/xmc4500/smart_logger/smart_logger/Libraries/CMSIS/Include\cmsis_gcc.h ****   __ASM volatile ("MRS %0, control_ns" : "=r" (result) );
 171:C:/Users/emob/Desktop/smartlogger/design/firmware/xmc4500/smart_logger/smart_logger/Libraries/CMSIS/Include\cmsis_gcc.h ****   return(result);
 172:C:/Users/emob/Desktop/smartlogger/design/firmware/xmc4500/smart_logger/smart_logger/Libraries/CMSIS/Include\cmsis_gcc.h **** }
 173:C:/Users/emob/Desktop/smartlogger/design/firmware/xmc4500/smart_logger/smart_logger/Libraries/CMSIS/Include\cmsis_gcc.h **** #endif
 174:C:/Users/emob/Desktop/smartlogger/design/firmware/xmc4500/smart_logger/smart_logger/Libraries/CMSIS/Include\cmsis_gcc.h **** 
 175:C:/Users/emob/Desktop/smartlogger/design/firmware/xmc4500/smart_logger/smart_logger/Libraries/CMSIS/Include\cmsis_gcc.h **** 
 176:C:/Users/emob/Desktop/smartlogger/design/firmware/xmc4500/smart_logger/smart_logger/Libraries/CMSIS/Include\cmsis_gcc.h **** /**
 177:C:/Users/emob/Desktop/smartlogger/design/firmware/xmc4500/smart_logger/smart_logger/Libraries/CMSIS/Include\cmsis_gcc.h ****   \brief   Set Control Register
 178:C:/Users/emob/Desktop/smartlogger/design/firmware/xmc4500/smart_logger/smart_logger/Libraries/CMSIS/Include\cmsis_gcc.h ****   \details Writes the given value to the Control Register.
 179:C:/Users/emob/Desktop/smartlogger/design/firmware/xmc4500/smart_logger/smart_logger/Libraries/CMSIS/Include\cmsis_gcc.h ****   \param [in]    control  Control Register value to set
 180:C:/Users/emob/Desktop/smartlogger/design/firmware/xmc4500/smart_logger/smart_logger/Libraries/CMSIS/Include\cmsis_gcc.h ****  */
 181:C:/Users/emob/Desktop/smartlogger/design/firmware/xmc4500/smart_logger/smart_logger/Libraries/CMSIS/Include\cmsis_gcc.h **** __STATIC_FORCEINLINE void __set_CONTROL(uint32_t control)
 182:C:/Users/emob/Desktop/smartlogger/design/firmware/xmc4500/smart_logger/smart_logger/Libraries/CMSIS/Include\cmsis_gcc.h **** {
 183:C:/Users/emob/Desktop/smartlogger/design/firmware/xmc4500/smart_logger/smart_logger/Libraries/CMSIS/Include\cmsis_gcc.h ****   __ASM volatile ("MSR control, %0" : : "r" (control) : "memory");
 184:C:/Users/emob/Desktop/smartlogger/design/firmware/xmc4500/smart_logger/smart_logger/Libraries/CMSIS/Include\cmsis_gcc.h **** }
 185:C:/Users/emob/Desktop/smartlogger/design/firmware/xmc4500/smart_logger/smart_logger/Libraries/CMSIS/Include\cmsis_gcc.h **** 
 186:C:/Users/emob/Desktop/smartlogger/design/firmware/xmc4500/smart_logger/smart_logger/Libraries/CMSIS/Include\cmsis_gcc.h **** 
 187:C:/Users/emob/Desktop/smartlogger/design/firmware/xmc4500/smart_logger/smart_logger/Libraries/CMSIS/Include\cmsis_gcc.h **** #if (defined (__ARM_FEATURE_CMSE ) && (__ARM_FEATURE_CMSE == 3))
 188:C:/Users/emob/Desktop/smartlogger/design/firmware/xmc4500/smart_logger/smart_logger/Libraries/CMSIS/Include\cmsis_gcc.h **** /**
 189:C:/Users/emob/Desktop/smartlogger/design/firmware/xmc4500/smart_logger/smart_logger/Libraries/CMSIS/Include\cmsis_gcc.h ****   \brief   Set Control Register (non-secure)
 190:C:/Users/emob/Desktop/smartlogger/design/firmware/xmc4500/smart_logger/smart_logger/Libraries/CMSIS/Include\cmsis_gcc.h ****   \details Writes the given value to the non-secure Control Register when in secure state.
 191:C:/Users/emob/Desktop/smartlogger/design/firmware/xmc4500/smart_logger/smart_logger/Libraries/CMSIS/Include\cmsis_gcc.h ****   \param [in]    control  Control Register value to set
 192:C:/Users/emob/Desktop/smartlogger/design/firmware/xmc4500/smart_logger/smart_logger/Libraries/CMSIS/Include\cmsis_gcc.h ****  */
 193:C:/Users/emob/Desktop/smartlogger/design/firmware/xmc4500/smart_logger/smart_logger/Libraries/CMSIS/Include\cmsis_gcc.h **** __STATIC_FORCEINLINE void __TZ_set_CONTROL_NS(uint32_t control)
 194:C:/Users/emob/Desktop/smartlogger/design/firmware/xmc4500/smart_logger/smart_logger/Libraries/CMSIS/Include\cmsis_gcc.h **** {
 195:C:/Users/emob/Desktop/smartlogger/design/firmware/xmc4500/smart_logger/smart_logger/Libraries/CMSIS/Include\cmsis_gcc.h ****   __ASM volatile ("MSR control_ns, %0" : : "r" (control) : "memory");
 196:C:/Users/emob/Desktop/smartlogger/design/firmware/xmc4500/smart_logger/smart_logger/Libraries/CMSIS/Include\cmsis_gcc.h **** }
 197:C:/Users/emob/Desktop/smartlogger/design/firmware/xmc4500/smart_logger/smart_logger/Libraries/CMSIS/Include\cmsis_gcc.h **** #endif
 198:C:/Users/emob/Desktop/smartlogger/design/firmware/xmc4500/smart_logger/smart_logger/Libraries/CMSIS/Include\cmsis_gcc.h **** 
 199:C:/Users/emob/Desktop/smartlogger/design/firmware/xmc4500/smart_logger/smart_logger/Libraries/CMSIS/Include\cmsis_gcc.h **** 
 200:C:/Users/emob/Desktop/smartlogger/design/firmware/xmc4500/smart_logger/smart_logger/Libraries/CMSIS/Include\cmsis_gcc.h **** /**
 201:C:/Users/emob/Desktop/smartlogger/design/firmware/xmc4500/smart_logger/smart_logger/Libraries/CMSIS/Include\cmsis_gcc.h ****   \brief   Get IPSR Register
 202:C:/Users/emob/Desktop/smartlogger/design/firmware/xmc4500/smart_logger/smart_logger/Libraries/CMSIS/Include\cmsis_gcc.h ****   \details Returns the content of the IPSR Register.
 203:C:/Users/emob/Desktop/smartlogger/design/firmware/xmc4500/smart_logger/smart_logger/Libraries/CMSIS/Include\cmsis_gcc.h ****   \return               IPSR Register value
 204:C:/Users/emob/Desktop/smartlogger/design/firmware/xmc4500/smart_logger/smart_logger/Libraries/CMSIS/Include\cmsis_gcc.h ****  */
 205:C:/Users/emob/Desktop/smartlogger/design/firmware/xmc4500/smart_logger/smart_logger/Libraries/CMSIS/Include\cmsis_gcc.h **** __STATIC_FORCEINLINE uint32_t __get_IPSR(void)
 206:C:/Users/emob/Desktop/smartlogger/design/firmware/xmc4500/smart_logger/smart_logger/Libraries/CMSIS/Include\cmsis_gcc.h **** {
 207:C:/Users/emob/Desktop/smartlogger/design/firmware/xmc4500/smart_logger/smart_logger/Libraries/CMSIS/Include\cmsis_gcc.h ****   uint32_t result;
 208:C:/Users/emob/Desktop/smartlogger/design/firmware/xmc4500/smart_logger/smart_logger/Libraries/CMSIS/Include\cmsis_gcc.h **** 
 209:C:/Users/emob/Desktop/smartlogger/design/firmware/xmc4500/smart_logger/smart_logger/Libraries/CMSIS/Include\cmsis_gcc.h ****   __ASM volatile ("MRS %0, ipsr" : "=r" (result) );
 210:C:/Users/emob/Desktop/smartlogger/design/firmware/xmc4500/smart_logger/smart_logger/Libraries/CMSIS/Include\cmsis_gcc.h ****   return(result);
 211:C:/Users/emob/Desktop/smartlogger/design/firmware/xmc4500/smart_logger/smart_logger/Libraries/CMSIS/Include\cmsis_gcc.h **** }
 212:C:/Users/emob/Desktop/smartlogger/design/firmware/xmc4500/smart_logger/smart_logger/Libraries/CMSIS/Include\cmsis_gcc.h **** 
 213:C:/Users/emob/Desktop/smartlogger/design/firmware/xmc4500/smart_logger/smart_logger/Libraries/CMSIS/Include\cmsis_gcc.h **** 
 214:C:/Users/emob/Desktop/smartlogger/design/firmware/xmc4500/smart_logger/smart_logger/Libraries/CMSIS/Include\cmsis_gcc.h **** /**
 215:C:/Users/emob/Desktop/smartlogger/design/firmware/xmc4500/smart_logger/smart_logger/Libraries/CMSIS/Include\cmsis_gcc.h ****   \brief   Get APSR Register
 216:C:/Users/emob/Desktop/smartlogger/design/firmware/xmc4500/smart_logger/smart_logger/Libraries/CMSIS/Include\cmsis_gcc.h ****   \details Returns the content of the APSR Register.
 217:C:/Users/emob/Desktop/smartlogger/design/firmware/xmc4500/smart_logger/smart_logger/Libraries/CMSIS/Include\cmsis_gcc.h ****   \return               APSR Register value
 218:C:/Users/emob/Desktop/smartlogger/design/firmware/xmc4500/smart_logger/smart_logger/Libraries/CMSIS/Include\cmsis_gcc.h ****  */
 219:C:/Users/emob/Desktop/smartlogger/design/firmware/xmc4500/smart_logger/smart_logger/Libraries/CMSIS/Include\cmsis_gcc.h **** __STATIC_FORCEINLINE uint32_t __get_APSR(void)
 220:C:/Users/emob/Desktop/smartlogger/design/firmware/xmc4500/smart_logger/smart_logger/Libraries/CMSIS/Include\cmsis_gcc.h **** {
 221:C:/Users/emob/Desktop/smartlogger/design/firmware/xmc4500/smart_logger/smart_logger/Libraries/CMSIS/Include\cmsis_gcc.h ****   uint32_t result;
 222:C:/Users/emob/Desktop/smartlogger/design/firmware/xmc4500/smart_logger/smart_logger/Libraries/CMSIS/Include\cmsis_gcc.h **** 
 223:C:/Users/emob/Desktop/smartlogger/design/firmware/xmc4500/smart_logger/smart_logger/Libraries/CMSIS/Include\cmsis_gcc.h ****   __ASM volatile ("MRS %0, apsr" : "=r" (result) );
 224:C:/Users/emob/Desktop/smartlogger/design/firmware/xmc4500/smart_logger/smart_logger/Libraries/CMSIS/Include\cmsis_gcc.h ****   return(result);
 225:C:/Users/emob/Desktop/smartlogger/design/firmware/xmc4500/smart_logger/smart_logger/Libraries/CMSIS/Include\cmsis_gcc.h **** }
 226:C:/Users/emob/Desktop/smartlogger/design/firmware/xmc4500/smart_logger/smart_logger/Libraries/CMSIS/Include\cmsis_gcc.h **** 
 227:C:/Users/emob/Desktop/smartlogger/design/firmware/xmc4500/smart_logger/smart_logger/Libraries/CMSIS/Include\cmsis_gcc.h **** 
 228:C:/Users/emob/Desktop/smartlogger/design/firmware/xmc4500/smart_logger/smart_logger/Libraries/CMSIS/Include\cmsis_gcc.h **** /**
 229:C:/Users/emob/Desktop/smartlogger/design/firmware/xmc4500/smart_logger/smart_logger/Libraries/CMSIS/Include\cmsis_gcc.h ****   \brief   Get xPSR Register
 230:C:/Users/emob/Desktop/smartlogger/design/firmware/xmc4500/smart_logger/smart_logger/Libraries/CMSIS/Include\cmsis_gcc.h ****   \details Returns the content of the xPSR Register.
 231:C:/Users/emob/Desktop/smartlogger/design/firmware/xmc4500/smart_logger/smart_logger/Libraries/CMSIS/Include\cmsis_gcc.h ****   \return               xPSR Register value
 232:C:/Users/emob/Desktop/smartlogger/design/firmware/xmc4500/smart_logger/smart_logger/Libraries/CMSIS/Include\cmsis_gcc.h ****  */
 233:C:/Users/emob/Desktop/smartlogger/design/firmware/xmc4500/smart_logger/smart_logger/Libraries/CMSIS/Include\cmsis_gcc.h **** __STATIC_FORCEINLINE uint32_t __get_xPSR(void)
 234:C:/Users/emob/Desktop/smartlogger/design/firmware/xmc4500/smart_logger/smart_logger/Libraries/CMSIS/Include\cmsis_gcc.h **** {
 235:C:/Users/emob/Desktop/smartlogger/design/firmware/xmc4500/smart_logger/smart_logger/Libraries/CMSIS/Include\cmsis_gcc.h ****   uint32_t result;
 236:C:/Users/emob/Desktop/smartlogger/design/firmware/xmc4500/smart_logger/smart_logger/Libraries/CMSIS/Include\cmsis_gcc.h **** 
 237:C:/Users/emob/Desktop/smartlogger/design/firmware/xmc4500/smart_logger/smart_logger/Libraries/CMSIS/Include\cmsis_gcc.h ****   __ASM volatile ("MRS %0, xpsr" : "=r" (result) );
 238:C:/Users/emob/Desktop/smartlogger/design/firmware/xmc4500/smart_logger/smart_logger/Libraries/CMSIS/Include\cmsis_gcc.h ****   return(result);
 239:C:/Users/emob/Desktop/smartlogger/design/firmware/xmc4500/smart_logger/smart_logger/Libraries/CMSIS/Include\cmsis_gcc.h **** }
 240:C:/Users/emob/Desktop/smartlogger/design/firmware/xmc4500/smart_logger/smart_logger/Libraries/CMSIS/Include\cmsis_gcc.h **** 
 241:C:/Users/emob/Desktop/smartlogger/design/firmware/xmc4500/smart_logger/smart_logger/Libraries/CMSIS/Include\cmsis_gcc.h **** 
 242:C:/Users/emob/Desktop/smartlogger/design/firmware/xmc4500/smart_logger/smart_logger/Libraries/CMSIS/Include\cmsis_gcc.h **** /**
 243:C:/Users/emob/Desktop/smartlogger/design/firmware/xmc4500/smart_logger/smart_logger/Libraries/CMSIS/Include\cmsis_gcc.h ****   \brief   Get Process Stack Pointer
 244:C:/Users/emob/Desktop/smartlogger/design/firmware/xmc4500/smart_logger/smart_logger/Libraries/CMSIS/Include\cmsis_gcc.h ****   \details Returns the current value of the Process Stack Pointer (PSP).
 245:C:/Users/emob/Desktop/smartlogger/design/firmware/xmc4500/smart_logger/smart_logger/Libraries/CMSIS/Include\cmsis_gcc.h ****   \return               PSP Register value
 246:C:/Users/emob/Desktop/smartlogger/design/firmware/xmc4500/smart_logger/smart_logger/Libraries/CMSIS/Include\cmsis_gcc.h ****  */
 247:C:/Users/emob/Desktop/smartlogger/design/firmware/xmc4500/smart_logger/smart_logger/Libraries/CMSIS/Include\cmsis_gcc.h **** __STATIC_FORCEINLINE uint32_t __get_PSP(void)
 248:C:/Users/emob/Desktop/smartlogger/design/firmware/xmc4500/smart_logger/smart_logger/Libraries/CMSIS/Include\cmsis_gcc.h **** {
 249:C:/Users/emob/Desktop/smartlogger/design/firmware/xmc4500/smart_logger/smart_logger/Libraries/CMSIS/Include\cmsis_gcc.h ****   uint32_t result;
 250:C:/Users/emob/Desktop/smartlogger/design/firmware/xmc4500/smart_logger/smart_logger/Libraries/CMSIS/Include\cmsis_gcc.h **** 
 251:C:/Users/emob/Desktop/smartlogger/design/firmware/xmc4500/smart_logger/smart_logger/Libraries/CMSIS/Include\cmsis_gcc.h ****   __ASM volatile ("MRS %0, psp"  : "=r" (result) );
 252:C:/Users/emob/Desktop/smartlogger/design/firmware/xmc4500/smart_logger/smart_logger/Libraries/CMSIS/Include\cmsis_gcc.h ****   return(result);
 253:C:/Users/emob/Desktop/smartlogger/design/firmware/xmc4500/smart_logger/smart_logger/Libraries/CMSIS/Include\cmsis_gcc.h **** }
 254:C:/Users/emob/Desktop/smartlogger/design/firmware/xmc4500/smart_logger/smart_logger/Libraries/CMSIS/Include\cmsis_gcc.h **** 
 255:C:/Users/emob/Desktop/smartlogger/design/firmware/xmc4500/smart_logger/smart_logger/Libraries/CMSIS/Include\cmsis_gcc.h **** 
 256:C:/Users/emob/Desktop/smartlogger/design/firmware/xmc4500/smart_logger/smart_logger/Libraries/CMSIS/Include\cmsis_gcc.h **** #if (defined (__ARM_FEATURE_CMSE ) && (__ARM_FEATURE_CMSE == 3))
 257:C:/Users/emob/Desktop/smartlogger/design/firmware/xmc4500/smart_logger/smart_logger/Libraries/CMSIS/Include\cmsis_gcc.h **** /**
 258:C:/Users/emob/Desktop/smartlogger/design/firmware/xmc4500/smart_logger/smart_logger/Libraries/CMSIS/Include\cmsis_gcc.h ****   \brief   Get Process Stack Pointer (non-secure)
 259:C:/Users/emob/Desktop/smartlogger/design/firmware/xmc4500/smart_logger/smart_logger/Libraries/CMSIS/Include\cmsis_gcc.h ****   \details Returns the current value of the non-secure Process Stack Pointer (PSP) when in secure s
 260:C:/Users/emob/Desktop/smartlogger/design/firmware/xmc4500/smart_logger/smart_logger/Libraries/CMSIS/Include\cmsis_gcc.h ****   \return               PSP Register value
 261:C:/Users/emob/Desktop/smartlogger/design/firmware/xmc4500/smart_logger/smart_logger/Libraries/CMSIS/Include\cmsis_gcc.h ****  */
 262:C:/Users/emob/Desktop/smartlogger/design/firmware/xmc4500/smart_logger/smart_logger/Libraries/CMSIS/Include\cmsis_gcc.h **** __STATIC_FORCEINLINE uint32_t __TZ_get_PSP_NS(void)
 263:C:/Users/emob/Desktop/smartlogger/design/firmware/xmc4500/smart_logger/smart_logger/Libraries/CMSIS/Include\cmsis_gcc.h **** {
 264:C:/Users/emob/Desktop/smartlogger/design/firmware/xmc4500/smart_logger/smart_logger/Libraries/CMSIS/Include\cmsis_gcc.h ****   uint32_t result;
 265:C:/Users/emob/Desktop/smartlogger/design/firmware/xmc4500/smart_logger/smart_logger/Libraries/CMSIS/Include\cmsis_gcc.h **** 
 266:C:/Users/emob/Desktop/smartlogger/design/firmware/xmc4500/smart_logger/smart_logger/Libraries/CMSIS/Include\cmsis_gcc.h ****   __ASM volatile ("MRS %0, psp_ns"  : "=r" (result) );
 267:C:/Users/emob/Desktop/smartlogger/design/firmware/xmc4500/smart_logger/smart_logger/Libraries/CMSIS/Include\cmsis_gcc.h ****   return(result);
 268:C:/Users/emob/Desktop/smartlogger/design/firmware/xmc4500/smart_logger/smart_logger/Libraries/CMSIS/Include\cmsis_gcc.h **** }
 269:C:/Users/emob/Desktop/smartlogger/design/firmware/xmc4500/smart_logger/smart_logger/Libraries/CMSIS/Include\cmsis_gcc.h **** #endif
 270:C:/Users/emob/Desktop/smartlogger/design/firmware/xmc4500/smart_logger/smart_logger/Libraries/CMSIS/Include\cmsis_gcc.h **** 
 271:C:/Users/emob/Desktop/smartlogger/design/firmware/xmc4500/smart_logger/smart_logger/Libraries/CMSIS/Include\cmsis_gcc.h **** 
 272:C:/Users/emob/Desktop/smartlogger/design/firmware/xmc4500/smart_logger/smart_logger/Libraries/CMSIS/Include\cmsis_gcc.h **** /**
 273:C:/Users/emob/Desktop/smartlogger/design/firmware/xmc4500/smart_logger/smart_logger/Libraries/CMSIS/Include\cmsis_gcc.h ****   \brief   Set Process Stack Pointer
 274:C:/Users/emob/Desktop/smartlogger/design/firmware/xmc4500/smart_logger/smart_logger/Libraries/CMSIS/Include\cmsis_gcc.h ****   \details Assigns the given value to the Process Stack Pointer (PSP).
 275:C:/Users/emob/Desktop/smartlogger/design/firmware/xmc4500/smart_logger/smart_logger/Libraries/CMSIS/Include\cmsis_gcc.h ****   \param [in]    topOfProcStack  Process Stack Pointer value to set
 276:C:/Users/emob/Desktop/smartlogger/design/firmware/xmc4500/smart_logger/smart_logger/Libraries/CMSIS/Include\cmsis_gcc.h ****  */
 277:C:/Users/emob/Desktop/smartlogger/design/firmware/xmc4500/smart_logger/smart_logger/Libraries/CMSIS/Include\cmsis_gcc.h **** __STATIC_FORCEINLINE void __set_PSP(uint32_t topOfProcStack)
 278:C:/Users/emob/Desktop/smartlogger/design/firmware/xmc4500/smart_logger/smart_logger/Libraries/CMSIS/Include\cmsis_gcc.h **** {
 279:C:/Users/emob/Desktop/smartlogger/design/firmware/xmc4500/smart_logger/smart_logger/Libraries/CMSIS/Include\cmsis_gcc.h ****   __ASM volatile ("MSR psp, %0" : : "r" (topOfProcStack) : );
 280:C:/Users/emob/Desktop/smartlogger/design/firmware/xmc4500/smart_logger/smart_logger/Libraries/CMSIS/Include\cmsis_gcc.h **** }
 281:C:/Users/emob/Desktop/smartlogger/design/firmware/xmc4500/smart_logger/smart_logger/Libraries/CMSIS/Include\cmsis_gcc.h **** 
 282:C:/Users/emob/Desktop/smartlogger/design/firmware/xmc4500/smart_logger/smart_logger/Libraries/CMSIS/Include\cmsis_gcc.h **** 
 283:C:/Users/emob/Desktop/smartlogger/design/firmware/xmc4500/smart_logger/smart_logger/Libraries/CMSIS/Include\cmsis_gcc.h **** #if (defined (__ARM_FEATURE_CMSE ) && (__ARM_FEATURE_CMSE == 3))
 284:C:/Users/emob/Desktop/smartlogger/design/firmware/xmc4500/smart_logger/smart_logger/Libraries/CMSIS/Include\cmsis_gcc.h **** /**
 285:C:/Users/emob/Desktop/smartlogger/design/firmware/xmc4500/smart_logger/smart_logger/Libraries/CMSIS/Include\cmsis_gcc.h ****   \brief   Set Process Stack Pointer (non-secure)
 286:C:/Users/emob/Desktop/smartlogger/design/firmware/xmc4500/smart_logger/smart_logger/Libraries/CMSIS/Include\cmsis_gcc.h ****   \details Assigns the given value to the non-secure Process Stack Pointer (PSP) when in secure sta
 287:C:/Users/emob/Desktop/smartlogger/design/firmware/xmc4500/smart_logger/smart_logger/Libraries/CMSIS/Include\cmsis_gcc.h ****   \param [in]    topOfProcStack  Process Stack Pointer value to set
 288:C:/Users/emob/Desktop/smartlogger/design/firmware/xmc4500/smart_logger/smart_logger/Libraries/CMSIS/Include\cmsis_gcc.h ****  */
 289:C:/Users/emob/Desktop/smartlogger/design/firmware/xmc4500/smart_logger/smart_logger/Libraries/CMSIS/Include\cmsis_gcc.h **** __STATIC_FORCEINLINE void __TZ_set_PSP_NS(uint32_t topOfProcStack)
 290:C:/Users/emob/Desktop/smartlogger/design/firmware/xmc4500/smart_logger/smart_logger/Libraries/CMSIS/Include\cmsis_gcc.h **** {
 291:C:/Users/emob/Desktop/smartlogger/design/firmware/xmc4500/smart_logger/smart_logger/Libraries/CMSIS/Include\cmsis_gcc.h ****   __ASM volatile ("MSR psp_ns, %0" : : "r" (topOfProcStack) : );
 292:C:/Users/emob/Desktop/smartlogger/design/firmware/xmc4500/smart_logger/smart_logger/Libraries/CMSIS/Include\cmsis_gcc.h **** }
 293:C:/Users/emob/Desktop/smartlogger/design/firmware/xmc4500/smart_logger/smart_logger/Libraries/CMSIS/Include\cmsis_gcc.h **** #endif
 294:C:/Users/emob/Desktop/smartlogger/design/firmware/xmc4500/smart_logger/smart_logger/Libraries/CMSIS/Include\cmsis_gcc.h **** 
 295:C:/Users/emob/Desktop/smartlogger/design/firmware/xmc4500/smart_logger/smart_logger/Libraries/CMSIS/Include\cmsis_gcc.h **** 
 296:C:/Users/emob/Desktop/smartlogger/design/firmware/xmc4500/smart_logger/smart_logger/Libraries/CMSIS/Include\cmsis_gcc.h **** /**
 297:C:/Users/emob/Desktop/smartlogger/design/firmware/xmc4500/smart_logger/smart_logger/Libraries/CMSIS/Include\cmsis_gcc.h ****   \brief   Get Main Stack Pointer
 298:C:/Users/emob/Desktop/smartlogger/design/firmware/xmc4500/smart_logger/smart_logger/Libraries/CMSIS/Include\cmsis_gcc.h ****   \details Returns the current value of the Main Stack Pointer (MSP).
 299:C:/Users/emob/Desktop/smartlogger/design/firmware/xmc4500/smart_logger/smart_logger/Libraries/CMSIS/Include\cmsis_gcc.h ****   \return               MSP Register value
 300:C:/Users/emob/Desktop/smartlogger/design/firmware/xmc4500/smart_logger/smart_logger/Libraries/CMSIS/Include\cmsis_gcc.h ****  */
 301:C:/Users/emob/Desktop/smartlogger/design/firmware/xmc4500/smart_logger/smart_logger/Libraries/CMSIS/Include\cmsis_gcc.h **** __STATIC_FORCEINLINE uint32_t __get_MSP(void)
 302:C:/Users/emob/Desktop/smartlogger/design/firmware/xmc4500/smart_logger/smart_logger/Libraries/CMSIS/Include\cmsis_gcc.h **** {
 303:C:/Users/emob/Desktop/smartlogger/design/firmware/xmc4500/smart_logger/smart_logger/Libraries/CMSIS/Include\cmsis_gcc.h ****   uint32_t result;
 304:C:/Users/emob/Desktop/smartlogger/design/firmware/xmc4500/smart_logger/smart_logger/Libraries/CMSIS/Include\cmsis_gcc.h **** 
 305:C:/Users/emob/Desktop/smartlogger/design/firmware/xmc4500/smart_logger/smart_logger/Libraries/CMSIS/Include\cmsis_gcc.h ****   __ASM volatile ("MRS %0, msp" : "=r" (result) );
 306:C:/Users/emob/Desktop/smartlogger/design/firmware/xmc4500/smart_logger/smart_logger/Libraries/CMSIS/Include\cmsis_gcc.h ****   return(result);
 307:C:/Users/emob/Desktop/smartlogger/design/firmware/xmc4500/smart_logger/smart_logger/Libraries/CMSIS/Include\cmsis_gcc.h **** }
 308:C:/Users/emob/Desktop/smartlogger/design/firmware/xmc4500/smart_logger/smart_logger/Libraries/CMSIS/Include\cmsis_gcc.h **** 
 309:C:/Users/emob/Desktop/smartlogger/design/firmware/xmc4500/smart_logger/smart_logger/Libraries/CMSIS/Include\cmsis_gcc.h **** 
 310:C:/Users/emob/Desktop/smartlogger/design/firmware/xmc4500/smart_logger/smart_logger/Libraries/CMSIS/Include\cmsis_gcc.h **** #if (defined (__ARM_FEATURE_CMSE ) && (__ARM_FEATURE_CMSE == 3))
 311:C:/Users/emob/Desktop/smartlogger/design/firmware/xmc4500/smart_logger/smart_logger/Libraries/CMSIS/Include\cmsis_gcc.h **** /**
 312:C:/Users/emob/Desktop/smartlogger/design/firmware/xmc4500/smart_logger/smart_logger/Libraries/CMSIS/Include\cmsis_gcc.h ****   \brief   Get Main Stack Pointer (non-secure)
 313:C:/Users/emob/Desktop/smartlogger/design/firmware/xmc4500/smart_logger/smart_logger/Libraries/CMSIS/Include\cmsis_gcc.h ****   \details Returns the current value of the non-secure Main Stack Pointer (MSP) when in secure stat
 314:C:/Users/emob/Desktop/smartlogger/design/firmware/xmc4500/smart_logger/smart_logger/Libraries/CMSIS/Include\cmsis_gcc.h ****   \return               MSP Register value
 315:C:/Users/emob/Desktop/smartlogger/design/firmware/xmc4500/smart_logger/smart_logger/Libraries/CMSIS/Include\cmsis_gcc.h ****  */
 316:C:/Users/emob/Desktop/smartlogger/design/firmware/xmc4500/smart_logger/smart_logger/Libraries/CMSIS/Include\cmsis_gcc.h **** __STATIC_FORCEINLINE uint32_t __TZ_get_MSP_NS(void)
 317:C:/Users/emob/Desktop/smartlogger/design/firmware/xmc4500/smart_logger/smart_logger/Libraries/CMSIS/Include\cmsis_gcc.h **** {
 318:C:/Users/emob/Desktop/smartlogger/design/firmware/xmc4500/smart_logger/smart_logger/Libraries/CMSIS/Include\cmsis_gcc.h ****   uint32_t result;
 319:C:/Users/emob/Desktop/smartlogger/design/firmware/xmc4500/smart_logger/smart_logger/Libraries/CMSIS/Include\cmsis_gcc.h **** 
 320:C:/Users/emob/Desktop/smartlogger/design/firmware/xmc4500/smart_logger/smart_logger/Libraries/CMSIS/Include\cmsis_gcc.h ****   __ASM volatile ("MRS %0, msp_ns" : "=r" (result) );
 321:C:/Users/emob/Desktop/smartlogger/design/firmware/xmc4500/smart_logger/smart_logger/Libraries/CMSIS/Include\cmsis_gcc.h ****   return(result);
 322:C:/Users/emob/Desktop/smartlogger/design/firmware/xmc4500/smart_logger/smart_logger/Libraries/CMSIS/Include\cmsis_gcc.h **** }
 323:C:/Users/emob/Desktop/smartlogger/design/firmware/xmc4500/smart_logger/smart_logger/Libraries/CMSIS/Include\cmsis_gcc.h **** #endif
 324:C:/Users/emob/Desktop/smartlogger/design/firmware/xmc4500/smart_logger/smart_logger/Libraries/CMSIS/Include\cmsis_gcc.h **** 
 325:C:/Users/emob/Desktop/smartlogger/design/firmware/xmc4500/smart_logger/smart_logger/Libraries/CMSIS/Include\cmsis_gcc.h **** 
 326:C:/Users/emob/Desktop/smartlogger/design/firmware/xmc4500/smart_logger/smart_logger/Libraries/CMSIS/Include\cmsis_gcc.h **** /**
 327:C:/Users/emob/Desktop/smartlogger/design/firmware/xmc4500/smart_logger/smart_logger/Libraries/CMSIS/Include\cmsis_gcc.h ****   \brief   Set Main Stack Pointer
 328:C:/Users/emob/Desktop/smartlogger/design/firmware/xmc4500/smart_logger/smart_logger/Libraries/CMSIS/Include\cmsis_gcc.h ****   \details Assigns the given value to the Main Stack Pointer (MSP).
 329:C:/Users/emob/Desktop/smartlogger/design/firmware/xmc4500/smart_logger/smart_logger/Libraries/CMSIS/Include\cmsis_gcc.h ****   \param [in]    topOfMainStack  Main Stack Pointer value to set
 330:C:/Users/emob/Desktop/smartlogger/design/firmware/xmc4500/smart_logger/smart_logger/Libraries/CMSIS/Include\cmsis_gcc.h ****  */
 331:C:/Users/emob/Desktop/smartlogger/design/firmware/xmc4500/smart_logger/smart_logger/Libraries/CMSIS/Include\cmsis_gcc.h **** __STATIC_FORCEINLINE void __set_MSP(uint32_t topOfMainStack)
 332:C:/Users/emob/Desktop/smartlogger/design/firmware/xmc4500/smart_logger/smart_logger/Libraries/CMSIS/Include\cmsis_gcc.h **** {
 333:C:/Users/emob/Desktop/smartlogger/design/firmware/xmc4500/smart_logger/smart_logger/Libraries/CMSIS/Include\cmsis_gcc.h ****   __ASM volatile ("MSR msp, %0" : : "r" (topOfMainStack) : );
 334:C:/Users/emob/Desktop/smartlogger/design/firmware/xmc4500/smart_logger/smart_logger/Libraries/CMSIS/Include\cmsis_gcc.h **** }
 335:C:/Users/emob/Desktop/smartlogger/design/firmware/xmc4500/smart_logger/smart_logger/Libraries/CMSIS/Include\cmsis_gcc.h **** 
 336:C:/Users/emob/Desktop/smartlogger/design/firmware/xmc4500/smart_logger/smart_logger/Libraries/CMSIS/Include\cmsis_gcc.h **** 
 337:C:/Users/emob/Desktop/smartlogger/design/firmware/xmc4500/smart_logger/smart_logger/Libraries/CMSIS/Include\cmsis_gcc.h **** #if (defined (__ARM_FEATURE_CMSE ) && (__ARM_FEATURE_CMSE == 3))
 338:C:/Users/emob/Desktop/smartlogger/design/firmware/xmc4500/smart_logger/smart_logger/Libraries/CMSIS/Include\cmsis_gcc.h **** /**
 339:C:/Users/emob/Desktop/smartlogger/design/firmware/xmc4500/smart_logger/smart_logger/Libraries/CMSIS/Include\cmsis_gcc.h ****   \brief   Set Main Stack Pointer (non-secure)
 340:C:/Users/emob/Desktop/smartlogger/design/firmware/xmc4500/smart_logger/smart_logger/Libraries/CMSIS/Include\cmsis_gcc.h ****   \details Assigns the given value to the non-secure Main Stack Pointer (MSP) when in secure state.
 341:C:/Users/emob/Desktop/smartlogger/design/firmware/xmc4500/smart_logger/smart_logger/Libraries/CMSIS/Include\cmsis_gcc.h ****   \param [in]    topOfMainStack  Main Stack Pointer value to set
 342:C:/Users/emob/Desktop/smartlogger/design/firmware/xmc4500/smart_logger/smart_logger/Libraries/CMSIS/Include\cmsis_gcc.h ****  */
 343:C:/Users/emob/Desktop/smartlogger/design/firmware/xmc4500/smart_logger/smart_logger/Libraries/CMSIS/Include\cmsis_gcc.h **** __STATIC_FORCEINLINE void __TZ_set_MSP_NS(uint32_t topOfMainStack)
 344:C:/Users/emob/Desktop/smartlogger/design/firmware/xmc4500/smart_logger/smart_logger/Libraries/CMSIS/Include\cmsis_gcc.h **** {
 345:C:/Users/emob/Desktop/smartlogger/design/firmware/xmc4500/smart_logger/smart_logger/Libraries/CMSIS/Include\cmsis_gcc.h ****   __ASM volatile ("MSR msp_ns, %0" : : "r" (topOfMainStack) : );
 346:C:/Users/emob/Desktop/smartlogger/design/firmware/xmc4500/smart_logger/smart_logger/Libraries/CMSIS/Include\cmsis_gcc.h **** }
 347:C:/Users/emob/Desktop/smartlogger/design/firmware/xmc4500/smart_logger/smart_logger/Libraries/CMSIS/Include\cmsis_gcc.h **** #endif
 348:C:/Users/emob/Desktop/smartlogger/design/firmware/xmc4500/smart_logger/smart_logger/Libraries/CMSIS/Include\cmsis_gcc.h **** 
 349:C:/Users/emob/Desktop/smartlogger/design/firmware/xmc4500/smart_logger/smart_logger/Libraries/CMSIS/Include\cmsis_gcc.h **** 
 350:C:/Users/emob/Desktop/smartlogger/design/firmware/xmc4500/smart_logger/smart_logger/Libraries/CMSIS/Include\cmsis_gcc.h **** #if (defined (__ARM_FEATURE_CMSE ) && (__ARM_FEATURE_CMSE == 3))
 351:C:/Users/emob/Desktop/smartlogger/design/firmware/xmc4500/smart_logger/smart_logger/Libraries/CMSIS/Include\cmsis_gcc.h **** /**
 352:C:/Users/emob/Desktop/smartlogger/design/firmware/xmc4500/smart_logger/smart_logger/Libraries/CMSIS/Include\cmsis_gcc.h ****   \brief   Get Stack Pointer (non-secure)
 353:C:/Users/emob/Desktop/smartlogger/design/firmware/xmc4500/smart_logger/smart_logger/Libraries/CMSIS/Include\cmsis_gcc.h ****   \details Returns the current value of the non-secure Stack Pointer (SP) when in secure state.
 354:C:/Users/emob/Desktop/smartlogger/design/firmware/xmc4500/smart_logger/smart_logger/Libraries/CMSIS/Include\cmsis_gcc.h ****   \return               SP Register value
 355:C:/Users/emob/Desktop/smartlogger/design/firmware/xmc4500/smart_logger/smart_logger/Libraries/CMSIS/Include\cmsis_gcc.h ****  */
 356:C:/Users/emob/Desktop/smartlogger/design/firmware/xmc4500/smart_logger/smart_logger/Libraries/CMSIS/Include\cmsis_gcc.h **** __STATIC_FORCEINLINE uint32_t __TZ_get_SP_NS(void)
 357:C:/Users/emob/Desktop/smartlogger/design/firmware/xmc4500/smart_logger/smart_logger/Libraries/CMSIS/Include\cmsis_gcc.h **** {
 358:C:/Users/emob/Desktop/smartlogger/design/firmware/xmc4500/smart_logger/smart_logger/Libraries/CMSIS/Include\cmsis_gcc.h ****   uint32_t result;
 359:C:/Users/emob/Desktop/smartlogger/design/firmware/xmc4500/smart_logger/smart_logger/Libraries/CMSIS/Include\cmsis_gcc.h **** 
 360:C:/Users/emob/Desktop/smartlogger/design/firmware/xmc4500/smart_logger/smart_logger/Libraries/CMSIS/Include\cmsis_gcc.h ****   __ASM volatile ("MRS %0, sp_ns" : "=r" (result) );
 361:C:/Users/emob/Desktop/smartlogger/design/firmware/xmc4500/smart_logger/smart_logger/Libraries/CMSIS/Include\cmsis_gcc.h ****   return(result);
 362:C:/Users/emob/Desktop/smartlogger/design/firmware/xmc4500/smart_logger/smart_logger/Libraries/CMSIS/Include\cmsis_gcc.h **** }
 363:C:/Users/emob/Desktop/smartlogger/design/firmware/xmc4500/smart_logger/smart_logger/Libraries/CMSIS/Include\cmsis_gcc.h **** 
 364:C:/Users/emob/Desktop/smartlogger/design/firmware/xmc4500/smart_logger/smart_logger/Libraries/CMSIS/Include\cmsis_gcc.h **** 
 365:C:/Users/emob/Desktop/smartlogger/design/firmware/xmc4500/smart_logger/smart_logger/Libraries/CMSIS/Include\cmsis_gcc.h **** /**
 366:C:/Users/emob/Desktop/smartlogger/design/firmware/xmc4500/smart_logger/smart_logger/Libraries/CMSIS/Include\cmsis_gcc.h ****   \brief   Set Stack Pointer (non-secure)
 367:C:/Users/emob/Desktop/smartlogger/design/firmware/xmc4500/smart_logger/smart_logger/Libraries/CMSIS/Include\cmsis_gcc.h ****   \details Assigns the given value to the non-secure Stack Pointer (SP) when in secure state.
 368:C:/Users/emob/Desktop/smartlogger/design/firmware/xmc4500/smart_logger/smart_logger/Libraries/CMSIS/Include\cmsis_gcc.h ****   \param [in]    topOfStack  Stack Pointer value to set
 369:C:/Users/emob/Desktop/smartlogger/design/firmware/xmc4500/smart_logger/smart_logger/Libraries/CMSIS/Include\cmsis_gcc.h ****  */
 370:C:/Users/emob/Desktop/smartlogger/design/firmware/xmc4500/smart_logger/smart_logger/Libraries/CMSIS/Include\cmsis_gcc.h **** __STATIC_FORCEINLINE void __TZ_set_SP_NS(uint32_t topOfStack)
 371:C:/Users/emob/Desktop/smartlogger/design/firmware/xmc4500/smart_logger/smart_logger/Libraries/CMSIS/Include\cmsis_gcc.h **** {
 372:C:/Users/emob/Desktop/smartlogger/design/firmware/xmc4500/smart_logger/smart_logger/Libraries/CMSIS/Include\cmsis_gcc.h ****   __ASM volatile ("MSR sp_ns, %0" : : "r" (topOfStack) : );
 373:C:/Users/emob/Desktop/smartlogger/design/firmware/xmc4500/smart_logger/smart_logger/Libraries/CMSIS/Include\cmsis_gcc.h **** }
 374:C:/Users/emob/Desktop/smartlogger/design/firmware/xmc4500/smart_logger/smart_logger/Libraries/CMSIS/Include\cmsis_gcc.h **** #endif
 375:C:/Users/emob/Desktop/smartlogger/design/firmware/xmc4500/smart_logger/smart_logger/Libraries/CMSIS/Include\cmsis_gcc.h **** 
 376:C:/Users/emob/Desktop/smartlogger/design/firmware/xmc4500/smart_logger/smart_logger/Libraries/CMSIS/Include\cmsis_gcc.h **** 
 377:C:/Users/emob/Desktop/smartlogger/design/firmware/xmc4500/smart_logger/smart_logger/Libraries/CMSIS/Include\cmsis_gcc.h **** /**
 378:C:/Users/emob/Desktop/smartlogger/design/firmware/xmc4500/smart_logger/smart_logger/Libraries/CMSIS/Include\cmsis_gcc.h ****   \brief   Get Priority Mask
 379:C:/Users/emob/Desktop/smartlogger/design/firmware/xmc4500/smart_logger/smart_logger/Libraries/CMSIS/Include\cmsis_gcc.h ****   \details Returns the current state of the priority mask bit from the Priority Mask Register.
 380:C:/Users/emob/Desktop/smartlogger/design/firmware/xmc4500/smart_logger/smart_logger/Libraries/CMSIS/Include\cmsis_gcc.h ****   \return               Priority Mask value
 381:C:/Users/emob/Desktop/smartlogger/design/firmware/xmc4500/smart_logger/smart_logger/Libraries/CMSIS/Include\cmsis_gcc.h ****  */
 382:C:/Users/emob/Desktop/smartlogger/design/firmware/xmc4500/smart_logger/smart_logger/Libraries/CMSIS/Include\cmsis_gcc.h **** __STATIC_FORCEINLINE uint32_t __get_PRIMASK(void)
 383:C:/Users/emob/Desktop/smartlogger/design/firmware/xmc4500/smart_logger/smart_logger/Libraries/CMSIS/Include\cmsis_gcc.h **** {
 384:C:/Users/emob/Desktop/smartlogger/design/firmware/xmc4500/smart_logger/smart_logger/Libraries/CMSIS/Include\cmsis_gcc.h ****   uint32_t result;
 385:C:/Users/emob/Desktop/smartlogger/design/firmware/xmc4500/smart_logger/smart_logger/Libraries/CMSIS/Include\cmsis_gcc.h **** 
 386:C:/Users/emob/Desktop/smartlogger/design/firmware/xmc4500/smart_logger/smart_logger/Libraries/CMSIS/Include\cmsis_gcc.h ****   __ASM volatile ("MRS %0, primask" : "=r" (result) :: "memory");
 387:C:/Users/emob/Desktop/smartlogger/design/firmware/xmc4500/smart_logger/smart_logger/Libraries/CMSIS/Include\cmsis_gcc.h ****   return(result);
 388:C:/Users/emob/Desktop/smartlogger/design/firmware/xmc4500/smart_logger/smart_logger/Libraries/CMSIS/Include\cmsis_gcc.h **** }
 389:C:/Users/emob/Desktop/smartlogger/design/firmware/xmc4500/smart_logger/smart_logger/Libraries/CMSIS/Include\cmsis_gcc.h **** 
 390:C:/Users/emob/Desktop/smartlogger/design/firmware/xmc4500/smart_logger/smart_logger/Libraries/CMSIS/Include\cmsis_gcc.h **** 
 391:C:/Users/emob/Desktop/smartlogger/design/firmware/xmc4500/smart_logger/smart_logger/Libraries/CMSIS/Include\cmsis_gcc.h **** #if (defined (__ARM_FEATURE_CMSE ) && (__ARM_FEATURE_CMSE == 3))
 392:C:/Users/emob/Desktop/smartlogger/design/firmware/xmc4500/smart_logger/smart_logger/Libraries/CMSIS/Include\cmsis_gcc.h **** /**
 393:C:/Users/emob/Desktop/smartlogger/design/firmware/xmc4500/smart_logger/smart_logger/Libraries/CMSIS/Include\cmsis_gcc.h ****   \brief   Get Priority Mask (non-secure)
 394:C:/Users/emob/Desktop/smartlogger/design/firmware/xmc4500/smart_logger/smart_logger/Libraries/CMSIS/Include\cmsis_gcc.h ****   \details Returns the current state of the non-secure priority mask bit from the Priority Mask Reg
 395:C:/Users/emob/Desktop/smartlogger/design/firmware/xmc4500/smart_logger/smart_logger/Libraries/CMSIS/Include\cmsis_gcc.h ****   \return               Priority Mask value
 396:C:/Users/emob/Desktop/smartlogger/design/firmware/xmc4500/smart_logger/smart_logger/Libraries/CMSIS/Include\cmsis_gcc.h ****  */
 397:C:/Users/emob/Desktop/smartlogger/design/firmware/xmc4500/smart_logger/smart_logger/Libraries/CMSIS/Include\cmsis_gcc.h **** __STATIC_FORCEINLINE uint32_t __TZ_get_PRIMASK_NS(void)
 398:C:/Users/emob/Desktop/smartlogger/design/firmware/xmc4500/smart_logger/smart_logger/Libraries/CMSIS/Include\cmsis_gcc.h **** {
 399:C:/Users/emob/Desktop/smartlogger/design/firmware/xmc4500/smart_logger/smart_logger/Libraries/CMSIS/Include\cmsis_gcc.h ****   uint32_t result;
 400:C:/Users/emob/Desktop/smartlogger/design/firmware/xmc4500/smart_logger/smart_logger/Libraries/CMSIS/Include\cmsis_gcc.h **** 
 401:C:/Users/emob/Desktop/smartlogger/design/firmware/xmc4500/smart_logger/smart_logger/Libraries/CMSIS/Include\cmsis_gcc.h ****   __ASM volatile ("MRS %0, primask_ns" : "=r" (result) :: "memory");
 402:C:/Users/emob/Desktop/smartlogger/design/firmware/xmc4500/smart_logger/smart_logger/Libraries/CMSIS/Include\cmsis_gcc.h ****   return(result);
 403:C:/Users/emob/Desktop/smartlogger/design/firmware/xmc4500/smart_logger/smart_logger/Libraries/CMSIS/Include\cmsis_gcc.h **** }
 404:C:/Users/emob/Desktop/smartlogger/design/firmware/xmc4500/smart_logger/smart_logger/Libraries/CMSIS/Include\cmsis_gcc.h **** #endif
 405:C:/Users/emob/Desktop/smartlogger/design/firmware/xmc4500/smart_logger/smart_logger/Libraries/CMSIS/Include\cmsis_gcc.h **** 
 406:C:/Users/emob/Desktop/smartlogger/design/firmware/xmc4500/smart_logger/smart_logger/Libraries/CMSIS/Include\cmsis_gcc.h **** 
 407:C:/Users/emob/Desktop/smartlogger/design/firmware/xmc4500/smart_logger/smart_logger/Libraries/CMSIS/Include\cmsis_gcc.h **** /**
 408:C:/Users/emob/Desktop/smartlogger/design/firmware/xmc4500/smart_logger/smart_logger/Libraries/CMSIS/Include\cmsis_gcc.h ****   \brief   Set Priority Mask
 409:C:/Users/emob/Desktop/smartlogger/design/firmware/xmc4500/smart_logger/smart_logger/Libraries/CMSIS/Include\cmsis_gcc.h ****   \details Assigns the given value to the Priority Mask Register.
 410:C:/Users/emob/Desktop/smartlogger/design/firmware/xmc4500/smart_logger/smart_logger/Libraries/CMSIS/Include\cmsis_gcc.h ****   \param [in]    priMask  Priority Mask
 411:C:/Users/emob/Desktop/smartlogger/design/firmware/xmc4500/smart_logger/smart_logger/Libraries/CMSIS/Include\cmsis_gcc.h ****  */
 412:C:/Users/emob/Desktop/smartlogger/design/firmware/xmc4500/smart_logger/smart_logger/Libraries/CMSIS/Include\cmsis_gcc.h **** __STATIC_FORCEINLINE void __set_PRIMASK(uint32_t priMask)
 413:C:/Users/emob/Desktop/smartlogger/design/firmware/xmc4500/smart_logger/smart_logger/Libraries/CMSIS/Include\cmsis_gcc.h **** {
 414:C:/Users/emob/Desktop/smartlogger/design/firmware/xmc4500/smart_logger/smart_logger/Libraries/CMSIS/Include\cmsis_gcc.h ****   __ASM volatile ("MSR primask, %0" : : "r" (priMask) : "memory");
 415:C:/Users/emob/Desktop/smartlogger/design/firmware/xmc4500/smart_logger/smart_logger/Libraries/CMSIS/Include\cmsis_gcc.h **** }
 416:C:/Users/emob/Desktop/smartlogger/design/firmware/xmc4500/smart_logger/smart_logger/Libraries/CMSIS/Include\cmsis_gcc.h **** 
 417:C:/Users/emob/Desktop/smartlogger/design/firmware/xmc4500/smart_logger/smart_logger/Libraries/CMSIS/Include\cmsis_gcc.h **** 
 418:C:/Users/emob/Desktop/smartlogger/design/firmware/xmc4500/smart_logger/smart_logger/Libraries/CMSIS/Include\cmsis_gcc.h **** #if (defined (__ARM_FEATURE_CMSE ) && (__ARM_FEATURE_CMSE == 3))
 419:C:/Users/emob/Desktop/smartlogger/design/firmware/xmc4500/smart_logger/smart_logger/Libraries/CMSIS/Include\cmsis_gcc.h **** /**
 420:C:/Users/emob/Desktop/smartlogger/design/firmware/xmc4500/smart_logger/smart_logger/Libraries/CMSIS/Include\cmsis_gcc.h ****   \brief   Set Priority Mask (non-secure)
 421:C:/Users/emob/Desktop/smartlogger/design/firmware/xmc4500/smart_logger/smart_logger/Libraries/CMSIS/Include\cmsis_gcc.h ****   \details Assigns the given value to the non-secure Priority Mask Register when in secure state.
 422:C:/Users/emob/Desktop/smartlogger/design/firmware/xmc4500/smart_logger/smart_logger/Libraries/CMSIS/Include\cmsis_gcc.h ****   \param [in]    priMask  Priority Mask
 423:C:/Users/emob/Desktop/smartlogger/design/firmware/xmc4500/smart_logger/smart_logger/Libraries/CMSIS/Include\cmsis_gcc.h ****  */
 424:C:/Users/emob/Desktop/smartlogger/design/firmware/xmc4500/smart_logger/smart_logger/Libraries/CMSIS/Include\cmsis_gcc.h **** __STATIC_FORCEINLINE void __TZ_set_PRIMASK_NS(uint32_t priMask)
 425:C:/Users/emob/Desktop/smartlogger/design/firmware/xmc4500/smart_logger/smart_logger/Libraries/CMSIS/Include\cmsis_gcc.h **** {
 426:C:/Users/emob/Desktop/smartlogger/design/firmware/xmc4500/smart_logger/smart_logger/Libraries/CMSIS/Include\cmsis_gcc.h ****   __ASM volatile ("MSR primask_ns, %0" : : "r" (priMask) : "memory");
 427:C:/Users/emob/Desktop/smartlogger/design/firmware/xmc4500/smart_logger/smart_logger/Libraries/CMSIS/Include\cmsis_gcc.h **** }
 428:C:/Users/emob/Desktop/smartlogger/design/firmware/xmc4500/smart_logger/smart_logger/Libraries/CMSIS/Include\cmsis_gcc.h **** #endif
 429:C:/Users/emob/Desktop/smartlogger/design/firmware/xmc4500/smart_logger/smart_logger/Libraries/CMSIS/Include\cmsis_gcc.h **** 
 430:C:/Users/emob/Desktop/smartlogger/design/firmware/xmc4500/smart_logger/smart_logger/Libraries/CMSIS/Include\cmsis_gcc.h **** 
 431:C:/Users/emob/Desktop/smartlogger/design/firmware/xmc4500/smart_logger/smart_logger/Libraries/CMSIS/Include\cmsis_gcc.h **** #if ((defined (__ARM_ARCH_7M__      ) && (__ARM_ARCH_7M__      == 1)) || \
 432:C:/Users/emob/Desktop/smartlogger/design/firmware/xmc4500/smart_logger/smart_logger/Libraries/CMSIS/Include\cmsis_gcc.h ****      (defined (__ARM_ARCH_7EM__     ) && (__ARM_ARCH_7EM__     == 1)) || \
 433:C:/Users/emob/Desktop/smartlogger/design/firmware/xmc4500/smart_logger/smart_logger/Libraries/CMSIS/Include\cmsis_gcc.h ****      (defined (__ARM_ARCH_8M_MAIN__ ) && (__ARM_ARCH_8M_MAIN__ == 1))    )
 434:C:/Users/emob/Desktop/smartlogger/design/firmware/xmc4500/smart_logger/smart_logger/Libraries/CMSIS/Include\cmsis_gcc.h **** /**
 435:C:/Users/emob/Desktop/smartlogger/design/firmware/xmc4500/smart_logger/smart_logger/Libraries/CMSIS/Include\cmsis_gcc.h ****   \brief   Enable FIQ
 436:C:/Users/emob/Desktop/smartlogger/design/firmware/xmc4500/smart_logger/smart_logger/Libraries/CMSIS/Include\cmsis_gcc.h ****   \details Enables FIQ interrupts by clearing the F-bit in the CPSR.
 437:C:/Users/emob/Desktop/smartlogger/design/firmware/xmc4500/smart_logger/smart_logger/Libraries/CMSIS/Include\cmsis_gcc.h ****            Can only be executed in Privileged modes.
 438:C:/Users/emob/Desktop/smartlogger/design/firmware/xmc4500/smart_logger/smart_logger/Libraries/CMSIS/Include\cmsis_gcc.h ****  */
 439:C:/Users/emob/Desktop/smartlogger/design/firmware/xmc4500/smart_logger/smart_logger/Libraries/CMSIS/Include\cmsis_gcc.h **** __STATIC_FORCEINLINE void __enable_fault_irq(void)
 440:C:/Users/emob/Desktop/smartlogger/design/firmware/xmc4500/smart_logger/smart_logger/Libraries/CMSIS/Include\cmsis_gcc.h **** {
 441:C:/Users/emob/Desktop/smartlogger/design/firmware/xmc4500/smart_logger/smart_logger/Libraries/CMSIS/Include\cmsis_gcc.h ****   __ASM volatile ("cpsie f" : : : "memory");
 442:C:/Users/emob/Desktop/smartlogger/design/firmware/xmc4500/smart_logger/smart_logger/Libraries/CMSIS/Include\cmsis_gcc.h **** }
 443:C:/Users/emob/Desktop/smartlogger/design/firmware/xmc4500/smart_logger/smart_logger/Libraries/CMSIS/Include\cmsis_gcc.h **** 
 444:C:/Users/emob/Desktop/smartlogger/design/firmware/xmc4500/smart_logger/smart_logger/Libraries/CMSIS/Include\cmsis_gcc.h **** 
 445:C:/Users/emob/Desktop/smartlogger/design/firmware/xmc4500/smart_logger/smart_logger/Libraries/CMSIS/Include\cmsis_gcc.h **** /**
 446:C:/Users/emob/Desktop/smartlogger/design/firmware/xmc4500/smart_logger/smart_logger/Libraries/CMSIS/Include\cmsis_gcc.h ****   \brief   Disable FIQ
 447:C:/Users/emob/Desktop/smartlogger/design/firmware/xmc4500/smart_logger/smart_logger/Libraries/CMSIS/Include\cmsis_gcc.h ****   \details Disables FIQ interrupts by setting the F-bit in the CPSR.
 448:C:/Users/emob/Desktop/smartlogger/design/firmware/xmc4500/smart_logger/smart_logger/Libraries/CMSIS/Include\cmsis_gcc.h ****            Can only be executed in Privileged modes.
 449:C:/Users/emob/Desktop/smartlogger/design/firmware/xmc4500/smart_logger/smart_logger/Libraries/CMSIS/Include\cmsis_gcc.h ****  */
 450:C:/Users/emob/Desktop/smartlogger/design/firmware/xmc4500/smart_logger/smart_logger/Libraries/CMSIS/Include\cmsis_gcc.h **** __STATIC_FORCEINLINE void __disable_fault_irq(void)
 451:C:/Users/emob/Desktop/smartlogger/design/firmware/xmc4500/smart_logger/smart_logger/Libraries/CMSIS/Include\cmsis_gcc.h **** {
 452:C:/Users/emob/Desktop/smartlogger/design/firmware/xmc4500/smart_logger/smart_logger/Libraries/CMSIS/Include\cmsis_gcc.h ****   __ASM volatile ("cpsid f" : : : "memory");
 453:C:/Users/emob/Desktop/smartlogger/design/firmware/xmc4500/smart_logger/smart_logger/Libraries/CMSIS/Include\cmsis_gcc.h **** }
 454:C:/Users/emob/Desktop/smartlogger/design/firmware/xmc4500/smart_logger/smart_logger/Libraries/CMSIS/Include\cmsis_gcc.h **** 
 455:C:/Users/emob/Desktop/smartlogger/design/firmware/xmc4500/smart_logger/smart_logger/Libraries/CMSIS/Include\cmsis_gcc.h **** 
 456:C:/Users/emob/Desktop/smartlogger/design/firmware/xmc4500/smart_logger/smart_logger/Libraries/CMSIS/Include\cmsis_gcc.h **** /**
 457:C:/Users/emob/Desktop/smartlogger/design/firmware/xmc4500/smart_logger/smart_logger/Libraries/CMSIS/Include\cmsis_gcc.h ****   \brief   Get Base Priority
 458:C:/Users/emob/Desktop/smartlogger/design/firmware/xmc4500/smart_logger/smart_logger/Libraries/CMSIS/Include\cmsis_gcc.h ****   \details Returns the current value of the Base Priority register.
 459:C:/Users/emob/Desktop/smartlogger/design/firmware/xmc4500/smart_logger/smart_logger/Libraries/CMSIS/Include\cmsis_gcc.h ****   \return               Base Priority register value
 460:C:/Users/emob/Desktop/smartlogger/design/firmware/xmc4500/smart_logger/smart_logger/Libraries/CMSIS/Include\cmsis_gcc.h ****  */
 461:C:/Users/emob/Desktop/smartlogger/design/firmware/xmc4500/smart_logger/smart_logger/Libraries/CMSIS/Include\cmsis_gcc.h **** __STATIC_FORCEINLINE uint32_t __get_BASEPRI(void)
 462:C:/Users/emob/Desktop/smartlogger/design/firmware/xmc4500/smart_logger/smart_logger/Libraries/CMSIS/Include\cmsis_gcc.h **** {
 463:C:/Users/emob/Desktop/smartlogger/design/firmware/xmc4500/smart_logger/smart_logger/Libraries/CMSIS/Include\cmsis_gcc.h ****   uint32_t result;
 464:C:/Users/emob/Desktop/smartlogger/design/firmware/xmc4500/smart_logger/smart_logger/Libraries/CMSIS/Include\cmsis_gcc.h **** 
 465:C:/Users/emob/Desktop/smartlogger/design/firmware/xmc4500/smart_logger/smart_logger/Libraries/CMSIS/Include\cmsis_gcc.h ****   __ASM volatile ("MRS %0, basepri" : "=r" (result) );
 466:C:/Users/emob/Desktop/smartlogger/design/firmware/xmc4500/smart_logger/smart_logger/Libraries/CMSIS/Include\cmsis_gcc.h ****   return(result);
 467:C:/Users/emob/Desktop/smartlogger/design/firmware/xmc4500/smart_logger/smart_logger/Libraries/CMSIS/Include\cmsis_gcc.h **** }
 468:C:/Users/emob/Desktop/smartlogger/design/firmware/xmc4500/smart_logger/smart_logger/Libraries/CMSIS/Include\cmsis_gcc.h **** 
 469:C:/Users/emob/Desktop/smartlogger/design/firmware/xmc4500/smart_logger/smart_logger/Libraries/CMSIS/Include\cmsis_gcc.h **** 
 470:C:/Users/emob/Desktop/smartlogger/design/firmware/xmc4500/smart_logger/smart_logger/Libraries/CMSIS/Include\cmsis_gcc.h **** #if (defined (__ARM_FEATURE_CMSE ) && (__ARM_FEATURE_CMSE == 3))
 471:C:/Users/emob/Desktop/smartlogger/design/firmware/xmc4500/smart_logger/smart_logger/Libraries/CMSIS/Include\cmsis_gcc.h **** /**
 472:C:/Users/emob/Desktop/smartlogger/design/firmware/xmc4500/smart_logger/smart_logger/Libraries/CMSIS/Include\cmsis_gcc.h ****   \brief   Get Base Priority (non-secure)
 473:C:/Users/emob/Desktop/smartlogger/design/firmware/xmc4500/smart_logger/smart_logger/Libraries/CMSIS/Include\cmsis_gcc.h ****   \details Returns the current value of the non-secure Base Priority register when in secure state.
 474:C:/Users/emob/Desktop/smartlogger/design/firmware/xmc4500/smart_logger/smart_logger/Libraries/CMSIS/Include\cmsis_gcc.h ****   \return               Base Priority register value
 475:C:/Users/emob/Desktop/smartlogger/design/firmware/xmc4500/smart_logger/smart_logger/Libraries/CMSIS/Include\cmsis_gcc.h ****  */
 476:C:/Users/emob/Desktop/smartlogger/design/firmware/xmc4500/smart_logger/smart_logger/Libraries/CMSIS/Include\cmsis_gcc.h **** __STATIC_FORCEINLINE uint32_t __TZ_get_BASEPRI_NS(void)
 477:C:/Users/emob/Desktop/smartlogger/design/firmware/xmc4500/smart_logger/smart_logger/Libraries/CMSIS/Include\cmsis_gcc.h **** {
 478:C:/Users/emob/Desktop/smartlogger/design/firmware/xmc4500/smart_logger/smart_logger/Libraries/CMSIS/Include\cmsis_gcc.h ****   uint32_t result;
 479:C:/Users/emob/Desktop/smartlogger/design/firmware/xmc4500/smart_logger/smart_logger/Libraries/CMSIS/Include\cmsis_gcc.h **** 
 480:C:/Users/emob/Desktop/smartlogger/design/firmware/xmc4500/smart_logger/smart_logger/Libraries/CMSIS/Include\cmsis_gcc.h ****   __ASM volatile ("MRS %0, basepri_ns" : "=r" (result) );
 481:C:/Users/emob/Desktop/smartlogger/design/firmware/xmc4500/smart_logger/smart_logger/Libraries/CMSIS/Include\cmsis_gcc.h ****   return(result);
 482:C:/Users/emob/Desktop/smartlogger/design/firmware/xmc4500/smart_logger/smart_logger/Libraries/CMSIS/Include\cmsis_gcc.h **** }
 483:C:/Users/emob/Desktop/smartlogger/design/firmware/xmc4500/smart_logger/smart_logger/Libraries/CMSIS/Include\cmsis_gcc.h **** #endif
 484:C:/Users/emob/Desktop/smartlogger/design/firmware/xmc4500/smart_logger/smart_logger/Libraries/CMSIS/Include\cmsis_gcc.h **** 
 485:C:/Users/emob/Desktop/smartlogger/design/firmware/xmc4500/smart_logger/smart_logger/Libraries/CMSIS/Include\cmsis_gcc.h **** 
 486:C:/Users/emob/Desktop/smartlogger/design/firmware/xmc4500/smart_logger/smart_logger/Libraries/CMSIS/Include\cmsis_gcc.h **** /**
 487:C:/Users/emob/Desktop/smartlogger/design/firmware/xmc4500/smart_logger/smart_logger/Libraries/CMSIS/Include\cmsis_gcc.h ****   \brief   Set Base Priority
 488:C:/Users/emob/Desktop/smartlogger/design/firmware/xmc4500/smart_logger/smart_logger/Libraries/CMSIS/Include\cmsis_gcc.h ****   \details Assigns the given value to the Base Priority register.
 489:C:/Users/emob/Desktop/smartlogger/design/firmware/xmc4500/smart_logger/smart_logger/Libraries/CMSIS/Include\cmsis_gcc.h ****   \param [in]    basePri  Base Priority value to set
 490:C:/Users/emob/Desktop/smartlogger/design/firmware/xmc4500/smart_logger/smart_logger/Libraries/CMSIS/Include\cmsis_gcc.h ****  */
 491:C:/Users/emob/Desktop/smartlogger/design/firmware/xmc4500/smart_logger/smart_logger/Libraries/CMSIS/Include\cmsis_gcc.h **** __STATIC_FORCEINLINE void __set_BASEPRI(uint32_t basePri)
 492:C:/Users/emob/Desktop/smartlogger/design/firmware/xmc4500/smart_logger/smart_logger/Libraries/CMSIS/Include\cmsis_gcc.h **** {
 493:C:/Users/emob/Desktop/smartlogger/design/firmware/xmc4500/smart_logger/smart_logger/Libraries/CMSIS/Include\cmsis_gcc.h ****   __ASM volatile ("MSR basepri, %0" : : "r" (basePri) : "memory");
 494:C:/Users/emob/Desktop/smartlogger/design/firmware/xmc4500/smart_logger/smart_logger/Libraries/CMSIS/Include\cmsis_gcc.h **** }
 495:C:/Users/emob/Desktop/smartlogger/design/firmware/xmc4500/smart_logger/smart_logger/Libraries/CMSIS/Include\cmsis_gcc.h **** 
 496:C:/Users/emob/Desktop/smartlogger/design/firmware/xmc4500/smart_logger/smart_logger/Libraries/CMSIS/Include\cmsis_gcc.h **** 
 497:C:/Users/emob/Desktop/smartlogger/design/firmware/xmc4500/smart_logger/smart_logger/Libraries/CMSIS/Include\cmsis_gcc.h **** #if (defined (__ARM_FEATURE_CMSE ) && (__ARM_FEATURE_CMSE == 3))
 498:C:/Users/emob/Desktop/smartlogger/design/firmware/xmc4500/smart_logger/smart_logger/Libraries/CMSIS/Include\cmsis_gcc.h **** /**
 499:C:/Users/emob/Desktop/smartlogger/design/firmware/xmc4500/smart_logger/smart_logger/Libraries/CMSIS/Include\cmsis_gcc.h ****   \brief   Set Base Priority (non-secure)
 500:C:/Users/emob/Desktop/smartlogger/design/firmware/xmc4500/smart_logger/smart_logger/Libraries/CMSIS/Include\cmsis_gcc.h ****   \details Assigns the given value to the non-secure Base Priority register when in secure state.
 501:C:/Users/emob/Desktop/smartlogger/design/firmware/xmc4500/smart_logger/smart_logger/Libraries/CMSIS/Include\cmsis_gcc.h ****   \param [in]    basePri  Base Priority value to set
 502:C:/Users/emob/Desktop/smartlogger/design/firmware/xmc4500/smart_logger/smart_logger/Libraries/CMSIS/Include\cmsis_gcc.h ****  */
 503:C:/Users/emob/Desktop/smartlogger/design/firmware/xmc4500/smart_logger/smart_logger/Libraries/CMSIS/Include\cmsis_gcc.h **** __STATIC_FORCEINLINE void __TZ_set_BASEPRI_NS(uint32_t basePri)
 504:C:/Users/emob/Desktop/smartlogger/design/firmware/xmc4500/smart_logger/smart_logger/Libraries/CMSIS/Include\cmsis_gcc.h **** {
 505:C:/Users/emob/Desktop/smartlogger/design/firmware/xmc4500/smart_logger/smart_logger/Libraries/CMSIS/Include\cmsis_gcc.h ****   __ASM volatile ("MSR basepri_ns, %0" : : "r" (basePri) : "memory");
 506:C:/Users/emob/Desktop/smartlogger/design/firmware/xmc4500/smart_logger/smart_logger/Libraries/CMSIS/Include\cmsis_gcc.h **** }
 507:C:/Users/emob/Desktop/smartlogger/design/firmware/xmc4500/smart_logger/smart_logger/Libraries/CMSIS/Include\cmsis_gcc.h **** #endif
 508:C:/Users/emob/Desktop/smartlogger/design/firmware/xmc4500/smart_logger/smart_logger/Libraries/CMSIS/Include\cmsis_gcc.h **** 
 509:C:/Users/emob/Desktop/smartlogger/design/firmware/xmc4500/smart_logger/smart_logger/Libraries/CMSIS/Include\cmsis_gcc.h **** 
 510:C:/Users/emob/Desktop/smartlogger/design/firmware/xmc4500/smart_logger/smart_logger/Libraries/CMSIS/Include\cmsis_gcc.h **** /**
 511:C:/Users/emob/Desktop/smartlogger/design/firmware/xmc4500/smart_logger/smart_logger/Libraries/CMSIS/Include\cmsis_gcc.h ****   \brief   Set Base Priority with condition
 512:C:/Users/emob/Desktop/smartlogger/design/firmware/xmc4500/smart_logger/smart_logger/Libraries/CMSIS/Include\cmsis_gcc.h ****   \details Assigns the given value to the Base Priority register only if BASEPRI masking is disable
 513:C:/Users/emob/Desktop/smartlogger/design/firmware/xmc4500/smart_logger/smart_logger/Libraries/CMSIS/Include\cmsis_gcc.h ****            or the new value increases the BASEPRI priority level.
 514:C:/Users/emob/Desktop/smartlogger/design/firmware/xmc4500/smart_logger/smart_logger/Libraries/CMSIS/Include\cmsis_gcc.h ****   \param [in]    basePri  Base Priority value to set
 515:C:/Users/emob/Desktop/smartlogger/design/firmware/xmc4500/smart_logger/smart_logger/Libraries/CMSIS/Include\cmsis_gcc.h ****  */
 516:C:/Users/emob/Desktop/smartlogger/design/firmware/xmc4500/smart_logger/smart_logger/Libraries/CMSIS/Include\cmsis_gcc.h **** __STATIC_FORCEINLINE void __set_BASEPRI_MAX(uint32_t basePri)
 517:C:/Users/emob/Desktop/smartlogger/design/firmware/xmc4500/smart_logger/smart_logger/Libraries/CMSIS/Include\cmsis_gcc.h **** {
 518:C:/Users/emob/Desktop/smartlogger/design/firmware/xmc4500/smart_logger/smart_logger/Libraries/CMSIS/Include\cmsis_gcc.h ****   __ASM volatile ("MSR basepri_max, %0" : : "r" (basePri) : "memory");
 519:C:/Users/emob/Desktop/smartlogger/design/firmware/xmc4500/smart_logger/smart_logger/Libraries/CMSIS/Include\cmsis_gcc.h **** }
 520:C:/Users/emob/Desktop/smartlogger/design/firmware/xmc4500/smart_logger/smart_logger/Libraries/CMSIS/Include\cmsis_gcc.h **** 
 521:C:/Users/emob/Desktop/smartlogger/design/firmware/xmc4500/smart_logger/smart_logger/Libraries/CMSIS/Include\cmsis_gcc.h **** 
 522:C:/Users/emob/Desktop/smartlogger/design/firmware/xmc4500/smart_logger/smart_logger/Libraries/CMSIS/Include\cmsis_gcc.h **** /**
 523:C:/Users/emob/Desktop/smartlogger/design/firmware/xmc4500/smart_logger/smart_logger/Libraries/CMSIS/Include\cmsis_gcc.h ****   \brief   Get Fault Mask
 524:C:/Users/emob/Desktop/smartlogger/design/firmware/xmc4500/smart_logger/smart_logger/Libraries/CMSIS/Include\cmsis_gcc.h ****   \details Returns the current value of the Fault Mask register.
 525:C:/Users/emob/Desktop/smartlogger/design/firmware/xmc4500/smart_logger/smart_logger/Libraries/CMSIS/Include\cmsis_gcc.h ****   \return               Fault Mask register value
 526:C:/Users/emob/Desktop/smartlogger/design/firmware/xmc4500/smart_logger/smart_logger/Libraries/CMSIS/Include\cmsis_gcc.h ****  */
 527:C:/Users/emob/Desktop/smartlogger/design/firmware/xmc4500/smart_logger/smart_logger/Libraries/CMSIS/Include\cmsis_gcc.h **** __STATIC_FORCEINLINE uint32_t __get_FAULTMASK(void)
 528:C:/Users/emob/Desktop/smartlogger/design/firmware/xmc4500/smart_logger/smart_logger/Libraries/CMSIS/Include\cmsis_gcc.h **** {
 529:C:/Users/emob/Desktop/smartlogger/design/firmware/xmc4500/smart_logger/smart_logger/Libraries/CMSIS/Include\cmsis_gcc.h ****   uint32_t result;
 530:C:/Users/emob/Desktop/smartlogger/design/firmware/xmc4500/smart_logger/smart_logger/Libraries/CMSIS/Include\cmsis_gcc.h **** 
 531:C:/Users/emob/Desktop/smartlogger/design/firmware/xmc4500/smart_logger/smart_logger/Libraries/CMSIS/Include\cmsis_gcc.h ****   __ASM volatile ("MRS %0, faultmask" : "=r" (result) );
 532:C:/Users/emob/Desktop/smartlogger/design/firmware/xmc4500/smart_logger/smart_logger/Libraries/CMSIS/Include\cmsis_gcc.h ****   return(result);
 533:C:/Users/emob/Desktop/smartlogger/design/firmware/xmc4500/smart_logger/smart_logger/Libraries/CMSIS/Include\cmsis_gcc.h **** }
 534:C:/Users/emob/Desktop/smartlogger/design/firmware/xmc4500/smart_logger/smart_logger/Libraries/CMSIS/Include\cmsis_gcc.h **** 
 535:C:/Users/emob/Desktop/smartlogger/design/firmware/xmc4500/smart_logger/smart_logger/Libraries/CMSIS/Include\cmsis_gcc.h **** 
 536:C:/Users/emob/Desktop/smartlogger/design/firmware/xmc4500/smart_logger/smart_logger/Libraries/CMSIS/Include\cmsis_gcc.h **** #if (defined (__ARM_FEATURE_CMSE ) && (__ARM_FEATURE_CMSE == 3))
 537:C:/Users/emob/Desktop/smartlogger/design/firmware/xmc4500/smart_logger/smart_logger/Libraries/CMSIS/Include\cmsis_gcc.h **** /**
 538:C:/Users/emob/Desktop/smartlogger/design/firmware/xmc4500/smart_logger/smart_logger/Libraries/CMSIS/Include\cmsis_gcc.h ****   \brief   Get Fault Mask (non-secure)
 539:C:/Users/emob/Desktop/smartlogger/design/firmware/xmc4500/smart_logger/smart_logger/Libraries/CMSIS/Include\cmsis_gcc.h ****   \details Returns the current value of the non-secure Fault Mask register when in secure state.
 540:C:/Users/emob/Desktop/smartlogger/design/firmware/xmc4500/smart_logger/smart_logger/Libraries/CMSIS/Include\cmsis_gcc.h ****   \return               Fault Mask register value
 541:C:/Users/emob/Desktop/smartlogger/design/firmware/xmc4500/smart_logger/smart_logger/Libraries/CMSIS/Include\cmsis_gcc.h ****  */
 542:C:/Users/emob/Desktop/smartlogger/design/firmware/xmc4500/smart_logger/smart_logger/Libraries/CMSIS/Include\cmsis_gcc.h **** __STATIC_FORCEINLINE uint32_t __TZ_get_FAULTMASK_NS(void)
 543:C:/Users/emob/Desktop/smartlogger/design/firmware/xmc4500/smart_logger/smart_logger/Libraries/CMSIS/Include\cmsis_gcc.h **** {
 544:C:/Users/emob/Desktop/smartlogger/design/firmware/xmc4500/smart_logger/smart_logger/Libraries/CMSIS/Include\cmsis_gcc.h ****   uint32_t result;
 545:C:/Users/emob/Desktop/smartlogger/design/firmware/xmc4500/smart_logger/smart_logger/Libraries/CMSIS/Include\cmsis_gcc.h **** 
 546:C:/Users/emob/Desktop/smartlogger/design/firmware/xmc4500/smart_logger/smart_logger/Libraries/CMSIS/Include\cmsis_gcc.h ****   __ASM volatile ("MRS %0, faultmask_ns" : "=r" (result) );
 547:C:/Users/emob/Desktop/smartlogger/design/firmware/xmc4500/smart_logger/smart_logger/Libraries/CMSIS/Include\cmsis_gcc.h ****   return(result);
 548:C:/Users/emob/Desktop/smartlogger/design/firmware/xmc4500/smart_logger/smart_logger/Libraries/CMSIS/Include\cmsis_gcc.h **** }
 549:C:/Users/emob/Desktop/smartlogger/design/firmware/xmc4500/smart_logger/smart_logger/Libraries/CMSIS/Include\cmsis_gcc.h **** #endif
 550:C:/Users/emob/Desktop/smartlogger/design/firmware/xmc4500/smart_logger/smart_logger/Libraries/CMSIS/Include\cmsis_gcc.h **** 
 551:C:/Users/emob/Desktop/smartlogger/design/firmware/xmc4500/smart_logger/smart_logger/Libraries/CMSIS/Include\cmsis_gcc.h **** 
 552:C:/Users/emob/Desktop/smartlogger/design/firmware/xmc4500/smart_logger/smart_logger/Libraries/CMSIS/Include\cmsis_gcc.h **** /**
 553:C:/Users/emob/Desktop/smartlogger/design/firmware/xmc4500/smart_logger/smart_logger/Libraries/CMSIS/Include\cmsis_gcc.h ****   \brief   Set Fault Mask
 554:C:/Users/emob/Desktop/smartlogger/design/firmware/xmc4500/smart_logger/smart_logger/Libraries/CMSIS/Include\cmsis_gcc.h ****   \details Assigns the given value to the Fault Mask register.
 555:C:/Users/emob/Desktop/smartlogger/design/firmware/xmc4500/smart_logger/smart_logger/Libraries/CMSIS/Include\cmsis_gcc.h ****   \param [in]    faultMask  Fault Mask value to set
 556:C:/Users/emob/Desktop/smartlogger/design/firmware/xmc4500/smart_logger/smart_logger/Libraries/CMSIS/Include\cmsis_gcc.h ****  */
 557:C:/Users/emob/Desktop/smartlogger/design/firmware/xmc4500/smart_logger/smart_logger/Libraries/CMSIS/Include\cmsis_gcc.h **** __STATIC_FORCEINLINE void __set_FAULTMASK(uint32_t faultMask)
 558:C:/Users/emob/Desktop/smartlogger/design/firmware/xmc4500/smart_logger/smart_logger/Libraries/CMSIS/Include\cmsis_gcc.h **** {
 559:C:/Users/emob/Desktop/smartlogger/design/firmware/xmc4500/smart_logger/smart_logger/Libraries/CMSIS/Include\cmsis_gcc.h ****   __ASM volatile ("MSR faultmask, %0" : : "r" (faultMask) : "memory");
 560:C:/Users/emob/Desktop/smartlogger/design/firmware/xmc4500/smart_logger/smart_logger/Libraries/CMSIS/Include\cmsis_gcc.h **** }
 561:C:/Users/emob/Desktop/smartlogger/design/firmware/xmc4500/smart_logger/smart_logger/Libraries/CMSIS/Include\cmsis_gcc.h **** 
 562:C:/Users/emob/Desktop/smartlogger/design/firmware/xmc4500/smart_logger/smart_logger/Libraries/CMSIS/Include\cmsis_gcc.h **** 
 563:C:/Users/emob/Desktop/smartlogger/design/firmware/xmc4500/smart_logger/smart_logger/Libraries/CMSIS/Include\cmsis_gcc.h **** #if (defined (__ARM_FEATURE_CMSE ) && (__ARM_FEATURE_CMSE == 3))
 564:C:/Users/emob/Desktop/smartlogger/design/firmware/xmc4500/smart_logger/smart_logger/Libraries/CMSIS/Include\cmsis_gcc.h **** /**
 565:C:/Users/emob/Desktop/smartlogger/design/firmware/xmc4500/smart_logger/smart_logger/Libraries/CMSIS/Include\cmsis_gcc.h ****   \brief   Set Fault Mask (non-secure)
 566:C:/Users/emob/Desktop/smartlogger/design/firmware/xmc4500/smart_logger/smart_logger/Libraries/CMSIS/Include\cmsis_gcc.h ****   \details Assigns the given value to the non-secure Fault Mask register when in secure state.
 567:C:/Users/emob/Desktop/smartlogger/design/firmware/xmc4500/smart_logger/smart_logger/Libraries/CMSIS/Include\cmsis_gcc.h ****   \param [in]    faultMask  Fault Mask value to set
 568:C:/Users/emob/Desktop/smartlogger/design/firmware/xmc4500/smart_logger/smart_logger/Libraries/CMSIS/Include\cmsis_gcc.h ****  */
 569:C:/Users/emob/Desktop/smartlogger/design/firmware/xmc4500/smart_logger/smart_logger/Libraries/CMSIS/Include\cmsis_gcc.h **** __STATIC_FORCEINLINE void __TZ_set_FAULTMASK_NS(uint32_t faultMask)
 570:C:/Users/emob/Desktop/smartlogger/design/firmware/xmc4500/smart_logger/smart_logger/Libraries/CMSIS/Include\cmsis_gcc.h **** {
 571:C:/Users/emob/Desktop/smartlogger/design/firmware/xmc4500/smart_logger/smart_logger/Libraries/CMSIS/Include\cmsis_gcc.h ****   __ASM volatile ("MSR faultmask_ns, %0" : : "r" (faultMask) : "memory");
 572:C:/Users/emob/Desktop/smartlogger/design/firmware/xmc4500/smart_logger/smart_logger/Libraries/CMSIS/Include\cmsis_gcc.h **** }
 573:C:/Users/emob/Desktop/smartlogger/design/firmware/xmc4500/smart_logger/smart_logger/Libraries/CMSIS/Include\cmsis_gcc.h **** #endif
 574:C:/Users/emob/Desktop/smartlogger/design/firmware/xmc4500/smart_logger/smart_logger/Libraries/CMSIS/Include\cmsis_gcc.h **** 
 575:C:/Users/emob/Desktop/smartlogger/design/firmware/xmc4500/smart_logger/smart_logger/Libraries/CMSIS/Include\cmsis_gcc.h **** #endif /* ((defined (__ARM_ARCH_7M__      ) && (__ARM_ARCH_7M__      == 1)) || \
 576:C:/Users/emob/Desktop/smartlogger/design/firmware/xmc4500/smart_logger/smart_logger/Libraries/CMSIS/Include\cmsis_gcc.h ****            (defined (__ARM_ARCH_7EM__     ) && (__ARM_ARCH_7EM__     == 1)) || \
 577:C:/Users/emob/Desktop/smartlogger/design/firmware/xmc4500/smart_logger/smart_logger/Libraries/CMSIS/Include\cmsis_gcc.h ****            (defined (__ARM_ARCH_8M_MAIN__ ) && (__ARM_ARCH_8M_MAIN__ == 1))    ) */
 578:C:/Users/emob/Desktop/smartlogger/design/firmware/xmc4500/smart_logger/smart_logger/Libraries/CMSIS/Include\cmsis_gcc.h **** 
 579:C:/Users/emob/Desktop/smartlogger/design/firmware/xmc4500/smart_logger/smart_logger/Libraries/CMSIS/Include\cmsis_gcc.h **** 
 580:C:/Users/emob/Desktop/smartlogger/design/firmware/xmc4500/smart_logger/smart_logger/Libraries/CMSIS/Include\cmsis_gcc.h **** #if ((defined (__ARM_ARCH_8M_MAIN__ ) && (__ARM_ARCH_8M_MAIN__ == 1)) || \
 581:C:/Users/emob/Desktop/smartlogger/design/firmware/xmc4500/smart_logger/smart_logger/Libraries/CMSIS/Include\cmsis_gcc.h ****      (defined (__ARM_ARCH_8M_BASE__ ) && (__ARM_ARCH_8M_BASE__ == 1))    )
 582:C:/Users/emob/Desktop/smartlogger/design/firmware/xmc4500/smart_logger/smart_logger/Libraries/CMSIS/Include\cmsis_gcc.h **** 
 583:C:/Users/emob/Desktop/smartlogger/design/firmware/xmc4500/smart_logger/smart_logger/Libraries/CMSIS/Include\cmsis_gcc.h **** /**
 584:C:/Users/emob/Desktop/smartlogger/design/firmware/xmc4500/smart_logger/smart_logger/Libraries/CMSIS/Include\cmsis_gcc.h ****   \brief   Get Process Stack Pointer Limit
 585:C:/Users/emob/Desktop/smartlogger/design/firmware/xmc4500/smart_logger/smart_logger/Libraries/CMSIS/Include\cmsis_gcc.h ****   Devices without ARMv8-M Main Extensions (i.e. Cortex-M23) lack the non-secure
 586:C:/Users/emob/Desktop/smartlogger/design/firmware/xmc4500/smart_logger/smart_logger/Libraries/CMSIS/Include\cmsis_gcc.h ****   Stack Pointer Limit register hence zero is returned always in non-secure
 587:C:/Users/emob/Desktop/smartlogger/design/firmware/xmc4500/smart_logger/smart_logger/Libraries/CMSIS/Include\cmsis_gcc.h ****   mode.
 588:C:/Users/emob/Desktop/smartlogger/design/firmware/xmc4500/smart_logger/smart_logger/Libraries/CMSIS/Include\cmsis_gcc.h ****   
 589:C:/Users/emob/Desktop/smartlogger/design/firmware/xmc4500/smart_logger/smart_logger/Libraries/CMSIS/Include\cmsis_gcc.h ****   \details Returns the current value of the Process Stack Pointer Limit (PSPLIM).
 590:C:/Users/emob/Desktop/smartlogger/design/firmware/xmc4500/smart_logger/smart_logger/Libraries/CMSIS/Include\cmsis_gcc.h ****   \return               PSPLIM Register value
 591:C:/Users/emob/Desktop/smartlogger/design/firmware/xmc4500/smart_logger/smart_logger/Libraries/CMSIS/Include\cmsis_gcc.h ****  */
 592:C:/Users/emob/Desktop/smartlogger/design/firmware/xmc4500/smart_logger/smart_logger/Libraries/CMSIS/Include\cmsis_gcc.h **** __STATIC_FORCEINLINE uint32_t __get_PSPLIM(void)
 593:C:/Users/emob/Desktop/smartlogger/design/firmware/xmc4500/smart_logger/smart_logger/Libraries/CMSIS/Include\cmsis_gcc.h **** {
 594:C:/Users/emob/Desktop/smartlogger/design/firmware/xmc4500/smart_logger/smart_logger/Libraries/CMSIS/Include\cmsis_gcc.h **** #if (!(defined (__ARM_ARCH_8M_MAIN__ ) && (__ARM_ARCH_8M_MAIN__ == 1)) && \
 595:C:/Users/emob/Desktop/smartlogger/design/firmware/xmc4500/smart_logger/smart_logger/Libraries/CMSIS/Include\cmsis_gcc.h ****     (!defined (__ARM_FEATURE_CMSE) || (__ARM_FEATURE_CMSE < 3)))
 596:C:/Users/emob/Desktop/smartlogger/design/firmware/xmc4500/smart_logger/smart_logger/Libraries/CMSIS/Include\cmsis_gcc.h ****     // without main extensions, the non-secure PSPLIM is RAZ/WI
 597:C:/Users/emob/Desktop/smartlogger/design/firmware/xmc4500/smart_logger/smart_logger/Libraries/CMSIS/Include\cmsis_gcc.h ****   return 0U;
 598:C:/Users/emob/Desktop/smartlogger/design/firmware/xmc4500/smart_logger/smart_logger/Libraries/CMSIS/Include\cmsis_gcc.h **** #else
 599:C:/Users/emob/Desktop/smartlogger/design/firmware/xmc4500/smart_logger/smart_logger/Libraries/CMSIS/Include\cmsis_gcc.h ****   uint32_t result;
 600:C:/Users/emob/Desktop/smartlogger/design/firmware/xmc4500/smart_logger/smart_logger/Libraries/CMSIS/Include\cmsis_gcc.h ****   __ASM volatile ("MRS %0, psplim"  : "=r" (result) );
 601:C:/Users/emob/Desktop/smartlogger/design/firmware/xmc4500/smart_logger/smart_logger/Libraries/CMSIS/Include\cmsis_gcc.h ****   return result;
 602:C:/Users/emob/Desktop/smartlogger/design/firmware/xmc4500/smart_logger/smart_logger/Libraries/CMSIS/Include\cmsis_gcc.h **** #endif
 603:C:/Users/emob/Desktop/smartlogger/design/firmware/xmc4500/smart_logger/smart_logger/Libraries/CMSIS/Include\cmsis_gcc.h **** }
 604:C:/Users/emob/Desktop/smartlogger/design/firmware/xmc4500/smart_logger/smart_logger/Libraries/CMSIS/Include\cmsis_gcc.h **** 
 605:C:/Users/emob/Desktop/smartlogger/design/firmware/xmc4500/smart_logger/smart_logger/Libraries/CMSIS/Include\cmsis_gcc.h **** #if (defined (__ARM_FEATURE_CMSE) && (__ARM_FEATURE_CMSE == 3))
 606:C:/Users/emob/Desktop/smartlogger/design/firmware/xmc4500/smart_logger/smart_logger/Libraries/CMSIS/Include\cmsis_gcc.h **** /**
 607:C:/Users/emob/Desktop/smartlogger/design/firmware/xmc4500/smart_logger/smart_logger/Libraries/CMSIS/Include\cmsis_gcc.h ****   \brief   Get Process Stack Pointer Limit (non-secure)
 608:C:/Users/emob/Desktop/smartlogger/design/firmware/xmc4500/smart_logger/smart_logger/Libraries/CMSIS/Include\cmsis_gcc.h ****   Devices without ARMv8-M Main Extensions (i.e. Cortex-M23) lack the non-secure
 609:C:/Users/emob/Desktop/smartlogger/design/firmware/xmc4500/smart_logger/smart_logger/Libraries/CMSIS/Include\cmsis_gcc.h ****   Stack Pointer Limit register hence zero is returned always.
 610:C:/Users/emob/Desktop/smartlogger/design/firmware/xmc4500/smart_logger/smart_logger/Libraries/CMSIS/Include\cmsis_gcc.h **** 
 611:C:/Users/emob/Desktop/smartlogger/design/firmware/xmc4500/smart_logger/smart_logger/Libraries/CMSIS/Include\cmsis_gcc.h ****   \details Returns the current value of the non-secure Process Stack Pointer Limit (PSPLIM) when in
 612:C:/Users/emob/Desktop/smartlogger/design/firmware/xmc4500/smart_logger/smart_logger/Libraries/CMSIS/Include\cmsis_gcc.h ****   \return               PSPLIM Register value
 613:C:/Users/emob/Desktop/smartlogger/design/firmware/xmc4500/smart_logger/smart_logger/Libraries/CMSIS/Include\cmsis_gcc.h ****  */
 614:C:/Users/emob/Desktop/smartlogger/design/firmware/xmc4500/smart_logger/smart_logger/Libraries/CMSIS/Include\cmsis_gcc.h **** __STATIC_FORCEINLINE uint32_t __TZ_get_PSPLIM_NS(void)
 615:C:/Users/emob/Desktop/smartlogger/design/firmware/xmc4500/smart_logger/smart_logger/Libraries/CMSIS/Include\cmsis_gcc.h **** {
 616:C:/Users/emob/Desktop/smartlogger/design/firmware/xmc4500/smart_logger/smart_logger/Libraries/CMSIS/Include\cmsis_gcc.h **** #if (!(defined (__ARM_ARCH_8M_MAIN__ ) && (__ARM_ARCH_8M_MAIN__ == 1)))
 617:C:/Users/emob/Desktop/smartlogger/design/firmware/xmc4500/smart_logger/smart_logger/Libraries/CMSIS/Include\cmsis_gcc.h ****   // without main extensions, the non-secure PSPLIM is RAZ/WI
 618:C:/Users/emob/Desktop/smartlogger/design/firmware/xmc4500/smart_logger/smart_logger/Libraries/CMSIS/Include\cmsis_gcc.h ****   return 0U;
 619:C:/Users/emob/Desktop/smartlogger/design/firmware/xmc4500/smart_logger/smart_logger/Libraries/CMSIS/Include\cmsis_gcc.h **** #else
 620:C:/Users/emob/Desktop/smartlogger/design/firmware/xmc4500/smart_logger/smart_logger/Libraries/CMSIS/Include\cmsis_gcc.h ****   uint32_t result;
 621:C:/Users/emob/Desktop/smartlogger/design/firmware/xmc4500/smart_logger/smart_logger/Libraries/CMSIS/Include\cmsis_gcc.h ****   __ASM volatile ("MRS %0, psplim_ns"  : "=r" (result) );
 622:C:/Users/emob/Desktop/smartlogger/design/firmware/xmc4500/smart_logger/smart_logger/Libraries/CMSIS/Include\cmsis_gcc.h ****   return result;
 623:C:/Users/emob/Desktop/smartlogger/design/firmware/xmc4500/smart_logger/smart_logger/Libraries/CMSIS/Include\cmsis_gcc.h **** #endif
 624:C:/Users/emob/Desktop/smartlogger/design/firmware/xmc4500/smart_logger/smart_logger/Libraries/CMSIS/Include\cmsis_gcc.h **** }
 625:C:/Users/emob/Desktop/smartlogger/design/firmware/xmc4500/smart_logger/smart_logger/Libraries/CMSIS/Include\cmsis_gcc.h **** #endif
 626:C:/Users/emob/Desktop/smartlogger/design/firmware/xmc4500/smart_logger/smart_logger/Libraries/CMSIS/Include\cmsis_gcc.h **** 
 627:C:/Users/emob/Desktop/smartlogger/design/firmware/xmc4500/smart_logger/smart_logger/Libraries/CMSIS/Include\cmsis_gcc.h **** 
 628:C:/Users/emob/Desktop/smartlogger/design/firmware/xmc4500/smart_logger/smart_logger/Libraries/CMSIS/Include\cmsis_gcc.h **** /**
 629:C:/Users/emob/Desktop/smartlogger/design/firmware/xmc4500/smart_logger/smart_logger/Libraries/CMSIS/Include\cmsis_gcc.h ****   \brief   Set Process Stack Pointer Limit
 630:C:/Users/emob/Desktop/smartlogger/design/firmware/xmc4500/smart_logger/smart_logger/Libraries/CMSIS/Include\cmsis_gcc.h ****   Devices without ARMv8-M Main Extensions (i.e. Cortex-M23) lack the non-secure
 631:C:/Users/emob/Desktop/smartlogger/design/firmware/xmc4500/smart_logger/smart_logger/Libraries/CMSIS/Include\cmsis_gcc.h ****   Stack Pointer Limit register hence the write is silently ignored in non-secure
 632:C:/Users/emob/Desktop/smartlogger/design/firmware/xmc4500/smart_logger/smart_logger/Libraries/CMSIS/Include\cmsis_gcc.h ****   mode.
 633:C:/Users/emob/Desktop/smartlogger/design/firmware/xmc4500/smart_logger/smart_logger/Libraries/CMSIS/Include\cmsis_gcc.h ****   
 634:C:/Users/emob/Desktop/smartlogger/design/firmware/xmc4500/smart_logger/smart_logger/Libraries/CMSIS/Include\cmsis_gcc.h ****   \details Assigns the given value to the Process Stack Pointer Limit (PSPLIM).
 635:C:/Users/emob/Desktop/smartlogger/design/firmware/xmc4500/smart_logger/smart_logger/Libraries/CMSIS/Include\cmsis_gcc.h ****   \param [in]    ProcStackPtrLimit  Process Stack Pointer Limit value to set
 636:C:/Users/emob/Desktop/smartlogger/design/firmware/xmc4500/smart_logger/smart_logger/Libraries/CMSIS/Include\cmsis_gcc.h ****  */
 637:C:/Users/emob/Desktop/smartlogger/design/firmware/xmc4500/smart_logger/smart_logger/Libraries/CMSIS/Include\cmsis_gcc.h **** __STATIC_FORCEINLINE void __set_PSPLIM(uint32_t ProcStackPtrLimit)
 638:C:/Users/emob/Desktop/smartlogger/design/firmware/xmc4500/smart_logger/smart_logger/Libraries/CMSIS/Include\cmsis_gcc.h **** {
 639:C:/Users/emob/Desktop/smartlogger/design/firmware/xmc4500/smart_logger/smart_logger/Libraries/CMSIS/Include\cmsis_gcc.h **** #if (!(defined (__ARM_ARCH_8M_MAIN__ ) && (__ARM_ARCH_8M_MAIN__ == 1)) && \
 640:C:/Users/emob/Desktop/smartlogger/design/firmware/xmc4500/smart_logger/smart_logger/Libraries/CMSIS/Include\cmsis_gcc.h ****     (!defined (__ARM_FEATURE_CMSE) || (__ARM_FEATURE_CMSE < 3)))
 641:C:/Users/emob/Desktop/smartlogger/design/firmware/xmc4500/smart_logger/smart_logger/Libraries/CMSIS/Include\cmsis_gcc.h ****   // without main extensions, the non-secure PSPLIM is RAZ/WI
 642:C:/Users/emob/Desktop/smartlogger/design/firmware/xmc4500/smart_logger/smart_logger/Libraries/CMSIS/Include\cmsis_gcc.h ****   (void)ProcStackPtrLimit;
 643:C:/Users/emob/Desktop/smartlogger/design/firmware/xmc4500/smart_logger/smart_logger/Libraries/CMSIS/Include\cmsis_gcc.h **** #else
 644:C:/Users/emob/Desktop/smartlogger/design/firmware/xmc4500/smart_logger/smart_logger/Libraries/CMSIS/Include\cmsis_gcc.h ****   __ASM volatile ("MSR psplim, %0" : : "r" (ProcStackPtrLimit));
 645:C:/Users/emob/Desktop/smartlogger/design/firmware/xmc4500/smart_logger/smart_logger/Libraries/CMSIS/Include\cmsis_gcc.h **** #endif
 646:C:/Users/emob/Desktop/smartlogger/design/firmware/xmc4500/smart_logger/smart_logger/Libraries/CMSIS/Include\cmsis_gcc.h **** }
 647:C:/Users/emob/Desktop/smartlogger/design/firmware/xmc4500/smart_logger/smart_logger/Libraries/CMSIS/Include\cmsis_gcc.h **** 
 648:C:/Users/emob/Desktop/smartlogger/design/firmware/xmc4500/smart_logger/smart_logger/Libraries/CMSIS/Include\cmsis_gcc.h **** 
 649:C:/Users/emob/Desktop/smartlogger/design/firmware/xmc4500/smart_logger/smart_logger/Libraries/CMSIS/Include\cmsis_gcc.h **** #if (defined (__ARM_FEATURE_CMSE  ) && (__ARM_FEATURE_CMSE   == 3))
 650:C:/Users/emob/Desktop/smartlogger/design/firmware/xmc4500/smart_logger/smart_logger/Libraries/CMSIS/Include\cmsis_gcc.h **** /**
 651:C:/Users/emob/Desktop/smartlogger/design/firmware/xmc4500/smart_logger/smart_logger/Libraries/CMSIS/Include\cmsis_gcc.h ****   \brief   Set Process Stack Pointer (non-secure)
 652:C:/Users/emob/Desktop/smartlogger/design/firmware/xmc4500/smart_logger/smart_logger/Libraries/CMSIS/Include\cmsis_gcc.h ****   Devices without ARMv8-M Main Extensions (i.e. Cortex-M23) lack the non-secure
 653:C:/Users/emob/Desktop/smartlogger/design/firmware/xmc4500/smart_logger/smart_logger/Libraries/CMSIS/Include\cmsis_gcc.h ****   Stack Pointer Limit register hence the write is silently ignored.
 654:C:/Users/emob/Desktop/smartlogger/design/firmware/xmc4500/smart_logger/smart_logger/Libraries/CMSIS/Include\cmsis_gcc.h **** 
 655:C:/Users/emob/Desktop/smartlogger/design/firmware/xmc4500/smart_logger/smart_logger/Libraries/CMSIS/Include\cmsis_gcc.h ****   \details Assigns the given value to the non-secure Process Stack Pointer Limit (PSPLIM) when in s
 656:C:/Users/emob/Desktop/smartlogger/design/firmware/xmc4500/smart_logger/smart_logger/Libraries/CMSIS/Include\cmsis_gcc.h ****   \param [in]    ProcStackPtrLimit  Process Stack Pointer Limit value to set
 657:C:/Users/emob/Desktop/smartlogger/design/firmware/xmc4500/smart_logger/smart_logger/Libraries/CMSIS/Include\cmsis_gcc.h ****  */
 658:C:/Users/emob/Desktop/smartlogger/design/firmware/xmc4500/smart_logger/smart_logger/Libraries/CMSIS/Include\cmsis_gcc.h **** __STATIC_FORCEINLINE void __TZ_set_PSPLIM_NS(uint32_t ProcStackPtrLimit)
 659:C:/Users/emob/Desktop/smartlogger/design/firmware/xmc4500/smart_logger/smart_logger/Libraries/CMSIS/Include\cmsis_gcc.h **** {
 660:C:/Users/emob/Desktop/smartlogger/design/firmware/xmc4500/smart_logger/smart_logger/Libraries/CMSIS/Include\cmsis_gcc.h **** #if (!(defined (__ARM_ARCH_8M_MAIN__ ) && (__ARM_ARCH_8M_MAIN__ == 1)))
 661:C:/Users/emob/Desktop/smartlogger/design/firmware/xmc4500/smart_logger/smart_logger/Libraries/CMSIS/Include\cmsis_gcc.h ****   // without main extensions, the non-secure PSPLIM is RAZ/WI
 662:C:/Users/emob/Desktop/smartlogger/design/firmware/xmc4500/smart_logger/smart_logger/Libraries/CMSIS/Include\cmsis_gcc.h ****   (void)ProcStackPtrLimit;
 663:C:/Users/emob/Desktop/smartlogger/design/firmware/xmc4500/smart_logger/smart_logger/Libraries/CMSIS/Include\cmsis_gcc.h **** #else
 664:C:/Users/emob/Desktop/smartlogger/design/firmware/xmc4500/smart_logger/smart_logger/Libraries/CMSIS/Include\cmsis_gcc.h ****   __ASM volatile ("MSR psplim_ns, %0\n" : : "r" (ProcStackPtrLimit));
 665:C:/Users/emob/Desktop/smartlogger/design/firmware/xmc4500/smart_logger/smart_logger/Libraries/CMSIS/Include\cmsis_gcc.h **** #endif
 666:C:/Users/emob/Desktop/smartlogger/design/firmware/xmc4500/smart_logger/smart_logger/Libraries/CMSIS/Include\cmsis_gcc.h **** }
 667:C:/Users/emob/Desktop/smartlogger/design/firmware/xmc4500/smart_logger/smart_logger/Libraries/CMSIS/Include\cmsis_gcc.h **** #endif
 668:C:/Users/emob/Desktop/smartlogger/design/firmware/xmc4500/smart_logger/smart_logger/Libraries/CMSIS/Include\cmsis_gcc.h **** 
 669:C:/Users/emob/Desktop/smartlogger/design/firmware/xmc4500/smart_logger/smart_logger/Libraries/CMSIS/Include\cmsis_gcc.h **** 
 670:C:/Users/emob/Desktop/smartlogger/design/firmware/xmc4500/smart_logger/smart_logger/Libraries/CMSIS/Include\cmsis_gcc.h **** /**
 671:C:/Users/emob/Desktop/smartlogger/design/firmware/xmc4500/smart_logger/smart_logger/Libraries/CMSIS/Include\cmsis_gcc.h ****   \brief   Get Main Stack Pointer Limit
 672:C:/Users/emob/Desktop/smartlogger/design/firmware/xmc4500/smart_logger/smart_logger/Libraries/CMSIS/Include\cmsis_gcc.h ****   Devices without ARMv8-M Main Extensions (i.e. Cortex-M23) lack the non-secure
 673:C:/Users/emob/Desktop/smartlogger/design/firmware/xmc4500/smart_logger/smart_logger/Libraries/CMSIS/Include\cmsis_gcc.h ****   Stack Pointer Limit register hence zero is returned always in non-secure
 674:C:/Users/emob/Desktop/smartlogger/design/firmware/xmc4500/smart_logger/smart_logger/Libraries/CMSIS/Include\cmsis_gcc.h ****   mode.
 675:C:/Users/emob/Desktop/smartlogger/design/firmware/xmc4500/smart_logger/smart_logger/Libraries/CMSIS/Include\cmsis_gcc.h **** 
 676:C:/Users/emob/Desktop/smartlogger/design/firmware/xmc4500/smart_logger/smart_logger/Libraries/CMSIS/Include\cmsis_gcc.h ****   \details Returns the current value of the Main Stack Pointer Limit (MSPLIM).
 677:C:/Users/emob/Desktop/smartlogger/design/firmware/xmc4500/smart_logger/smart_logger/Libraries/CMSIS/Include\cmsis_gcc.h ****   \return               MSPLIM Register value
 678:C:/Users/emob/Desktop/smartlogger/design/firmware/xmc4500/smart_logger/smart_logger/Libraries/CMSIS/Include\cmsis_gcc.h ****  */
 679:C:/Users/emob/Desktop/smartlogger/design/firmware/xmc4500/smart_logger/smart_logger/Libraries/CMSIS/Include\cmsis_gcc.h **** __STATIC_FORCEINLINE uint32_t __get_MSPLIM(void)
 680:C:/Users/emob/Desktop/smartlogger/design/firmware/xmc4500/smart_logger/smart_logger/Libraries/CMSIS/Include\cmsis_gcc.h **** {
 681:C:/Users/emob/Desktop/smartlogger/design/firmware/xmc4500/smart_logger/smart_logger/Libraries/CMSIS/Include\cmsis_gcc.h **** #if (!(defined (__ARM_ARCH_8M_MAIN__ ) && (__ARM_ARCH_8M_MAIN__ == 1)) && \
 682:C:/Users/emob/Desktop/smartlogger/design/firmware/xmc4500/smart_logger/smart_logger/Libraries/CMSIS/Include\cmsis_gcc.h ****     (!defined (__ARM_FEATURE_CMSE) || (__ARM_FEATURE_CMSE < 3)))
 683:C:/Users/emob/Desktop/smartlogger/design/firmware/xmc4500/smart_logger/smart_logger/Libraries/CMSIS/Include\cmsis_gcc.h ****   // without main extensions, the non-secure MSPLIM is RAZ/WI
 684:C:/Users/emob/Desktop/smartlogger/design/firmware/xmc4500/smart_logger/smart_logger/Libraries/CMSIS/Include\cmsis_gcc.h ****   return 0U;
 685:C:/Users/emob/Desktop/smartlogger/design/firmware/xmc4500/smart_logger/smart_logger/Libraries/CMSIS/Include\cmsis_gcc.h **** #else
 686:C:/Users/emob/Desktop/smartlogger/design/firmware/xmc4500/smart_logger/smart_logger/Libraries/CMSIS/Include\cmsis_gcc.h ****   uint32_t result;
 687:C:/Users/emob/Desktop/smartlogger/design/firmware/xmc4500/smart_logger/smart_logger/Libraries/CMSIS/Include\cmsis_gcc.h ****   __ASM volatile ("MRS %0, msplim" : "=r" (result) );
 688:C:/Users/emob/Desktop/smartlogger/design/firmware/xmc4500/smart_logger/smart_logger/Libraries/CMSIS/Include\cmsis_gcc.h ****   return result;
 689:C:/Users/emob/Desktop/smartlogger/design/firmware/xmc4500/smart_logger/smart_logger/Libraries/CMSIS/Include\cmsis_gcc.h **** #endif
 690:C:/Users/emob/Desktop/smartlogger/design/firmware/xmc4500/smart_logger/smart_logger/Libraries/CMSIS/Include\cmsis_gcc.h **** }
 691:C:/Users/emob/Desktop/smartlogger/design/firmware/xmc4500/smart_logger/smart_logger/Libraries/CMSIS/Include\cmsis_gcc.h **** 
 692:C:/Users/emob/Desktop/smartlogger/design/firmware/xmc4500/smart_logger/smart_logger/Libraries/CMSIS/Include\cmsis_gcc.h **** 
 693:C:/Users/emob/Desktop/smartlogger/design/firmware/xmc4500/smart_logger/smart_logger/Libraries/CMSIS/Include\cmsis_gcc.h **** #if (defined (__ARM_FEATURE_CMSE  ) && (__ARM_FEATURE_CMSE   == 3))
 694:C:/Users/emob/Desktop/smartlogger/design/firmware/xmc4500/smart_logger/smart_logger/Libraries/CMSIS/Include\cmsis_gcc.h **** /**
 695:C:/Users/emob/Desktop/smartlogger/design/firmware/xmc4500/smart_logger/smart_logger/Libraries/CMSIS/Include\cmsis_gcc.h ****   \brief   Get Main Stack Pointer Limit (non-secure)
 696:C:/Users/emob/Desktop/smartlogger/design/firmware/xmc4500/smart_logger/smart_logger/Libraries/CMSIS/Include\cmsis_gcc.h ****   Devices without ARMv8-M Main Extensions (i.e. Cortex-M23) lack the non-secure
 697:C:/Users/emob/Desktop/smartlogger/design/firmware/xmc4500/smart_logger/smart_logger/Libraries/CMSIS/Include\cmsis_gcc.h ****   Stack Pointer Limit register hence zero is returned always.
 698:C:/Users/emob/Desktop/smartlogger/design/firmware/xmc4500/smart_logger/smart_logger/Libraries/CMSIS/Include\cmsis_gcc.h **** 
 699:C:/Users/emob/Desktop/smartlogger/design/firmware/xmc4500/smart_logger/smart_logger/Libraries/CMSIS/Include\cmsis_gcc.h ****   \details Returns the current value of the non-secure Main Stack Pointer Limit(MSPLIM) when in sec
 700:C:/Users/emob/Desktop/smartlogger/design/firmware/xmc4500/smart_logger/smart_logger/Libraries/CMSIS/Include\cmsis_gcc.h ****   \return               MSPLIM Register value
 701:C:/Users/emob/Desktop/smartlogger/design/firmware/xmc4500/smart_logger/smart_logger/Libraries/CMSIS/Include\cmsis_gcc.h ****  */
 702:C:/Users/emob/Desktop/smartlogger/design/firmware/xmc4500/smart_logger/smart_logger/Libraries/CMSIS/Include\cmsis_gcc.h **** __STATIC_FORCEINLINE uint32_t __TZ_get_MSPLIM_NS(void)
 703:C:/Users/emob/Desktop/smartlogger/design/firmware/xmc4500/smart_logger/smart_logger/Libraries/CMSIS/Include\cmsis_gcc.h **** {
 704:C:/Users/emob/Desktop/smartlogger/design/firmware/xmc4500/smart_logger/smart_logger/Libraries/CMSIS/Include\cmsis_gcc.h **** #if (!(defined (__ARM_ARCH_8M_MAIN__ ) && (__ARM_ARCH_8M_MAIN__ == 1)))
 705:C:/Users/emob/Desktop/smartlogger/design/firmware/xmc4500/smart_logger/smart_logger/Libraries/CMSIS/Include\cmsis_gcc.h ****   // without main extensions, the non-secure MSPLIM is RAZ/WI
 706:C:/Users/emob/Desktop/smartlogger/design/firmware/xmc4500/smart_logger/smart_logger/Libraries/CMSIS/Include\cmsis_gcc.h ****   return 0U;
 707:C:/Users/emob/Desktop/smartlogger/design/firmware/xmc4500/smart_logger/smart_logger/Libraries/CMSIS/Include\cmsis_gcc.h **** #else
 708:C:/Users/emob/Desktop/smartlogger/design/firmware/xmc4500/smart_logger/smart_logger/Libraries/CMSIS/Include\cmsis_gcc.h ****   uint32_t result;
 709:C:/Users/emob/Desktop/smartlogger/design/firmware/xmc4500/smart_logger/smart_logger/Libraries/CMSIS/Include\cmsis_gcc.h ****   __ASM volatile ("MRS %0, msplim_ns" : "=r" (result) );
 710:C:/Users/emob/Desktop/smartlogger/design/firmware/xmc4500/smart_logger/smart_logger/Libraries/CMSIS/Include\cmsis_gcc.h ****   return result;
 711:C:/Users/emob/Desktop/smartlogger/design/firmware/xmc4500/smart_logger/smart_logger/Libraries/CMSIS/Include\cmsis_gcc.h **** #endif
 712:C:/Users/emob/Desktop/smartlogger/design/firmware/xmc4500/smart_logger/smart_logger/Libraries/CMSIS/Include\cmsis_gcc.h **** }
 713:C:/Users/emob/Desktop/smartlogger/design/firmware/xmc4500/smart_logger/smart_logger/Libraries/CMSIS/Include\cmsis_gcc.h **** #endif
 714:C:/Users/emob/Desktop/smartlogger/design/firmware/xmc4500/smart_logger/smart_logger/Libraries/CMSIS/Include\cmsis_gcc.h **** 
 715:C:/Users/emob/Desktop/smartlogger/design/firmware/xmc4500/smart_logger/smart_logger/Libraries/CMSIS/Include\cmsis_gcc.h **** 
 716:C:/Users/emob/Desktop/smartlogger/design/firmware/xmc4500/smart_logger/smart_logger/Libraries/CMSIS/Include\cmsis_gcc.h **** /**
 717:C:/Users/emob/Desktop/smartlogger/design/firmware/xmc4500/smart_logger/smart_logger/Libraries/CMSIS/Include\cmsis_gcc.h ****   \brief   Set Main Stack Pointer Limit
 718:C:/Users/emob/Desktop/smartlogger/design/firmware/xmc4500/smart_logger/smart_logger/Libraries/CMSIS/Include\cmsis_gcc.h ****   Devices without ARMv8-M Main Extensions (i.e. Cortex-M23) lack the non-secure
 719:C:/Users/emob/Desktop/smartlogger/design/firmware/xmc4500/smart_logger/smart_logger/Libraries/CMSIS/Include\cmsis_gcc.h ****   Stack Pointer Limit register hence the write is silently ignored in non-secure
 720:C:/Users/emob/Desktop/smartlogger/design/firmware/xmc4500/smart_logger/smart_logger/Libraries/CMSIS/Include\cmsis_gcc.h ****   mode.
 721:C:/Users/emob/Desktop/smartlogger/design/firmware/xmc4500/smart_logger/smart_logger/Libraries/CMSIS/Include\cmsis_gcc.h **** 
 722:C:/Users/emob/Desktop/smartlogger/design/firmware/xmc4500/smart_logger/smart_logger/Libraries/CMSIS/Include\cmsis_gcc.h ****   \details Assigns the given value to the Main Stack Pointer Limit (MSPLIM).
 723:C:/Users/emob/Desktop/smartlogger/design/firmware/xmc4500/smart_logger/smart_logger/Libraries/CMSIS/Include\cmsis_gcc.h ****   \param [in]    MainStackPtrLimit  Main Stack Pointer Limit value to set
 724:C:/Users/emob/Desktop/smartlogger/design/firmware/xmc4500/smart_logger/smart_logger/Libraries/CMSIS/Include\cmsis_gcc.h ****  */
 725:C:/Users/emob/Desktop/smartlogger/design/firmware/xmc4500/smart_logger/smart_logger/Libraries/CMSIS/Include\cmsis_gcc.h **** __STATIC_FORCEINLINE void __set_MSPLIM(uint32_t MainStackPtrLimit)
 726:C:/Users/emob/Desktop/smartlogger/design/firmware/xmc4500/smart_logger/smart_logger/Libraries/CMSIS/Include\cmsis_gcc.h **** {
 727:C:/Users/emob/Desktop/smartlogger/design/firmware/xmc4500/smart_logger/smart_logger/Libraries/CMSIS/Include\cmsis_gcc.h **** #if (!(defined (__ARM_ARCH_8M_MAIN__ ) && (__ARM_ARCH_8M_MAIN__ == 1)) && \
 728:C:/Users/emob/Desktop/smartlogger/design/firmware/xmc4500/smart_logger/smart_logger/Libraries/CMSIS/Include\cmsis_gcc.h ****     (!defined (__ARM_FEATURE_CMSE) || (__ARM_FEATURE_CMSE < 3)))
 729:C:/Users/emob/Desktop/smartlogger/design/firmware/xmc4500/smart_logger/smart_logger/Libraries/CMSIS/Include\cmsis_gcc.h ****   // without main extensions, the non-secure MSPLIM is RAZ/WI
 730:C:/Users/emob/Desktop/smartlogger/design/firmware/xmc4500/smart_logger/smart_logger/Libraries/CMSIS/Include\cmsis_gcc.h ****   (void)MainStackPtrLimit;
 731:C:/Users/emob/Desktop/smartlogger/design/firmware/xmc4500/smart_logger/smart_logger/Libraries/CMSIS/Include\cmsis_gcc.h **** #else
 732:C:/Users/emob/Desktop/smartlogger/design/firmware/xmc4500/smart_logger/smart_logger/Libraries/CMSIS/Include\cmsis_gcc.h ****   __ASM volatile ("MSR msplim, %0" : : "r" (MainStackPtrLimit));
 733:C:/Users/emob/Desktop/smartlogger/design/firmware/xmc4500/smart_logger/smart_logger/Libraries/CMSIS/Include\cmsis_gcc.h **** #endif
 734:C:/Users/emob/Desktop/smartlogger/design/firmware/xmc4500/smart_logger/smart_logger/Libraries/CMSIS/Include\cmsis_gcc.h **** }
 735:C:/Users/emob/Desktop/smartlogger/design/firmware/xmc4500/smart_logger/smart_logger/Libraries/CMSIS/Include\cmsis_gcc.h **** 
 736:C:/Users/emob/Desktop/smartlogger/design/firmware/xmc4500/smart_logger/smart_logger/Libraries/CMSIS/Include\cmsis_gcc.h **** 
 737:C:/Users/emob/Desktop/smartlogger/design/firmware/xmc4500/smart_logger/smart_logger/Libraries/CMSIS/Include\cmsis_gcc.h **** #if (defined (__ARM_FEATURE_CMSE  ) && (__ARM_FEATURE_CMSE   == 3))
 738:C:/Users/emob/Desktop/smartlogger/design/firmware/xmc4500/smart_logger/smart_logger/Libraries/CMSIS/Include\cmsis_gcc.h **** /**
 739:C:/Users/emob/Desktop/smartlogger/design/firmware/xmc4500/smart_logger/smart_logger/Libraries/CMSIS/Include\cmsis_gcc.h ****   \brief   Set Main Stack Pointer Limit (non-secure)
 740:C:/Users/emob/Desktop/smartlogger/design/firmware/xmc4500/smart_logger/smart_logger/Libraries/CMSIS/Include\cmsis_gcc.h ****   Devices without ARMv8-M Main Extensions (i.e. Cortex-M23) lack the non-secure
 741:C:/Users/emob/Desktop/smartlogger/design/firmware/xmc4500/smart_logger/smart_logger/Libraries/CMSIS/Include\cmsis_gcc.h ****   Stack Pointer Limit register hence the write is silently ignored.
 742:C:/Users/emob/Desktop/smartlogger/design/firmware/xmc4500/smart_logger/smart_logger/Libraries/CMSIS/Include\cmsis_gcc.h **** 
 743:C:/Users/emob/Desktop/smartlogger/design/firmware/xmc4500/smart_logger/smart_logger/Libraries/CMSIS/Include\cmsis_gcc.h ****   \details Assigns the given value to the non-secure Main Stack Pointer Limit (MSPLIM) when in secu
 744:C:/Users/emob/Desktop/smartlogger/design/firmware/xmc4500/smart_logger/smart_logger/Libraries/CMSIS/Include\cmsis_gcc.h ****   \param [in]    MainStackPtrLimit  Main Stack Pointer value to set
 745:C:/Users/emob/Desktop/smartlogger/design/firmware/xmc4500/smart_logger/smart_logger/Libraries/CMSIS/Include\cmsis_gcc.h ****  */
 746:C:/Users/emob/Desktop/smartlogger/design/firmware/xmc4500/smart_logger/smart_logger/Libraries/CMSIS/Include\cmsis_gcc.h **** __STATIC_FORCEINLINE void __TZ_set_MSPLIM_NS(uint32_t MainStackPtrLimit)
 747:C:/Users/emob/Desktop/smartlogger/design/firmware/xmc4500/smart_logger/smart_logger/Libraries/CMSIS/Include\cmsis_gcc.h **** {
 748:C:/Users/emob/Desktop/smartlogger/design/firmware/xmc4500/smart_logger/smart_logger/Libraries/CMSIS/Include\cmsis_gcc.h **** #if (!(defined (__ARM_ARCH_8M_MAIN__ ) && (__ARM_ARCH_8M_MAIN__ == 1)))
 749:C:/Users/emob/Desktop/smartlogger/design/firmware/xmc4500/smart_logger/smart_logger/Libraries/CMSIS/Include\cmsis_gcc.h ****   // without main extensions, the non-secure MSPLIM is RAZ/WI
 750:C:/Users/emob/Desktop/smartlogger/design/firmware/xmc4500/smart_logger/smart_logger/Libraries/CMSIS/Include\cmsis_gcc.h ****   (void)MainStackPtrLimit;
 751:C:/Users/emob/Desktop/smartlogger/design/firmware/xmc4500/smart_logger/smart_logger/Libraries/CMSIS/Include\cmsis_gcc.h **** #else
 752:C:/Users/emob/Desktop/smartlogger/design/firmware/xmc4500/smart_logger/smart_logger/Libraries/CMSIS/Include\cmsis_gcc.h ****   __ASM volatile ("MSR msplim_ns, %0" : : "r" (MainStackPtrLimit));
 753:C:/Users/emob/Desktop/smartlogger/design/firmware/xmc4500/smart_logger/smart_logger/Libraries/CMSIS/Include\cmsis_gcc.h **** #endif
 754:C:/Users/emob/Desktop/smartlogger/design/firmware/xmc4500/smart_logger/smart_logger/Libraries/CMSIS/Include\cmsis_gcc.h **** }
 755:C:/Users/emob/Desktop/smartlogger/design/firmware/xmc4500/smart_logger/smart_logger/Libraries/CMSIS/Include\cmsis_gcc.h **** #endif
 756:C:/Users/emob/Desktop/smartlogger/design/firmware/xmc4500/smart_logger/smart_logger/Libraries/CMSIS/Include\cmsis_gcc.h **** 
 757:C:/Users/emob/Desktop/smartlogger/design/firmware/xmc4500/smart_logger/smart_logger/Libraries/CMSIS/Include\cmsis_gcc.h **** #endif /* ((defined (__ARM_ARCH_8M_MAIN__ ) && (__ARM_ARCH_8M_MAIN__ == 1)) || \
 758:C:/Users/emob/Desktop/smartlogger/design/firmware/xmc4500/smart_logger/smart_logger/Libraries/CMSIS/Include\cmsis_gcc.h ****            (defined (__ARM_ARCH_8M_BASE__ ) && (__ARM_ARCH_8M_BASE__ == 1))    ) */
 759:C:/Users/emob/Desktop/smartlogger/design/firmware/xmc4500/smart_logger/smart_logger/Libraries/CMSIS/Include\cmsis_gcc.h **** 
 760:C:/Users/emob/Desktop/smartlogger/design/firmware/xmc4500/smart_logger/smart_logger/Libraries/CMSIS/Include\cmsis_gcc.h **** 
 761:C:/Users/emob/Desktop/smartlogger/design/firmware/xmc4500/smart_logger/smart_logger/Libraries/CMSIS/Include\cmsis_gcc.h **** /**
 762:C:/Users/emob/Desktop/smartlogger/design/firmware/xmc4500/smart_logger/smart_logger/Libraries/CMSIS/Include\cmsis_gcc.h ****   \brief   Get FPSCR
 763:C:/Users/emob/Desktop/smartlogger/design/firmware/xmc4500/smart_logger/smart_logger/Libraries/CMSIS/Include\cmsis_gcc.h ****   \details Returns the current value of the Floating Point Status/Control register.
 764:C:/Users/emob/Desktop/smartlogger/design/firmware/xmc4500/smart_logger/smart_logger/Libraries/CMSIS/Include\cmsis_gcc.h ****   \return               Floating Point Status/Control register value
 765:C:/Users/emob/Desktop/smartlogger/design/firmware/xmc4500/smart_logger/smart_logger/Libraries/CMSIS/Include\cmsis_gcc.h ****  */
 766:C:/Users/emob/Desktop/smartlogger/design/firmware/xmc4500/smart_logger/smart_logger/Libraries/CMSIS/Include\cmsis_gcc.h **** __STATIC_FORCEINLINE uint32_t __get_FPSCR(void)
 767:C:/Users/emob/Desktop/smartlogger/design/firmware/xmc4500/smart_logger/smart_logger/Libraries/CMSIS/Include\cmsis_gcc.h **** {
 768:C:/Users/emob/Desktop/smartlogger/design/firmware/xmc4500/smart_logger/smart_logger/Libraries/CMSIS/Include\cmsis_gcc.h **** #if ((defined (__FPU_PRESENT) && (__FPU_PRESENT == 1U)) && \
 769:C:/Users/emob/Desktop/smartlogger/design/firmware/xmc4500/smart_logger/smart_logger/Libraries/CMSIS/Include\cmsis_gcc.h ****      (defined (__FPU_USED   ) && (__FPU_USED    == 1U))     )
 770:C:/Users/emob/Desktop/smartlogger/design/firmware/xmc4500/smart_logger/smart_logger/Libraries/CMSIS/Include\cmsis_gcc.h **** #if __has_builtin(__builtin_arm_get_fpscr) 
 771:C:/Users/emob/Desktop/smartlogger/design/firmware/xmc4500/smart_logger/smart_logger/Libraries/CMSIS/Include\cmsis_gcc.h **** // Re-enable using built-in when GCC has been fixed
 772:C:/Users/emob/Desktop/smartlogger/design/firmware/xmc4500/smart_logger/smart_logger/Libraries/CMSIS/Include\cmsis_gcc.h **** // || (__GNUC__ > 7) || (__GNUC__ == 7 && __GNUC_MINOR__ >= 2)
 773:C:/Users/emob/Desktop/smartlogger/design/firmware/xmc4500/smart_logger/smart_logger/Libraries/CMSIS/Include\cmsis_gcc.h ****   /* see https://gcc.gnu.org/ml/gcc-patches/2017-04/msg00443.html */
 774:C:/Users/emob/Desktop/smartlogger/design/firmware/xmc4500/smart_logger/smart_logger/Libraries/CMSIS/Include\cmsis_gcc.h ****   return __builtin_arm_get_fpscr();
 775:C:/Users/emob/Desktop/smartlogger/design/firmware/xmc4500/smart_logger/smart_logger/Libraries/CMSIS/Include\cmsis_gcc.h **** #else
 776:C:/Users/emob/Desktop/smartlogger/design/firmware/xmc4500/smart_logger/smart_logger/Libraries/CMSIS/Include\cmsis_gcc.h ****   uint32_t result;
 777:C:/Users/emob/Desktop/smartlogger/design/firmware/xmc4500/smart_logger/smart_logger/Libraries/CMSIS/Include\cmsis_gcc.h **** 
 778:C:/Users/emob/Desktop/smartlogger/design/firmware/xmc4500/smart_logger/smart_logger/Libraries/CMSIS/Include\cmsis_gcc.h ****   __ASM volatile ("VMRS %0, fpscr" : "=r" (result) );
 779:C:/Users/emob/Desktop/smartlogger/design/firmware/xmc4500/smart_logger/smart_logger/Libraries/CMSIS/Include\cmsis_gcc.h ****   return(result);
 780:C:/Users/emob/Desktop/smartlogger/design/firmware/xmc4500/smart_logger/smart_logger/Libraries/CMSIS/Include\cmsis_gcc.h **** #endif
 781:C:/Users/emob/Desktop/smartlogger/design/firmware/xmc4500/smart_logger/smart_logger/Libraries/CMSIS/Include\cmsis_gcc.h **** #else
 782:C:/Users/emob/Desktop/smartlogger/design/firmware/xmc4500/smart_logger/smart_logger/Libraries/CMSIS/Include\cmsis_gcc.h ****   return(0U);
 783:C:/Users/emob/Desktop/smartlogger/design/firmware/xmc4500/smart_logger/smart_logger/Libraries/CMSIS/Include\cmsis_gcc.h **** #endif
 784:C:/Users/emob/Desktop/smartlogger/design/firmware/xmc4500/smart_logger/smart_logger/Libraries/CMSIS/Include\cmsis_gcc.h **** }
 785:C:/Users/emob/Desktop/smartlogger/design/firmware/xmc4500/smart_logger/smart_logger/Libraries/CMSIS/Include\cmsis_gcc.h **** 
 786:C:/Users/emob/Desktop/smartlogger/design/firmware/xmc4500/smart_logger/smart_logger/Libraries/CMSIS/Include\cmsis_gcc.h **** 
 787:C:/Users/emob/Desktop/smartlogger/design/firmware/xmc4500/smart_logger/smart_logger/Libraries/CMSIS/Include\cmsis_gcc.h **** /**
 788:C:/Users/emob/Desktop/smartlogger/design/firmware/xmc4500/smart_logger/smart_logger/Libraries/CMSIS/Include\cmsis_gcc.h ****   \brief   Set FPSCR
 789:C:/Users/emob/Desktop/smartlogger/design/firmware/xmc4500/smart_logger/smart_logger/Libraries/CMSIS/Include\cmsis_gcc.h ****   \details Assigns the given value to the Floating Point Status/Control register.
 790:C:/Users/emob/Desktop/smartlogger/design/firmware/xmc4500/smart_logger/smart_logger/Libraries/CMSIS/Include\cmsis_gcc.h ****   \param [in]    fpscr  Floating Point Status/Control value to set
 791:C:/Users/emob/Desktop/smartlogger/design/firmware/xmc4500/smart_logger/smart_logger/Libraries/CMSIS/Include\cmsis_gcc.h ****  */
 792:C:/Users/emob/Desktop/smartlogger/design/firmware/xmc4500/smart_logger/smart_logger/Libraries/CMSIS/Include\cmsis_gcc.h **** __STATIC_FORCEINLINE void __set_FPSCR(uint32_t fpscr)
 793:C:/Users/emob/Desktop/smartlogger/design/firmware/xmc4500/smart_logger/smart_logger/Libraries/CMSIS/Include\cmsis_gcc.h **** {
 794:C:/Users/emob/Desktop/smartlogger/design/firmware/xmc4500/smart_logger/smart_logger/Libraries/CMSIS/Include\cmsis_gcc.h **** #if ((defined (__FPU_PRESENT) && (__FPU_PRESENT == 1U)) && \
 795:C:/Users/emob/Desktop/smartlogger/design/firmware/xmc4500/smart_logger/smart_logger/Libraries/CMSIS/Include\cmsis_gcc.h ****      (defined (__FPU_USED   ) && (__FPU_USED    == 1U))     )
 796:C:/Users/emob/Desktop/smartlogger/design/firmware/xmc4500/smart_logger/smart_logger/Libraries/CMSIS/Include\cmsis_gcc.h **** #if __has_builtin(__builtin_arm_set_fpscr)
 797:C:/Users/emob/Desktop/smartlogger/design/firmware/xmc4500/smart_logger/smart_logger/Libraries/CMSIS/Include\cmsis_gcc.h **** // Re-enable using built-in when GCC has been fixed
 798:C:/Users/emob/Desktop/smartlogger/design/firmware/xmc4500/smart_logger/smart_logger/Libraries/CMSIS/Include\cmsis_gcc.h **** // || (__GNUC__ > 7) || (__GNUC__ == 7 && __GNUC_MINOR__ >= 2)
 799:C:/Users/emob/Desktop/smartlogger/design/firmware/xmc4500/smart_logger/smart_logger/Libraries/CMSIS/Include\cmsis_gcc.h ****   /* see https://gcc.gnu.org/ml/gcc-patches/2017-04/msg00443.html */
 800:C:/Users/emob/Desktop/smartlogger/design/firmware/xmc4500/smart_logger/smart_logger/Libraries/CMSIS/Include\cmsis_gcc.h ****   __builtin_arm_set_fpscr(fpscr);
 801:C:/Users/emob/Desktop/smartlogger/design/firmware/xmc4500/smart_logger/smart_logger/Libraries/CMSIS/Include\cmsis_gcc.h **** #else
 802:C:/Users/emob/Desktop/smartlogger/design/firmware/xmc4500/smart_logger/smart_logger/Libraries/CMSIS/Include\cmsis_gcc.h ****   __ASM volatile ("VMSR fpscr, %0" : : "r" (fpscr) : "vfpcc", "memory");
 803:C:/Users/emob/Desktop/smartlogger/design/firmware/xmc4500/smart_logger/smart_logger/Libraries/CMSIS/Include\cmsis_gcc.h **** #endif
 804:C:/Users/emob/Desktop/smartlogger/design/firmware/xmc4500/smart_logger/smart_logger/Libraries/CMSIS/Include\cmsis_gcc.h **** #else
 805:C:/Users/emob/Desktop/smartlogger/design/firmware/xmc4500/smart_logger/smart_logger/Libraries/CMSIS/Include\cmsis_gcc.h ****   (void)fpscr;
 806:C:/Users/emob/Desktop/smartlogger/design/firmware/xmc4500/smart_logger/smart_logger/Libraries/CMSIS/Include\cmsis_gcc.h **** #endif
 807:C:/Users/emob/Desktop/smartlogger/design/firmware/xmc4500/smart_logger/smart_logger/Libraries/CMSIS/Include\cmsis_gcc.h **** }
 808:C:/Users/emob/Desktop/smartlogger/design/firmware/xmc4500/smart_logger/smart_logger/Libraries/CMSIS/Include\cmsis_gcc.h **** 
 809:C:/Users/emob/Desktop/smartlogger/design/firmware/xmc4500/smart_logger/smart_logger/Libraries/CMSIS/Include\cmsis_gcc.h **** 
 810:C:/Users/emob/Desktop/smartlogger/design/firmware/xmc4500/smart_logger/smart_logger/Libraries/CMSIS/Include\cmsis_gcc.h **** /*@} end of CMSIS_Core_RegAccFunctions */
 811:C:/Users/emob/Desktop/smartlogger/design/firmware/xmc4500/smart_logger/smart_logger/Libraries/CMSIS/Include\cmsis_gcc.h **** 
 812:C:/Users/emob/Desktop/smartlogger/design/firmware/xmc4500/smart_logger/smart_logger/Libraries/CMSIS/Include\cmsis_gcc.h **** 
 813:C:/Users/emob/Desktop/smartlogger/design/firmware/xmc4500/smart_logger/smart_logger/Libraries/CMSIS/Include\cmsis_gcc.h **** /* ##########################  Core Instruction Access  ######################### */
 814:C:/Users/emob/Desktop/smartlogger/design/firmware/xmc4500/smart_logger/smart_logger/Libraries/CMSIS/Include\cmsis_gcc.h **** /** \defgroup CMSIS_Core_InstructionInterface CMSIS Core Instruction Interface
 815:C:/Users/emob/Desktop/smartlogger/design/firmware/xmc4500/smart_logger/smart_logger/Libraries/CMSIS/Include\cmsis_gcc.h ****   Access to dedicated instructions
 816:C:/Users/emob/Desktop/smartlogger/design/firmware/xmc4500/smart_logger/smart_logger/Libraries/CMSIS/Include\cmsis_gcc.h ****   @{
 817:C:/Users/emob/Desktop/smartlogger/design/firmware/xmc4500/smart_logger/smart_logger/Libraries/CMSIS/Include\cmsis_gcc.h **** */
 818:C:/Users/emob/Desktop/smartlogger/design/firmware/xmc4500/smart_logger/smart_logger/Libraries/CMSIS/Include\cmsis_gcc.h **** 
 819:C:/Users/emob/Desktop/smartlogger/design/firmware/xmc4500/smart_logger/smart_logger/Libraries/CMSIS/Include\cmsis_gcc.h **** /* Define macros for porting to both thumb1 and thumb2.
 820:C:/Users/emob/Desktop/smartlogger/design/firmware/xmc4500/smart_logger/smart_logger/Libraries/CMSIS/Include\cmsis_gcc.h ****  * For thumb1, use low register (r0-r7), specified by constraint "l"
 821:C:/Users/emob/Desktop/smartlogger/design/firmware/xmc4500/smart_logger/smart_logger/Libraries/CMSIS/Include\cmsis_gcc.h ****  * Otherwise, use general registers, specified by constraint "r" */
 822:C:/Users/emob/Desktop/smartlogger/design/firmware/xmc4500/smart_logger/smart_logger/Libraries/CMSIS/Include\cmsis_gcc.h **** #if defined (__thumb__) && !defined (__thumb2__)
 823:C:/Users/emob/Desktop/smartlogger/design/firmware/xmc4500/smart_logger/smart_logger/Libraries/CMSIS/Include\cmsis_gcc.h **** #define __CMSIS_GCC_OUT_REG(r) "=l" (r)
 824:C:/Users/emob/Desktop/smartlogger/design/firmware/xmc4500/smart_logger/smart_logger/Libraries/CMSIS/Include\cmsis_gcc.h **** #define __CMSIS_GCC_RW_REG(r) "+l" (r)
 825:C:/Users/emob/Desktop/smartlogger/design/firmware/xmc4500/smart_logger/smart_logger/Libraries/CMSIS/Include\cmsis_gcc.h **** #define __CMSIS_GCC_USE_REG(r) "l" (r)
 826:C:/Users/emob/Desktop/smartlogger/design/firmware/xmc4500/smart_logger/smart_logger/Libraries/CMSIS/Include\cmsis_gcc.h **** #else
 827:C:/Users/emob/Desktop/smartlogger/design/firmware/xmc4500/smart_logger/smart_logger/Libraries/CMSIS/Include\cmsis_gcc.h **** #define __CMSIS_GCC_OUT_REG(r) "=r" (r)
 828:C:/Users/emob/Desktop/smartlogger/design/firmware/xmc4500/smart_logger/smart_logger/Libraries/CMSIS/Include\cmsis_gcc.h **** #define __CMSIS_GCC_RW_REG(r) "+r" (r)
 829:C:/Users/emob/Desktop/smartlogger/design/firmware/xmc4500/smart_logger/smart_logger/Libraries/CMSIS/Include\cmsis_gcc.h **** #define __CMSIS_GCC_USE_REG(r) "r" (r)
 830:C:/Users/emob/Desktop/smartlogger/design/firmware/xmc4500/smart_logger/smart_logger/Libraries/CMSIS/Include\cmsis_gcc.h **** #endif
 831:C:/Users/emob/Desktop/smartlogger/design/firmware/xmc4500/smart_logger/smart_logger/Libraries/CMSIS/Include\cmsis_gcc.h **** 
 832:C:/Users/emob/Desktop/smartlogger/design/firmware/xmc4500/smart_logger/smart_logger/Libraries/CMSIS/Include\cmsis_gcc.h **** /**
 833:C:/Users/emob/Desktop/smartlogger/design/firmware/xmc4500/smart_logger/smart_logger/Libraries/CMSIS/Include\cmsis_gcc.h ****   \brief   No Operation
 834:C:/Users/emob/Desktop/smartlogger/design/firmware/xmc4500/smart_logger/smart_logger/Libraries/CMSIS/Include\cmsis_gcc.h ****   \details No Operation does nothing. This instruction can be used for code alignment purposes.
 835:C:/Users/emob/Desktop/smartlogger/design/firmware/xmc4500/smart_logger/smart_logger/Libraries/CMSIS/Include\cmsis_gcc.h ****  */
 836:C:/Users/emob/Desktop/smartlogger/design/firmware/xmc4500/smart_logger/smart_logger/Libraries/CMSIS/Include\cmsis_gcc.h **** #define __NOP()                             __ASM volatile ("nop")
 837:C:/Users/emob/Desktop/smartlogger/design/firmware/xmc4500/smart_logger/smart_logger/Libraries/CMSIS/Include\cmsis_gcc.h **** 
 838:C:/Users/emob/Desktop/smartlogger/design/firmware/xmc4500/smart_logger/smart_logger/Libraries/CMSIS/Include\cmsis_gcc.h **** /**
 839:C:/Users/emob/Desktop/smartlogger/design/firmware/xmc4500/smart_logger/smart_logger/Libraries/CMSIS/Include\cmsis_gcc.h ****   \brief   Wait For Interrupt
 840:C:/Users/emob/Desktop/smartlogger/design/firmware/xmc4500/smart_logger/smart_logger/Libraries/CMSIS/Include\cmsis_gcc.h ****   \details Wait For Interrupt is a hint instruction that suspends execution until one of a number o
 841:C:/Users/emob/Desktop/smartlogger/design/firmware/xmc4500/smart_logger/smart_logger/Libraries/CMSIS/Include\cmsis_gcc.h ****  */
 842:C:/Users/emob/Desktop/smartlogger/design/firmware/xmc4500/smart_logger/smart_logger/Libraries/CMSIS/Include\cmsis_gcc.h **** #define __WFI()                             __ASM volatile ("wfi")
 843:C:/Users/emob/Desktop/smartlogger/design/firmware/xmc4500/smart_logger/smart_logger/Libraries/CMSIS/Include\cmsis_gcc.h **** 
 844:C:/Users/emob/Desktop/smartlogger/design/firmware/xmc4500/smart_logger/smart_logger/Libraries/CMSIS/Include\cmsis_gcc.h **** 
 845:C:/Users/emob/Desktop/smartlogger/design/firmware/xmc4500/smart_logger/smart_logger/Libraries/CMSIS/Include\cmsis_gcc.h **** /**
 846:C:/Users/emob/Desktop/smartlogger/design/firmware/xmc4500/smart_logger/smart_logger/Libraries/CMSIS/Include\cmsis_gcc.h ****   \brief   Wait For Event
 847:C:/Users/emob/Desktop/smartlogger/design/firmware/xmc4500/smart_logger/smart_logger/Libraries/CMSIS/Include\cmsis_gcc.h ****   \details Wait For Event is a hint instruction that permits the processor to enter
 848:C:/Users/emob/Desktop/smartlogger/design/firmware/xmc4500/smart_logger/smart_logger/Libraries/CMSIS/Include\cmsis_gcc.h ****            a low-power state until one of a number of events occurs.
 849:C:/Users/emob/Desktop/smartlogger/design/firmware/xmc4500/smart_logger/smart_logger/Libraries/CMSIS/Include\cmsis_gcc.h ****  */
 850:C:/Users/emob/Desktop/smartlogger/design/firmware/xmc4500/smart_logger/smart_logger/Libraries/CMSIS/Include\cmsis_gcc.h **** #define __WFE()                             __ASM volatile ("wfe")
 851:C:/Users/emob/Desktop/smartlogger/design/firmware/xmc4500/smart_logger/smart_logger/Libraries/CMSIS/Include\cmsis_gcc.h **** 
 852:C:/Users/emob/Desktop/smartlogger/design/firmware/xmc4500/smart_logger/smart_logger/Libraries/CMSIS/Include\cmsis_gcc.h **** 
 853:C:/Users/emob/Desktop/smartlogger/design/firmware/xmc4500/smart_logger/smart_logger/Libraries/CMSIS/Include\cmsis_gcc.h **** /**
 854:C:/Users/emob/Desktop/smartlogger/design/firmware/xmc4500/smart_logger/smart_logger/Libraries/CMSIS/Include\cmsis_gcc.h ****   \brief   Send Event
 855:C:/Users/emob/Desktop/smartlogger/design/firmware/xmc4500/smart_logger/smart_logger/Libraries/CMSIS/Include\cmsis_gcc.h ****   \details Send Event is a hint instruction. It causes an event to be signaled to the CPU.
 856:C:/Users/emob/Desktop/smartlogger/design/firmware/xmc4500/smart_logger/smart_logger/Libraries/CMSIS/Include\cmsis_gcc.h ****  */
 857:C:/Users/emob/Desktop/smartlogger/design/firmware/xmc4500/smart_logger/smart_logger/Libraries/CMSIS/Include\cmsis_gcc.h **** #define __SEV()                             __ASM volatile ("sev")
 858:C:/Users/emob/Desktop/smartlogger/design/firmware/xmc4500/smart_logger/smart_logger/Libraries/CMSIS/Include\cmsis_gcc.h **** 
 859:C:/Users/emob/Desktop/smartlogger/design/firmware/xmc4500/smart_logger/smart_logger/Libraries/CMSIS/Include\cmsis_gcc.h **** 
 860:C:/Users/emob/Desktop/smartlogger/design/firmware/xmc4500/smart_logger/smart_logger/Libraries/CMSIS/Include\cmsis_gcc.h **** /**
 861:C:/Users/emob/Desktop/smartlogger/design/firmware/xmc4500/smart_logger/smart_logger/Libraries/CMSIS/Include\cmsis_gcc.h ****   \brief   Instruction Synchronization Barrier
 862:C:/Users/emob/Desktop/smartlogger/design/firmware/xmc4500/smart_logger/smart_logger/Libraries/CMSIS/Include\cmsis_gcc.h ****   \details Instruction Synchronization Barrier flushes the pipeline in the processor,
 863:C:/Users/emob/Desktop/smartlogger/design/firmware/xmc4500/smart_logger/smart_logger/Libraries/CMSIS/Include\cmsis_gcc.h ****            so that all instructions following the ISB are fetched from cache or memory,
 864:C:/Users/emob/Desktop/smartlogger/design/firmware/xmc4500/smart_logger/smart_logger/Libraries/CMSIS/Include\cmsis_gcc.h ****            after the instruction has been completed.
 865:C:/Users/emob/Desktop/smartlogger/design/firmware/xmc4500/smart_logger/smart_logger/Libraries/CMSIS/Include\cmsis_gcc.h ****  */
 866:C:/Users/emob/Desktop/smartlogger/design/firmware/xmc4500/smart_logger/smart_logger/Libraries/CMSIS/Include\cmsis_gcc.h **** __STATIC_FORCEINLINE void __ISB(void)
 867:C:/Users/emob/Desktop/smartlogger/design/firmware/xmc4500/smart_logger/smart_logger/Libraries/CMSIS/Include\cmsis_gcc.h **** {
 868:C:/Users/emob/Desktop/smartlogger/design/firmware/xmc4500/smart_logger/smart_logger/Libraries/CMSIS/Include\cmsis_gcc.h ****   __ASM volatile ("isb 0xF":::"memory");
 869:C:/Users/emob/Desktop/smartlogger/design/firmware/xmc4500/smart_logger/smart_logger/Libraries/CMSIS/Include\cmsis_gcc.h **** }
 870:C:/Users/emob/Desktop/smartlogger/design/firmware/xmc4500/smart_logger/smart_logger/Libraries/CMSIS/Include\cmsis_gcc.h **** 
 871:C:/Users/emob/Desktop/smartlogger/design/firmware/xmc4500/smart_logger/smart_logger/Libraries/CMSIS/Include\cmsis_gcc.h **** 
 872:C:/Users/emob/Desktop/smartlogger/design/firmware/xmc4500/smart_logger/smart_logger/Libraries/CMSIS/Include\cmsis_gcc.h **** /**
 873:C:/Users/emob/Desktop/smartlogger/design/firmware/xmc4500/smart_logger/smart_logger/Libraries/CMSIS/Include\cmsis_gcc.h ****   \brief   Data Synchronization Barrier
 874:C:/Users/emob/Desktop/smartlogger/design/firmware/xmc4500/smart_logger/smart_logger/Libraries/CMSIS/Include\cmsis_gcc.h ****   \details Acts as a special kind of Data Memory Barrier.
 875:C:/Users/emob/Desktop/smartlogger/design/firmware/xmc4500/smart_logger/smart_logger/Libraries/CMSIS/Include\cmsis_gcc.h ****            It completes when all explicit memory accesses before this instruction complete.
 876:C:/Users/emob/Desktop/smartlogger/design/firmware/xmc4500/smart_logger/smart_logger/Libraries/CMSIS/Include\cmsis_gcc.h ****  */
 877:C:/Users/emob/Desktop/smartlogger/design/firmware/xmc4500/smart_logger/smart_logger/Libraries/CMSIS/Include\cmsis_gcc.h **** __STATIC_FORCEINLINE void __DSB(void)
 878:C:/Users/emob/Desktop/smartlogger/design/firmware/xmc4500/smart_logger/smart_logger/Libraries/CMSIS/Include\cmsis_gcc.h **** {
 879:C:/Users/emob/Desktop/smartlogger/design/firmware/xmc4500/smart_logger/smart_logger/Libraries/CMSIS/Include\cmsis_gcc.h ****   __ASM volatile ("dsb 0xF":::"memory");
 172              	 .loc 2 879 0
 173              	
 174 000e BFF34F8F 	 dsb 0xF
 175              	
 176              	 .thumb
 177              	.LBE11:
 178              	.LBE10:
 179              	.LBB12:
 180              	.LBB13:
 131:C:/Users/emob/Desktop/smartlogger/design/firmware/xmc4500/smart_logger/smart_logger/Libraries/CMSIS/Include\cmsis_gcc.h **** }
 181              	 .loc 2 131 0
 182              	
 183 0012 62B6     	 cpsie i
 184              	
 185              	 .thumb
 186              	.LBE13:
 187              	.LBE12:
 339:../Startup/system_XMC4500.c ****   __DSB();
 340:../Startup/system_XMC4500.c ****   __enable_irq();
 341:../Startup/system_XMC4500.c ****     
 342:../Startup/system_XMC4500.c ****   /* __FPU_PRESENT = 1 defined in device header file */
 343:../Startup/system_XMC4500.c ****   /* __FPU_USED value depends on compiler/linker options. */
 344:../Startup/system_XMC4500.c ****   /* __FPU_USED = 0 if -mfloat-abi=soft is selected */
 345:../Startup/system_XMC4500.c ****   /* __FPU_USED = 1 if -mfloat-abi=softfp or mfloat-abi=hard */
 346:../Startup/system_XMC4500.c **** 
 347:../Startup/system_XMC4500.c **** #if ((__FPU_PRESENT == 1) && (__FPU_USED == 1))
 348:../Startup/system_XMC4500.c ****   SCB->CPACR |= ((3UL << 10*2) |                 /* set CP10 Full Access */
 188              	 .loc 1 348 0
 189 0014 134A     	 ldr r2,.L8
 190 0016 134B     	 ldr r3,.L8
 191 0018 D3F88830 	 ldr r3,[r3,#136]
 192 001c 43F47003 	 orr r3,r3,#15728640
 193 0020 C2F88830 	 str r3,[r2,#136]
 349:../Startup/system_XMC4500.c ****                  (3UL << 11*2)  );               /* set CP11 Full Access */
 350:../Startup/system_XMC4500.c **** #else
 351:../Startup/system_XMC4500.c ****   SCB->CPACR = 0;
 352:../Startup/system_XMC4500.c **** #endif
 353:../Startup/system_XMC4500.c **** 
 354:../Startup/system_XMC4500.c ****   /* Enable unaligned memory access - SCB_CCR.UNALIGN_TRP = 0 */
 355:../Startup/system_XMC4500.c ****   SCB->CCR &= ~(SCB_CCR_UNALIGN_TRP_Msk);
 194              	 .loc 1 355 0
 195 0024 0F4A     	 ldr r2,.L8
 196 0026 0F4B     	 ldr r3,.L8
 197 0028 5B69     	 ldr r3,[r3,#20]
 198 002a 23F00803 	 bic r3,r3,#8
 199 002e 5361     	 str r3,[r2,#20]
 356:../Startup/system_XMC4500.c **** 
 357:../Startup/system_XMC4500.c ****   temp = FLASH0->FCON;
 200              	 .loc 1 357 0
 201 0030 0E4B     	 ldr r3,.L8+8
 202 0032 03F58053 	 add r3,r3,#4096
 203 0036 1433     	 adds r3,r3,#20
 204 0038 1B68     	 ldr r3,[r3]
 205 003a 7B60     	 str r3,[r7,#4]
 358:../Startup/system_XMC4500.c ****   temp &= ~FLASH_FCON_WSPFLASH_Msk;
 206              	 .loc 1 358 0
 207 003c 7B68     	 ldr r3,[r7,#4]
 208 003e 23F00F03 	 bic r3,r3,#15
 209 0042 7B60     	 str r3,[r7,#4]
 359:../Startup/system_XMC4500.c ****   temp |= PMU_FLASH_WS;
 210              	 .loc 1 359 0
 211 0044 7B68     	 ldr r3,[r7,#4]
 212 0046 43F00303 	 orr r3,r3,#3
 213 004a 7B60     	 str r3,[r7,#4]
 360:../Startup/system_XMC4500.c ****   FLASH0->FCON = temp;
 214              	 .loc 1 360 0
 215 004c 074B     	 ldr r3,.L8+8
 216 004e 03F58053 	 add r3,r3,#4096
 217 0052 1433     	 adds r3,r3,#20
 218 0054 7A68     	 ldr r2,[r7,#4]
 219 0056 1A60     	 str r2,[r3]
 361:../Startup/system_XMC4500.c **** }
 220              	 .loc 1 361 0
 221 0058 0C37     	 adds r7,r7,#12
 222              	.LCFI11:
 223              	 .cfi_def_cfa_offset 4
 224 005a BD46     	 mov sp,r7
 225              	.LCFI12:
 226              	 .cfi_def_cfa_register 13
 227              	 
 228 005c 5DF8047B 	 ldr r7,[sp],#4
 229              	.LCFI13:
 230              	 .cfi_restore 7
 231              	 .cfi_def_cfa_offset 0
 232 0060 7047     	 bx lr
 233              	.L9:
 234 0062 00BF     	 .align 2
 235              	.L8:
 236 0064 00ED00E0 	 .word -536810240
 237 0068 00000000 	 .word __Vectors
 238 006c 00100058 	 .word 1476399104
 239              	 .cfi_endproc
 240              	.LFE132:
 242              	 .section .text.SystemCoreClockSetup,"ax",%progbits
 243              	 .align 2
 244              	 .weak SystemCoreClockSetup
 245              	 .thumb
 246              	 .thumb_func
 248              	SystemCoreClockSetup:
 249              	.LFB133:
 362:../Startup/system_XMC4500.c **** 
 363:../Startup/system_XMC4500.c **** __WEAK void SystemCoreClockSetup(void)
 364:../Startup/system_XMC4500.c **** {
 250              	 .loc 1 364 0
 251              	 .cfi_startproc
 252              	 
 253              	 
 254 0000 80B5     	 push {r7,lr}
 255              	.LCFI14:
 256              	 .cfi_def_cfa_offset 8
 257              	 .cfi_offset 7,-8
 258              	 .cfi_offset 14,-4
 259 0002 00AF     	 add r7,sp,#0
 260              	.LCFI15:
 261              	 .cfi_def_cfa_register 7
 365:../Startup/system_XMC4500.c **** #if FOFI_CALIBRATION_MODE == FOFI_CALIBRATION_MODE_FACTORY
 366:../Startup/system_XMC4500.c ****   /* Enable factory calibration */
 367:../Startup/system_XMC4500.c ****   SCU_PLL->PLLCON0 |= SCU_PLL_PLLCON0_FOTR_Msk;
 368:../Startup/system_XMC4500.c **** #else
 369:../Startup/system_XMC4500.c ****   /* Automatic calibration uses the fSTDBY */
 370:../Startup/system_XMC4500.c **** 
 371:../Startup/system_XMC4500.c ****   /* Enable HIB domain */
 372:../Startup/system_XMC4500.c ****   /* Power up HIB domain if and only if it is currently powered down */
 373:../Startup/system_XMC4500.c ****   if((SCU_POWER->PWRSTAT & SCU_POWER_PWRSTAT_HIBEN_Msk) == 0)
 262              	 .loc 1 373 0
 263 0004 754B     	 ldr r3,.L21
 264 0006 1B68     	 ldr r3,[r3]
 265 0008 03F00103 	 and r3,r3,#1
 266 000c 002B     	 cmp r3,#0
 267 000e 0CD1     	 bne .L11
 374:../Startup/system_XMC4500.c ****   {
 375:../Startup/system_XMC4500.c ****     SCU_POWER->PWRSET |= SCU_POWER_PWRSET_HIB_Msk;
 268              	 .loc 1 375 0
 269 0010 724A     	 ldr r2,.L21
 270 0012 724B     	 ldr r3,.L21
 271 0014 5B68     	 ldr r3,[r3,#4]
 272 0016 43F00103 	 orr r3,r3,#1
 273 001a 5360     	 str r3,[r2,#4]
 376:../Startup/system_XMC4500.c **** 
 377:../Startup/system_XMC4500.c ****     while((SCU_POWER->PWRSTAT & SCU_POWER_PWRSTAT_HIBEN_Msk) == 0)
 274              	 .loc 1 377 0
 275 001c 00BF     	 nop
 276              	.L12:
 277              	 .loc 1 377 0 is_stmt 0 discriminator 1
 278 001e 6F4B     	 ldr r3,.L21
 279 0020 1B68     	 ldr r3,[r3]
 280 0022 03F00103 	 and r3,r3,#1
 281 0026 002B     	 cmp r3,#0
 282 0028 F9D0     	 beq .L12
 283              	.L11:
 378:../Startup/system_XMC4500.c ****     {
 379:../Startup/system_XMC4500.c ****       /* wait until HIB domain is enabled */
 380:../Startup/system_XMC4500.c ****     }
 381:../Startup/system_XMC4500.c ****   }
 382:../Startup/system_XMC4500.c **** 
 383:../Startup/system_XMC4500.c ****   /* Remove the reset only if HIB domain were in a state of reset */
 384:../Startup/system_XMC4500.c ****   if((SCU_RESET->RSTSTAT) & SCU_RESET_RSTSTAT_HIBRS_Msk)
 284              	 .loc 1 384 0 is_stmt 1
 285 002a 6D4B     	 ldr r3,.L21+4
 286 002c 1B68     	 ldr r3,[r3]
 287 002e 03F40073 	 and r3,r3,#512
 288 0032 002B     	 cmp r3,#0
 289 0034 09D0     	 beq .L13
 385:../Startup/system_XMC4500.c ****   {
 386:../Startup/system_XMC4500.c ****     SCU_RESET->RSTCLR |= SCU_RESET_RSTCLR_HIBRS_Msk;
 290              	 .loc 1 386 0
 291 0036 6A4A     	 ldr r2,.L21+4
 292 0038 694B     	 ldr r3,.L21+4
 293 003a 9B68     	 ldr r3,[r3,#8]
 294 003c 43F40073 	 orr r3,r3,#512
 295 0040 9360     	 str r3,[r2,#8]
 387:../Startup/system_XMC4500.c ****     delay(DELAY_CNT_150US_50MHZ);
 296              	 .loc 1 387 0
 297 0042 41F64C50 	 movw r0,#7500
 298 0046 FFF7FEFF 	 bl delay
 299              	.L13:
 388:../Startup/system_XMC4500.c ****   }
 389:../Startup/system_XMC4500.c ****   
 390:../Startup/system_XMC4500.c **** #if STDBY_CLOCK_SRC == STDBY_CLOCK_SRC_OSCULP
 391:../Startup/system_XMC4500.c ****   /* Enable OSC_ULP */
 392:../Startup/system_XMC4500.c ****   if ((SCU_HIBERNATE->OSCULCTRL & SCU_HIBERNATE_OSCULCTRL_MODE_Msk) != 0UL)
 393:../Startup/system_XMC4500.c ****   {
 394:../Startup/system_XMC4500.c ****     /*enable OSC_ULP*/
 395:../Startup/system_XMC4500.c ****     while (SCU_GENERAL->MIRRSTS & SCU_GENERAL_MIRRSTS_OSCULCTRL_Msk)
 396:../Startup/system_XMC4500.c ****     {
 397:../Startup/system_XMC4500.c ****       /* check SCU_MIRRSTS to ensure that no transfer over serial interface is pending */
 398:../Startup/system_XMC4500.c ****     }
 399:../Startup/system_XMC4500.c ****     SCU_HIBERNATE->OSCULCTRL &= ~SCU_HIBERNATE_OSCULCTRL_MODE_Msk;
 400:../Startup/system_XMC4500.c **** 
 401:../Startup/system_XMC4500.c ****     /* Check if the clock is OK using OSCULP Oscillator Watchdog*/
 402:../Startup/system_XMC4500.c ****     while (SCU_GENERAL->MIRRSTS & SCU_GENERAL_MIRRSTS_HDCR_Msk)
 403:../Startup/system_XMC4500.c ****     {
 404:../Startup/system_XMC4500.c ****       /* check SCU_MIRRSTS to ensure that no transfer over serial interface is pending */
 405:../Startup/system_XMC4500.c ****     }
 406:../Startup/system_XMC4500.c ****     SCU_HIBERNATE->HDCR |= SCU_HIBERNATE_HDCR_ULPWDGEN_Msk;
 407:../Startup/system_XMC4500.c **** 
 408:../Startup/system_XMC4500.c ****     /* wait till clock is stable */
 409:../Startup/system_XMC4500.c ****     do
 410:../Startup/system_XMC4500.c ****     {
 411:../Startup/system_XMC4500.c ****       while (SCU_GENERAL->MIRRSTS & SCU_GENERAL_MIRRSTS_HDCLR_Msk)
 412:../Startup/system_XMC4500.c ****       {
 413:../Startup/system_XMC4500.c ****         /* check SCU_MIRRSTS to ensure that no transfer over serial interface is pending */
 414:../Startup/system_XMC4500.c ****       }
 415:../Startup/system_XMC4500.c ****       SCU_HIBERNATE->HDCLR |= SCU_HIBERNATE_HDCLR_ULPWDG_Msk;
 416:../Startup/system_XMC4500.c **** 
 417:../Startup/system_XMC4500.c ****       delay(DELAY_CNT_50US_50MHZ);
 418:../Startup/system_XMC4500.c **** 
 419:../Startup/system_XMC4500.c ****     } while ((SCU_HIBERNATE->HDSTAT & SCU_HIBERNATE_HDSTAT_ULPWDG_Msk) != 0UL);
 420:../Startup/system_XMC4500.c **** 
 421:../Startup/system_XMC4500.c ****   }
 422:../Startup/system_XMC4500.c **** 
 423:../Startup/system_XMC4500.c ****   /* now OSC_ULP is running and can be used*/
 424:../Startup/system_XMC4500.c ****   /* Select OSC_ULP as the clock source for RTC and STDBY*/
 425:../Startup/system_XMC4500.c ****   while (SCU_GENERAL->MIRRSTS & SCU_GENERAL_MIRRSTS_HDCR_Msk)
 426:../Startup/system_XMC4500.c ****   {
 427:../Startup/system_XMC4500.c ****     /* check SCU_MIRRSTS to ensure that no transfer over serial interface is pending */
 428:../Startup/system_XMC4500.c ****   }
 429:../Startup/system_XMC4500.c ****   SCU_HIBERNATE->HDCR |= SCU_HIBERNATE_HDCR_RCS_Msk | SCU_HIBERNATE_HDCR_STDBYSEL_Msk;
 430:../Startup/system_XMC4500.c **** 
 431:../Startup/system_XMC4500.c **** #endif /* STDBY_CLOCK_SRC == STDBY_CLOCK_SRC_OSCULP */
 432:../Startup/system_XMC4500.c **** 
 433:../Startup/system_XMC4500.c ****   /* Enable automatic calibration of internal fast oscillator */
 434:../Startup/system_XMC4500.c ****   SCU_PLL->PLLCON0 |= SCU_PLL_PLLCON0_AOTREN_Msk;
 300              	 .loc 1 434 0
 301 004a 664A     	 ldr r2,.L21+8
 302 004c 654B     	 ldr r3,.L21+8
 303 004e 5B68     	 ldr r3,[r3,#4]
 304 0050 43F40023 	 orr r3,r3,#524288
 305 0054 5360     	 str r3,[r2,#4]
 435:../Startup/system_XMC4500.c **** #endif /* FOFI_CALIBRATION_MODE == FOFI_CALIBRATION_MODE_AUTOMATIC */
 436:../Startup/system_XMC4500.c **** 
 437:../Startup/system_XMC4500.c ****   delay(DELAY_CNT_50US_50MHZ);
 306              	 .loc 1 437 0
 307 0056 40F6C410 	 movw r0,#2500
 308 005a FFF7FEFF 	 bl delay
 438:../Startup/system_XMC4500.c **** 
 439:../Startup/system_XMC4500.c **** #if ENABLE_PLL
 440:../Startup/system_XMC4500.c **** 
 441:../Startup/system_XMC4500.c ****   /* enable PLL */
 442:../Startup/system_XMC4500.c ****   SCU_PLL->PLLCON0 &= ~(SCU_PLL_PLLCON0_VCOPWD_Msk | SCU_PLL_PLLCON0_PLLPWD_Msk);
 309              	 .loc 1 442 0
 310 005e 614A     	 ldr r2,.L21+8
 311 0060 604B     	 ldr r3,.L21+8
 312 0062 5B68     	 ldr r3,[r3,#4]
 313 0064 23F48033 	 bic r3,r3,#65536
 314 0068 23F00203 	 bic r3,r3,#2
 315 006c 5360     	 str r3,[r2,#4]
 443:../Startup/system_XMC4500.c **** 
 444:../Startup/system_XMC4500.c **** #if PLL_CLOCK_SRC != PLL_CLOCK_SRC_OFI
 445:../Startup/system_XMC4500.c ****   /* enable OSC_HP */
 446:../Startup/system_XMC4500.c ****   if ((SCU_OSC->OSCHPCTRL & SCU_OSC_OSCHPCTRL_MODE_Msk) != 0U)
 316              	 .loc 1 446 0
 317 006e 5E4B     	 ldr r3,.L21+12
 318 0070 5B68     	 ldr r3,[r3,#4]
 319 0072 03F03003 	 and r3,r3,#48
 320 0076 002B     	 cmp r3,#0
 321 0078 29D0     	 beq .L14
 447:../Startup/system_XMC4500.c ****   {
 448:../Startup/system_XMC4500.c ****     SCU_OSC->OSCHPCTRL &= ~(SCU_OSC_OSCHPCTRL_MODE_Msk | SCU_OSC_OSCHPCTRL_OSCVAL_Msk);
 322              	 .loc 1 448 0
 323 007a 5B4A     	 ldr r2,.L21+12
 324 007c 5A4B     	 ldr r3,.L21+12
 325 007e 5B68     	 ldr r3,[r3,#4]
 326 0080 23F47023 	 bic r3,r3,#983040
 327 0084 23F03003 	 bic r3,r3,#48
 328 0088 5360     	 str r3,[r2,#4]
 449:../Startup/system_XMC4500.c ****     SCU_OSC->OSCHPCTRL |= ((OSCHP_GetFrequency() / FOSCREF) - 1UL) << SCU_OSC_OSCHPCTRL_OSCVAL_Pos;
 329              	 .loc 1 449 0
 330 008a FFF7FEFF 	 bl OSCHP_GetFrequency
 331 008e 0246     	 mov r2,r0
 332 0090 564B     	 ldr r3,.L21+16
 333 0092 A3FB0223 	 umull r2,r3,r3,r2
 334 0096 1B0D     	 lsrs r3,r3,#20
 335 0098 013B     	 subs r3,r3,#1
 336 009a 1B04     	 lsls r3,r3,#16
 337 009c 5249     	 ldr r1,.L21+12
 338 009e 524A     	 ldr r2,.L21+12
 339 00a0 5268     	 ldr r2,[r2,#4]
 340 00a2 1343     	 orrs r3,r3,r2
 341 00a4 4B60     	 str r3,[r1,#4]
 450:../Startup/system_XMC4500.c **** 
 451:../Startup/system_XMC4500.c ****     /* select OSC_HP clock as PLL input */
 452:../Startup/system_XMC4500.c ****     SCU_PLL->PLLCON2 &= ~SCU_PLL_PLLCON2_PINSEL_Msk;
 342              	 .loc 1 452 0
 343 00a6 4F4A     	 ldr r2,.L21+8
 344 00a8 4E4B     	 ldr r3,.L21+8
 345 00aa DB68     	 ldr r3,[r3,#12]
 346 00ac 23F00103 	 bic r3,r3,#1
 347 00b0 D360     	 str r3,[r2,#12]
 453:../Startup/system_XMC4500.c **** 
 454:../Startup/system_XMC4500.c ****     /* restart OSC Watchdog */
 455:../Startup/system_XMC4500.c ****     SCU_PLL->PLLCON0 &= ~SCU_PLL_PLLCON0_OSCRES_Msk;
 348              	 .loc 1 455 0
 349 00b2 4C4A     	 ldr r2,.L21+8
 350 00b4 4B4B     	 ldr r3,.L21+8
 351 00b6 5B68     	 ldr r3,[r3,#4]
 352 00b8 23F40033 	 bic r3,r3,#131072
 353 00bc 5360     	 str r3,[r2,#4]
 456:../Startup/system_XMC4500.c **** 
 457:../Startup/system_XMC4500.c ****     while ((SCU_PLL->PLLSTAT & SCU_PLL_PLLSTAT_OSC_USABLE) != SCU_PLL_PLLSTAT_OSC_USABLE)
 354              	 .loc 1 457 0
 355 00be 00BF     	 nop
 356              	.L15:
 357              	 .loc 1 457 0 is_stmt 0 discriminator 1
 358 00c0 484B     	 ldr r3,.L21+8
 359 00c2 1B68     	 ldr r3,[r3]
 360 00c4 03F46073 	 and r3,r3,#896
 361 00c8 B3F5607F 	 cmp r3,#896
 362 00cc F8D1     	 bne .L15
 363              	.L14:
 458:../Startup/system_XMC4500.c ****     {
 459:../Startup/system_XMC4500.c ****       /* wait till OSC_HP output frequency is usable */
 460:../Startup/system_XMC4500.c ****     }
 461:../Startup/system_XMC4500.c ****   }
 462:../Startup/system_XMC4500.c **** #else /* PLL_CLOCK_SRC != PLL_CLOCK_SRC_OFI */
 463:../Startup/system_XMC4500.c **** 
 464:../Startup/system_XMC4500.c ****   /* select backup clock as PLL input */
 465:../Startup/system_XMC4500.c ****   SCU_PLL->PLLCON2 |= SCU_PLL_PLLCON2_PINSEL_Msk;
 466:../Startup/system_XMC4500.c **** #endif
 467:../Startup/system_XMC4500.c **** 
 468:../Startup/system_XMC4500.c ****   /* Go to bypass the Main PLL */
 469:../Startup/system_XMC4500.c ****   SCU_PLL->PLLCON0 |= SCU_PLL_PLLCON0_VCOBYP_Msk;
 364              	 .loc 1 469 0 is_stmt 1
 365 00ce 454A     	 ldr r2,.L21+8
 366 00d0 444B     	 ldr r3,.L21+8
 367 00d2 5B68     	 ldr r3,[r3,#4]
 368 00d4 43F00103 	 orr r3,r3,#1
 369 00d8 5360     	 str r3,[r2,#4]
 470:../Startup/system_XMC4500.c **** 
 471:../Startup/system_XMC4500.c ****   /* disconnect Oscillator from PLL */
 472:../Startup/system_XMC4500.c ****   SCU_PLL->PLLCON0 |= SCU_PLL_PLLCON0_FINDIS_Msk;
 370              	 .loc 1 472 0
 371 00da 424A     	 ldr r2,.L21+8
 372 00dc 414B     	 ldr r3,.L21+8
 373 00de 5B68     	 ldr r3,[r3,#4]
 374 00e0 43F01003 	 orr r3,r3,#16
 375 00e4 5360     	 str r3,[r2,#4]
 473:../Startup/system_XMC4500.c **** 
 474:../Startup/system_XMC4500.c ****   /* Setup divider settings for main PLL */
 475:../Startup/system_XMC4500.c ****   SCU_PLL->PLLCON1 = ((PLL_NDIV << SCU_PLL_PLLCON1_NDIV_Pos) |
 376              	 .loc 1 475 0
 377 00e6 3F4B     	 ldr r3,.L21+8
 378 00e8 414A     	 ldr r2,.L21+20
 379 00ea 9A60     	 str r2,[r3,#8]
 476:../Startup/system_XMC4500.c ****                       (PLL_K2DIV_0 << SCU_PLL_PLLCON1_K2DIV_Pos) |
 477:../Startup/system_XMC4500.c ****                       (PLL_PDIV << SCU_PLL_PLLCON1_PDIV_Pos));
 478:../Startup/system_XMC4500.c **** 
 479:../Startup/system_XMC4500.c ****   /* Set OSCDISCDIS */
 480:../Startup/system_XMC4500.c ****   SCU_PLL->PLLCON0 |= SCU_PLL_PLLCON0_OSCDISCDIS_Msk;
 380              	 .loc 1 480 0
 381 00ec 3D4A     	 ldr r2,.L21+8
 382 00ee 3D4B     	 ldr r3,.L21+8
 383 00f0 5B68     	 ldr r3,[r3,#4]
 384 00f2 43F04003 	 orr r3,r3,#64
 385 00f6 5360     	 str r3,[r2,#4]
 481:../Startup/system_XMC4500.c **** 
 482:../Startup/system_XMC4500.c ****   /* connect Oscillator to PLL */
 483:../Startup/system_XMC4500.c ****   SCU_PLL->PLLCON0 &= ~SCU_PLL_PLLCON0_FINDIS_Msk;
 386              	 .loc 1 483 0
 387 00f8 3A4A     	 ldr r2,.L21+8
 388 00fa 3A4B     	 ldr r3,.L21+8
 389 00fc 5B68     	 ldr r3,[r3,#4]
 390 00fe 23F01003 	 bic r3,r3,#16
 391 0102 5360     	 str r3,[r2,#4]
 484:../Startup/system_XMC4500.c **** 
 485:../Startup/system_XMC4500.c ****   /* restart PLL Lock detection */
 486:../Startup/system_XMC4500.c ****   SCU_PLL->PLLCON0 |= SCU_PLL_PLLCON0_RESLD_Msk;
 392              	 .loc 1 486 0
 393 0104 374A     	 ldr r2,.L21+8
 394 0106 374B     	 ldr r3,.L21+8
 395 0108 5B68     	 ldr r3,[r3,#4]
 396 010a 43F48023 	 orr r3,r3,#262144
 397 010e 5360     	 str r3,[r2,#4]
 487:../Startup/system_XMC4500.c **** 
 488:../Startup/system_XMC4500.c ****   while ((SCU_PLL->PLLSTAT & SCU_PLL_PLLSTAT_VCOLOCK_Msk) == 0U)
 398              	 .loc 1 488 0
 399 0110 00BF     	 nop
 400              	.L16:
 401              	 .loc 1 488 0 is_stmt 0 discriminator 1
 402 0112 344B     	 ldr r3,.L21+8
 403 0114 1B68     	 ldr r3,[r3]
 404 0116 03F00403 	 and r3,r3,#4
 405 011a 002B     	 cmp r3,#0
 406 011c F9D0     	 beq .L16
 489:../Startup/system_XMC4500.c ****   {
 490:../Startup/system_XMC4500.c ****     /* wait for PLL Lock */
 491:../Startup/system_XMC4500.c ****   }
 492:../Startup/system_XMC4500.c **** 
 493:../Startup/system_XMC4500.c ****   /* Disable bypass- put PLL clock back */
 494:../Startup/system_XMC4500.c ****   SCU_PLL->PLLCON0 &= ~SCU_PLL_PLLCON0_VCOBYP_Msk;
 407              	 .loc 1 494 0 is_stmt 1
 408 011e 314A     	 ldr r2,.L21+8
 409 0120 304B     	 ldr r3,.L21+8
 410 0122 5B68     	 ldr r3,[r3,#4]
 411 0124 23F00103 	 bic r3,r3,#1
 412 0128 5360     	 str r3,[r2,#4]
 495:../Startup/system_XMC4500.c ****   while ((SCU_PLL->PLLSTAT & SCU_PLL_PLLSTAT_VCOBYST_Msk) != 0U)
 413              	 .loc 1 495 0
 414 012a 00BF     	 nop
 415              	.L17:
 416              	 .loc 1 495 0 is_stmt 0 discriminator 1
 417 012c 2D4B     	 ldr r3,.L21+8
 418 012e 1B68     	 ldr r3,[r3]
 419 0130 03F00103 	 and r3,r3,#1
 420 0134 002B     	 cmp r3,#0
 421 0136 F9D1     	 bne .L17
 496:../Startup/system_XMC4500.c ****   {
 497:../Startup/system_XMC4500.c ****     /* wait for normal mode */
 498:../Startup/system_XMC4500.c ****   }
 499:../Startup/system_XMC4500.c **** #endif /* ENABLE_PLL */
 500:../Startup/system_XMC4500.c **** 
 501:../Startup/system_XMC4500.c **** #if (SYS_CLOCK_SRC == SYS_CLOCK_SRC_PLL)
 502:../Startup/system_XMC4500.c ****   /* Switch system clock to PLL */
 503:../Startup/system_XMC4500.c ****   SCU_CLK->SYSCLKCR |= SCU_CLK_SYSCLKCR_SYSSEL_Msk;
 422              	 .loc 1 503 0 is_stmt 1
 423 0138 2E4A     	 ldr r2,.L21+24
 424 013a 2E4B     	 ldr r3,.L21+24
 425 013c DB68     	 ldr r3,[r3,#12]
 426 013e 43F48033 	 orr r3,r3,#65536
 427 0142 D360     	 str r3,[r2,#12]
 504:../Startup/system_XMC4500.c **** #else
 505:../Startup/system_XMC4500.c ****   /* Switch system clock to backup clock */
 506:../Startup/system_XMC4500.c ****   SCU_CLK->SYSCLKCR &= ~SCU_CLK_SYSCLKCR_SYSSEL_Msk;
 507:../Startup/system_XMC4500.c **** #endif
 508:../Startup/system_XMC4500.c **** 
 509:../Startup/system_XMC4500.c ****   /* Before scaling to final frequency we need to setup the clock dividers */
 510:../Startup/system_XMC4500.c ****   SCU_CLK->PBCLKCR = PBCLKDIV;
 428              	 .loc 1 510 0
 429 0144 2B4B     	 ldr r3,.L21+24
 430 0146 0022     	 movs r2,#0
 431 0148 5A61     	 str r2,[r3,#20]
 511:../Startup/system_XMC4500.c ****   SCU_CLK->CPUCLKCR = CPUCLKDIV;
 432              	 .loc 1 511 0
 433 014a 2A4B     	 ldr r3,.L21+24
 434 014c 0022     	 movs r2,#0
 435 014e 1A61     	 str r2,[r3,#16]
 512:../Startup/system_XMC4500.c ****   SCU_CLK->CCUCLKCR = CCUCLKDIV;
 436              	 .loc 1 512 0
 437 0150 284B     	 ldr r3,.L21+24
 438 0152 0022     	 movs r2,#0
 439 0154 1A62     	 str r2,[r3,#32]
 513:../Startup/system_XMC4500.c ****   SCU_CLK->WDTCLKCR = WDTCLKDIV;
 440              	 .loc 1 513 0
 441 0156 274B     	 ldr r3,.L21+24
 442 0158 0022     	 movs r2,#0
 443 015a 5A62     	 str r2,[r3,#36]
 514:../Startup/system_XMC4500.c ****   SCU_CLK->EBUCLKCR = EBUCLKDIV;
 444              	 .loc 1 514 0
 445 015c 254B     	 ldr r3,.L21+24
 446 015e 0022     	 movs r2,#0
 447 0160 DA61     	 str r2,[r3,#28]
 515:../Startup/system_XMC4500.c ****   SCU_CLK->USBCLKCR = USBCLKDIV;
 448              	 .loc 1 515 0
 449 0162 244B     	 ldr r3,.L21+24
 450 0164 0322     	 movs r2,#3
 451 0166 9A61     	 str r2,[r3,#24]
 516:../Startup/system_XMC4500.c **** 
 517:../Startup/system_XMC4500.c **** #if ENABLE_PLL
 518:../Startup/system_XMC4500.c ****   /* PLL frequency stepping...*/
 519:../Startup/system_XMC4500.c ****   /* Reset OSCDISCDIS */
 520:../Startup/system_XMC4500.c ****   SCU_PLL->PLLCON0 &= ~SCU_PLL_PLLCON0_OSCDISCDIS_Msk;
 452              	 .loc 1 520 0
 453 0168 1E4A     	 ldr r2,.L21+8
 454 016a 1E4B     	 ldr r3,.L21+8
 455 016c 5B68     	 ldr r3,[r3,#4]
 456 016e 23F04003 	 bic r3,r3,#64
 457 0172 5360     	 str r3,[r2,#4]
 521:../Startup/system_XMC4500.c **** 
 522:../Startup/system_XMC4500.c ****   SCU_PLL->PLLCON1 = ((PLL_NDIV << SCU_PLL_PLLCON1_NDIV_Pos) |
 458              	 .loc 1 522 0
 459 0174 1B4B     	 ldr r3,.L21+8
 460 0176 204A     	 ldr r2,.L21+28
 461 0178 9A60     	 str r2,[r3,#8]
 523:../Startup/system_XMC4500.c **** 	                    (PLL_K2DIV_1 << SCU_PLL_PLLCON1_K2DIV_Pos) |
 524:../Startup/system_XMC4500.c **** 	                    (PLL_PDIV << SCU_PLL_PLLCON1_PDIV_Pos));
 525:../Startup/system_XMC4500.c **** 
 526:../Startup/system_XMC4500.c **** 
 527:../Startup/system_XMC4500.c ****   delay(DELAY_CNT_50US_60MHZ);
 462              	 .loc 1 527 0
 463 017a 40F6B830 	 movw r0,#3000
 464 017e FFF7FEFF 	 bl delay
 528:../Startup/system_XMC4500.c ****   while ((SCU_PLL->PLLSTAT & SCU_PLL_PLLSTAT_VCOLOCK_Msk) == 0U)
 465              	 .loc 1 528 0
 466 0182 00BF     	 nop
 467              	.L18:
 468              	 .loc 1 528 0 is_stmt 0 discriminator 1
 469 0184 174B     	 ldr r3,.L21+8
 470 0186 1B68     	 ldr r3,[r3]
 471 0188 03F00403 	 and r3,r3,#4
 472 018c 002B     	 cmp r3,#0
 473 018e F9D0     	 beq .L18
 529:../Startup/system_XMC4500.c ****   {
 530:../Startup/system_XMC4500.c ****     /* wait for PLL Lock */
 531:../Startup/system_XMC4500.c ****   }
 532:../Startup/system_XMC4500.c **** 
 533:../Startup/system_XMC4500.c ****   SCU_PLL->PLLCON1 = ((PLL_NDIV << SCU_PLL_PLLCON1_NDIV_Pos) |
 474              	 .loc 1 533 0 is_stmt 1
 475 0190 144B     	 ldr r3,.L21+8
 476 0192 1A4A     	 ldr r2,.L21+32
 477 0194 9A60     	 str r2,[r3,#8]
 534:../Startup/system_XMC4500.c **** 	                    (PLL_K2DIV_2 << SCU_PLL_PLLCON1_K2DIV_Pos) |
 535:../Startup/system_XMC4500.c **** 	                    (PLL_PDIV << SCU_PLL_PLLCON1_PDIV_Pos));
 536:../Startup/system_XMC4500.c **** 
 537:../Startup/system_XMC4500.c **** 
 538:../Startup/system_XMC4500.c ****   delay(DELAY_CNT_50US_90MHZ);
 478              	 .loc 1 538 0
 479 0196 41F29410 	 movw r0,#4500
 480 019a FFF7FEFF 	 bl delay
 539:../Startup/system_XMC4500.c ****   while ((SCU_PLL->PLLSTAT & SCU_PLL_PLLSTAT_VCOLOCK_Msk) == 0U)
 481              	 .loc 1 539 0
 482 019e 00BF     	 nop
 483              	.L19:
 484              	 .loc 1 539 0 is_stmt 0 discriminator 1
 485 01a0 104B     	 ldr r3,.L21+8
 486 01a2 1B68     	 ldr r3,[r3]
 487 01a4 03F00403 	 and r3,r3,#4
 488 01a8 002B     	 cmp r3,#0
 489 01aa F9D0     	 beq .L19
 540:../Startup/system_XMC4500.c ****   {
 541:../Startup/system_XMC4500.c ****     /* wait for PLL Lock */
 542:../Startup/system_XMC4500.c ****   }
 543:../Startup/system_XMC4500.c **** 
 544:../Startup/system_XMC4500.c ****   SCU_PLL->PLLCON1 = ((PLL_NDIV << SCU_PLL_PLLCON1_NDIV_Pos) |
 490              	 .loc 1 544 0 is_stmt 1
 491 01ac 0D4B     	 ldr r3,.L21+8
 492 01ae 144A     	 ldr r2,.L21+36
 493 01b0 9A60     	 str r2,[r3,#8]
 545:../Startup/system_XMC4500.c **** 	                    (PLL_K2DIV << SCU_PLL_PLLCON1_K2DIV_Pos) |
 546:../Startup/system_XMC4500.c **** 	                    (PLL_PDIV << SCU_PLL_PLLCON1_PDIV_Pos));
 547:../Startup/system_XMC4500.c **** 
 548:../Startup/system_XMC4500.c **** 
 549:../Startup/system_XMC4500.c ****   delay(DELAY_CNT_50US_120MHZ);
 494              	 .loc 1 549 0
 495 01b2 41F27070 	 movw r0,#6000
 496 01b6 FFF7FEFF 	 bl delay
 550:../Startup/system_XMC4500.c ****   while ((SCU_PLL->PLLSTAT & SCU_PLL_PLLSTAT_VCOLOCK_Msk) == 0U)
 497              	 .loc 1 550 0
 498 01ba 00BF     	 nop
 499              	.L20:
 500              	 .loc 1 550 0 is_stmt 0 discriminator 1
 501 01bc 094B     	 ldr r3,.L21+8
 502 01be 1B68     	 ldr r3,[r3]
 503 01c0 03F00403 	 and r3,r3,#4
 504 01c4 002B     	 cmp r3,#0
 505 01c6 F9D0     	 beq .L20
 551:../Startup/system_XMC4500.c ****   {
 552:../Startup/system_XMC4500.c ****     /* wait for PLL Lock */
 553:../Startup/system_XMC4500.c ****   }
 554:../Startup/system_XMC4500.c **** 
 555:../Startup/system_XMC4500.c ****   SCU_TRAP->TRAPCLR = SCU_TRAP_TRAPCLR_SOSCWDGT_Msk | SCU_TRAP_TRAPCLR_SVCOLCKT_Msk;
 506              	 .loc 1 555 0 is_stmt 1
 507 01c8 0E4B     	 ldr r3,.L21+40
 508 01ca 0522     	 movs r2,#5
 509 01cc DA60     	 str r2,[r3,#12]
 556:../Startup/system_XMC4500.c **** #endif /* ENABLE_PLL */
 557:../Startup/system_XMC4500.c **** 
 558:../Startup/system_XMC4500.c **** #if ENABLE_USBPLL
 559:../Startup/system_XMC4500.c ****   /* enable USB PLL first */
 560:../Startup/system_XMC4500.c ****   SCU_PLL->USBPLLCON &= ~(SCU_PLL_USBPLLCON_VCOPWD_Msk | SCU_PLL_USBPLLCON_PLLPWD_Msk);
 561:../Startup/system_XMC4500.c **** 
 562:../Startup/system_XMC4500.c ****   /* USB PLL uses as clock input the OSC_HP */
 563:../Startup/system_XMC4500.c ****   /* check and if not already running enable OSC_HP */
 564:../Startup/system_XMC4500.c ****   if ((SCU_OSC->OSCHPCTRL & SCU_OSC_OSCHPCTRL_MODE_Msk) != 0U)
 565:../Startup/system_XMC4500.c ****   {
 566:../Startup/system_XMC4500.c ****     /* check if Main PLL is switched on for OSC WDG*/
 567:../Startup/system_XMC4500.c ****     if ((SCU_PLL->PLLCON0 &(SCU_PLL_PLLCON0_VCOPWD_Msk | SCU_PLL_PLLCON0_PLLPWD_Msk)) != 0UL)
 568:../Startup/system_XMC4500.c ****     {
 569:../Startup/system_XMC4500.c ****       /* enable PLL first */
 570:../Startup/system_XMC4500.c ****       SCU_PLL->PLLCON0 &= ~(SCU_PLL_PLLCON0_VCOPWD_Msk | SCU_PLL_PLLCON0_PLLPWD_Msk);
 571:../Startup/system_XMC4500.c ****     }
 572:../Startup/system_XMC4500.c **** 
 573:../Startup/system_XMC4500.c ****     SCU_OSC->OSCHPCTRL &= ~(SCU_OSC_OSCHPCTRL_MODE_Msk | SCU_OSC_OSCHPCTRL_OSCVAL_Msk);
 574:../Startup/system_XMC4500.c ****     SCU_OSC->OSCHPCTRL |= ((OSCHP_GetFrequency() / FOSCREF) - 1UL) << SCU_OSC_OSCHPCTRL_OSCVAL_Pos;
 575:../Startup/system_XMC4500.c **** 
 576:../Startup/system_XMC4500.c ****     /* restart OSC Watchdog */
 577:../Startup/system_XMC4500.c ****     SCU_PLL->PLLCON0 &= ~SCU_PLL_PLLCON0_OSCRES_Msk;
 578:../Startup/system_XMC4500.c **** 
 579:../Startup/system_XMC4500.c ****     while ((SCU_PLL->PLLSTAT & SCU_PLL_PLLSTAT_OSC_USABLE) != SCU_PLL_PLLSTAT_OSC_USABLE)
 580:../Startup/system_XMC4500.c ****     {
 581:../Startup/system_XMC4500.c ****       /* wait till OSC_HP output frequency is usable */
 582:../Startup/system_XMC4500.c ****     }
 583:../Startup/system_XMC4500.c ****   }
 584:../Startup/system_XMC4500.c **** 
 585:../Startup/system_XMC4500.c ****   /* Setup USB PLL */
 586:../Startup/system_XMC4500.c ****   /* Go to bypass the USB PLL */
 587:../Startup/system_XMC4500.c ****   SCU_PLL->USBPLLCON |= SCU_PLL_USBPLLCON_VCOBYP_Msk;
 588:../Startup/system_XMC4500.c **** 
 589:../Startup/system_XMC4500.c ****   /* disconnect Oscillator from USB PLL */
 590:../Startup/system_XMC4500.c ****   SCU_PLL->USBPLLCON |= SCU_PLL_USBPLLCON_FINDIS_Msk;
 591:../Startup/system_XMC4500.c **** 
 592:../Startup/system_XMC4500.c ****   /* Setup Divider settings for USB PLL */
 593:../Startup/system_XMC4500.c ****   SCU_PLL->USBPLLCON = ((USB_NDIV << SCU_PLL_USBPLLCON_NDIV_Pos) |
 594:../Startup/system_XMC4500.c ****                         (USB_PDIV << SCU_PLL_USBPLLCON_PDIV_Pos));
 595:../Startup/system_XMC4500.c **** 
 596:../Startup/system_XMC4500.c ****   /* Set OSCDISCDIS */
 597:../Startup/system_XMC4500.c ****   SCU_PLL->USBPLLCON |= SCU_PLL_USBPLLCON_OSCDISCDIS_Msk;
 598:../Startup/system_XMC4500.c **** 
 599:../Startup/system_XMC4500.c ****   /* connect Oscillator to USB PLL */
 600:../Startup/system_XMC4500.c ****   SCU_PLL->USBPLLCON &= ~SCU_PLL_USBPLLCON_FINDIS_Msk;
 601:../Startup/system_XMC4500.c **** 
 602:../Startup/system_XMC4500.c ****   /* restart PLL Lock detection */
 603:../Startup/system_XMC4500.c ****   SCU_PLL->USBPLLCON |= SCU_PLL_USBPLLCON_RESLD_Msk;
 604:../Startup/system_XMC4500.c **** 
 605:../Startup/system_XMC4500.c ****   while ((SCU_PLL->USBPLLSTAT & SCU_PLL_USBPLLSTAT_VCOLOCK_Msk) == 0U)
 606:../Startup/system_XMC4500.c ****   {
 607:../Startup/system_XMC4500.c ****     /* wait for PLL Lock */
 608:../Startup/system_XMC4500.c ****   }
 609:../Startup/system_XMC4500.c **** #endif /* (USBCLKDIV & SCU_CLK_USBCLKCR_USBSEL_Msk) */
 610:../Startup/system_XMC4500.c **** 
 611:../Startup/system_XMC4500.c ****   /* Enable selected clocks */
 612:../Startup/system_XMC4500.c ****   SCU_CLK->CLKSET = ENABLE_SCUCLK;
 510              	 .loc 1 612 0
 511 01ce 094B     	 ldr r3,.L21+24
 512 01d0 0022     	 movs r2,#0
 513 01d2 5A60     	 str r2,[r3,#4]
 613:../Startup/system_XMC4500.c **** 
 614:../Startup/system_XMC4500.c **** #if ENABLE_EXTCLK == 1
 615:../Startup/system_XMC4500.c ****   /* Configure external clock */
 616:../Startup/system_XMC4500.c ****   SCU_CLK->EXTCLKCR = EXTCLKDIV;
 617:../Startup/system_XMC4500.c **** 
 618:../Startup/system_XMC4500.c **** #if EXTCLK_PIN == EXTCLK_PIN_P1_15
 619:../Startup/system_XMC4500.c ****   /* P1.15 */
 620:../Startup/system_XMC4500.c ****   PORT1->PDR1 &= ~PORT1_PDR1_PD15_Msk;
 621:../Startup/system_XMC4500.c ****   PORT1->IOCR12 = (PORT1->IOCR12 & ~PORT0_IOCR12_PC15_Msk) | (0x11U << PORT0_IOCR12_PC15_Pos);
 622:../Startup/system_XMC4500.c **** #else
 623:../Startup/system_XMC4500.c ****   /* P0.8 */
 624:../Startup/system_XMC4500.c ****   PORT0->HWSEL &= ~PORT0_HWSEL_HW8_Msk;
 625:../Startup/system_XMC4500.c ****   PORT0->PDR1 &= ~PORT0_PDR1_PD8_Msk;
 626:../Startup/system_XMC4500.c ****   PORT0->IOCR8 = (PORT0->IOCR8 & ~PORT0_IOCR8_PC8_Msk) | (0x11U << PORT0_IOCR8_PC8_Pos);
 627:../Startup/system_XMC4500.c **** #endif
 628:../Startup/system_XMC4500.c **** 
 629:../Startup/system_XMC4500.c **** #endif  /* ENABLE_EXTCLK == 1  */
 630:../Startup/system_XMC4500.c **** 
 631:../Startup/system_XMC4500.c ****   SystemCoreClockUpdate();
 514              	 .loc 1 631 0
 515 01d4 FFF7FEFF 	 bl SystemCoreClockUpdate
 632:../Startup/system_XMC4500.c **** }
 516              	 .loc 1 632 0
 517 01d8 80BD     	 pop {r7,pc}
 518              	.L22:
 519 01da 00BF     	 .align 2
 520              	.L21:
 521 01dc 00420050 	 .word 1342194176
 522 01e0 00440050 	 .word 1342194688
 523 01e4 10470050 	 .word 1342195472
 524 01e8 00470050 	 .word 1342195456
 525 01ec 6BCA5F6B 	 .word 1801439851
 526 01f0 004F1301 	 .word 18042624
 527 01f4 00460050 	 .word 1342195200
 528 01f8 004F0701 	 .word 17256192
 529 01fc 004F0401 	 .word 17059584
 530 0200 004F0301 	 .word 16994048
 531 0204 60410050 	 .word 1342194016
 532              	 .cfi_endproc
 533              	.LFE133:
 535              	 .section .text.SystemCoreClockUpdate,"ax",%progbits
 536              	 .align 2
 537              	 .weak SystemCoreClockUpdate
 538              	 .thumb
 539              	 .thumb_func
 541              	SystemCoreClockUpdate:
 542              	.LFB134:
 633:../Startup/system_XMC4500.c **** 
 634:../Startup/system_XMC4500.c **** __WEAK void SystemCoreClockUpdate(void)
 635:../Startup/system_XMC4500.c **** {
 543              	 .loc 1 635 0
 544              	 .cfi_startproc
 545              	 
 546              	 
 547 0000 80B5     	 push {r7,lr}
 548              	.LCFI16:
 549              	 .cfi_def_cfa_offset 8
 550              	 .cfi_offset 7,-8
 551              	 .cfi_offset 14,-4
 552 0002 84B0     	 sub sp,sp,#16
 553              	.LCFI17:
 554              	 .cfi_def_cfa_offset 24
 555 0004 00AF     	 add r7,sp,#0
 556              	.LCFI18:
 557              	 .cfi_def_cfa_register 7
 636:../Startup/system_XMC4500.c ****   uint32_t pdiv;
 637:../Startup/system_XMC4500.c ****   uint32_t ndiv;
 638:../Startup/system_XMC4500.c ****   uint32_t kdiv;
 639:../Startup/system_XMC4500.c ****   uint32_t temp;
 640:../Startup/system_XMC4500.c **** 
 641:../Startup/system_XMC4500.c ****   if (SCU_CLK->SYSCLKCR & SCU_CLK_SYSCLKCR_SYSSEL_Msk)
 558              	 .loc 1 641 0
 559 0006 2F4B     	 ldr r3,.L30
 560 0008 DB68     	 ldr r3,[r3,#12]
 561 000a 03F48033 	 and r3,r3,#65536
 562 000e 002B     	 cmp r3,#0
 563 0010 3ED0     	 beq .L24
 642:../Startup/system_XMC4500.c ****   {
 643:../Startup/system_XMC4500.c ****     /* fPLL is clock source for fSYS */
 644:../Startup/system_XMC4500.c ****     if(SCU_PLL->PLLCON2 & SCU_PLL_PLLCON2_PINSEL_Msk)
 564              	 .loc 1 644 0
 565 0012 2D4B     	 ldr r3,.L30+4
 566 0014 DB68     	 ldr r3,[r3,#12]
 567 0016 03F00103 	 and r3,r3,#1
 568 001a 002B     	 cmp r3,#0
 569 001c 02D0     	 beq .L25
 645:../Startup/system_XMC4500.c ****     {
 646:../Startup/system_XMC4500.c ****       /* PLL input clock is the backup clock (fOFI) */
 647:../Startup/system_XMC4500.c ****       temp = OFI_FREQUENCY;
 570              	 .loc 1 647 0
 571 001e 2B4B     	 ldr r3,.L30+8
 572 0020 FB60     	 str r3,[r7,#12]
 573 0022 02E0     	 b .L26
 574              	.L25:
 648:../Startup/system_XMC4500.c ****     }
 649:../Startup/system_XMC4500.c ****     else
 650:../Startup/system_XMC4500.c ****     {
 651:../Startup/system_XMC4500.c ****       /* PLL input clock is the high performance osicllator (fOSCHP) */
 652:../Startup/system_XMC4500.c ****       temp = OSCHP_GetFrequency();
 575              	 .loc 1 652 0
 576 0024 FFF7FEFF 	 bl OSCHP_GetFrequency
 577 0028 F860     	 str r0,[r7,#12]
 578              	.L26:
 653:../Startup/system_XMC4500.c ****     }
 654:../Startup/system_XMC4500.c **** 
 655:../Startup/system_XMC4500.c ****     /* check if PLL is locked */
 656:../Startup/system_XMC4500.c ****     if (SCU_PLL->PLLSTAT & SCU_PLL_PLLSTAT_VCOLOCK_Msk)
 579              	 .loc 1 656 0
 580 002a 274B     	 ldr r3,.L30+4
 581 002c 1B68     	 ldr r3,[r3]
 582 002e 03F00403 	 and r3,r3,#4
 583 0032 002B     	 cmp r3,#0
 584 0034 20D0     	 beq .L27
 657:../Startup/system_XMC4500.c ****     {
 658:../Startup/system_XMC4500.c ****       /* PLL normal mode */
 659:../Startup/system_XMC4500.c ****       /* read back divider settings */
 660:../Startup/system_XMC4500.c ****       pdiv = ((SCU_PLL->PLLCON1 & SCU_PLL_PLLCON1_PDIV_Msk) >> SCU_PLL_PLLCON1_PDIV_Pos) + 1;
 585              	 .loc 1 660 0
 586 0036 244B     	 ldr r3,.L30+4
 587 0038 9B68     	 ldr r3,[r3,#8]
 588 003a 03F07063 	 and r3,r3,#251658240
 589 003e 1B0E     	 lsrs r3,r3,#24
 590 0040 0133     	 adds r3,r3,#1
 591 0042 BB60     	 str r3,[r7,#8]
 661:../Startup/system_XMC4500.c ****       ndiv = ((SCU_PLL->PLLCON1 & SCU_PLL_PLLCON1_NDIV_Msk) >> SCU_PLL_PLLCON1_NDIV_Pos) + 1;
 592              	 .loc 1 661 0
 593 0044 204B     	 ldr r3,.L30+4
 594 0046 9B68     	 ldr r3,[r3,#8]
 595 0048 03F4FE43 	 and r3,r3,#32512
 596 004c 1B0A     	 lsrs r3,r3,#8
 597 004e 0133     	 adds r3,r3,#1
 598 0050 7B60     	 str r3,[r7,#4]
 662:../Startup/system_XMC4500.c ****       kdiv = ((SCU_PLL->PLLCON1 & SCU_PLL_PLLCON1_K2DIV_Msk) >> SCU_PLL_PLLCON1_K2DIV_Pos) + 1;
 599              	 .loc 1 662 0
 600 0052 1D4B     	 ldr r3,.L30+4
 601 0054 9B68     	 ldr r3,[r3,#8]
 602 0056 03F4FE03 	 and r3,r3,#8323072
 603 005a 1B0C     	 lsrs r3,r3,#16
 604 005c 0133     	 adds r3,r3,#1
 605 005e 3B60     	 str r3,[r7]
 663:../Startup/system_XMC4500.c **** 
 664:../Startup/system_XMC4500.c ****       temp = (temp / (pdiv * kdiv)) * ndiv;
 606              	 .loc 1 664 0
 607 0060 BB68     	 ldr r3,[r7,#8]
 608 0062 3A68     	 ldr r2,[r7]
 609 0064 02FB03F3 	 mul r3,r2,r3
 610 0068 FA68     	 ldr r2,[r7,#12]
 611 006a B2FBF3F3 	 udiv r3,r2,r3
 612 006e 7A68     	 ldr r2,[r7,#4]
 613 0070 02FB03F3 	 mul r3,r2,r3
 614 0074 FB60     	 str r3,[r7,#12]
 615 0076 0DE0     	 b .L29
 616              	.L27:
 665:../Startup/system_XMC4500.c ****     }
 666:../Startup/system_XMC4500.c ****     else
 667:../Startup/system_XMC4500.c ****     {
 668:../Startup/system_XMC4500.c ****       /* PLL prescalar mode */
 669:../Startup/system_XMC4500.c ****       /* read back divider settings */
 670:../Startup/system_XMC4500.c ****       kdiv  = ((SCU_PLL->PLLCON1 & SCU_PLL_PLLCON1_K1DIV_Msk) >> SCU_PLL_PLLCON1_K1DIV_Pos) + 1;
 617              	 .loc 1 670 0
 618 0078 134B     	 ldr r3,.L30+4
 619 007a 9B68     	 ldr r3,[r3,#8]
 620 007c 03F07F03 	 and r3,r3,#127
 621 0080 0133     	 adds r3,r3,#1
 622 0082 3B60     	 str r3,[r7]
 671:../Startup/system_XMC4500.c ****       
 672:../Startup/system_XMC4500.c ****       temp = (temp / kdiv);
 623              	 .loc 1 672 0
 624 0084 FA68     	 ldr r2,[r7,#12]
 625 0086 3B68     	 ldr r3,[r7]
 626 0088 B2FBF3F3 	 udiv r3,r2,r3
 627 008c FB60     	 str r3,[r7,#12]
 628 008e 01E0     	 b .L29
 629              	.L24:
 673:../Startup/system_XMC4500.c ****     }
 674:../Startup/system_XMC4500.c ****   }
 675:../Startup/system_XMC4500.c ****   else
 676:../Startup/system_XMC4500.c ****   {
 677:../Startup/system_XMC4500.c ****     /* fOFI is clock source for fSYS */    
 678:../Startup/system_XMC4500.c ****     temp = OFI_FREQUENCY;
 630              	 .loc 1 678 0
 631 0090 0E4B     	 ldr r3,.L30+8
 632 0092 FB60     	 str r3,[r7,#12]
 633              	.L29:
 679:../Startup/system_XMC4500.c ****   }
 680:../Startup/system_XMC4500.c **** 
 681:../Startup/system_XMC4500.c ****   temp = temp / ((SCU_CLK->SYSCLKCR & SCU_CLK_SYSCLKCR_SYSDIV_Msk) + 1);
 634              	 .loc 1 681 0
 635 0094 0B4B     	 ldr r3,.L30
 636 0096 DB68     	 ldr r3,[r3,#12]
 637 0098 DBB2     	 uxtb r3,r3
 638 009a 0133     	 adds r3,r3,#1
 639 009c FA68     	 ldr r2,[r7,#12]
 640 009e B2FBF3F3 	 udiv r3,r2,r3
 641 00a2 FB60     	 str r3,[r7,#12]
 682:../Startup/system_XMC4500.c ****   temp = temp / ((SCU_CLK->CPUCLKCR & SCU_CLK_CPUCLKCR_CPUDIV_Msk) + 1);
 642              	 .loc 1 682 0
 643 00a4 074B     	 ldr r3,.L30
 644 00a6 1B69     	 ldr r3,[r3,#16]
 645 00a8 03F00103 	 and r3,r3,#1
 646 00ac 0133     	 adds r3,r3,#1
 647 00ae FA68     	 ldr r2,[r7,#12]
 648 00b0 B2FBF3F3 	 udiv r3,r2,r3
 649 00b4 FB60     	 str r3,[r7,#12]
 683:../Startup/system_XMC4500.c **** 
 684:../Startup/system_XMC4500.c ****   SystemCoreClock = temp;
 650              	 .loc 1 684 0
 651 00b6 064A     	 ldr r2,.L30+12
 652 00b8 FB68     	 ldr r3,[r7,#12]
 653 00ba 1360     	 str r3,[r2]
 685:../Startup/system_XMC4500.c **** }
 654              	 .loc 1 685 0
 655 00bc 1037     	 adds r7,r7,#16
 656              	.LCFI19:
 657              	 .cfi_def_cfa_offset 8
 658 00be BD46     	 mov sp,r7
 659              	.LCFI20:
 660              	 .cfi_def_cfa_register 13
 661              	 
 662 00c0 80BD     	 pop {r7,pc}
 663              	.L31:
 664 00c2 00BF     	 .align 2
 665              	.L30:
 666 00c4 00460050 	 .word 1342195200
 667 00c8 10470050 	 .word 1342195472
 668 00cc 00366E01 	 .word 24000000
 669 00d0 00000000 	 .word SystemCoreClock
 670              	 .cfi_endproc
 671              	.LFE134:
 673              	 .section .text.OSCHP_GetFrequency,"ax",%progbits
 674              	 .align 2
 675              	 .weak OSCHP_GetFrequency
 676              	 .thumb
 677              	 .thumb_func
 679              	OSCHP_GetFrequency:
 680              	.LFB135:
 686:../Startup/system_XMC4500.c **** 
 687:../Startup/system_XMC4500.c **** __WEAK uint32_t OSCHP_GetFrequency(void)
 688:../Startup/system_XMC4500.c **** {
 681              	 .loc 1 688 0
 682              	 .cfi_startproc
 683              	 
 684              	 
 685              	 
 686 0000 80B4     	 push {r7}
 687              	.LCFI21:
 688              	 .cfi_def_cfa_offset 4
 689              	 .cfi_offset 7,-4
 690 0002 00AF     	 add r7,sp,#0
 691              	.LCFI22:
 692              	 .cfi_def_cfa_register 7
 689:../Startup/system_XMC4500.c ****   return OSCHP_FREQUENCY;
 693              	 .loc 1 689 0
 694 0004 024B     	 ldr r3,.L34
 690:../Startup/system_XMC4500.c **** }
 695              	 .loc 1 690 0
 696 0006 1846     	 mov r0,r3
 697 0008 BD46     	 mov sp,r7
 698              	.LCFI23:
 699              	 .cfi_def_cfa_register 13
 700              	 
 701 000a 5DF8047B 	 ldr r7,[sp],#4
 702              	.LCFI24:
 703              	 .cfi_restore 7
 704              	 .cfi_def_cfa_offset 0
 705 000e 7047     	 bx lr
 706              	.L35:
 707              	 .align 2
 708              	.L34:
 709 0010 001BB700 	 .word 12000000
 710              	 .cfi_endproc
 711              	.LFE135:
 713              	 .text
 714              	.Letext0:
 715              	 .file 3 "c:\\dave-ide-4.4.2-64bit\\eclipse\\arm-gcc-49\\arm-none-eabi\\include\\machine\\_default_types.h"
 716              	 .file 4 "c:\\dave-ide-4.4.2-64bit\\eclipse\\arm-gcc-49\\arm-none-eabi\\include\\stdint.h"
 717              	 .file 5 "C:/Users/emob/Desktop/smartlogger/design/firmware/xmc4500/smart_logger/smart_logger/Libraries/CMSIS/Include/core_cm4.h"
 718              	 .file 6 "C:/Users/emob/Desktop/smartlogger/design/firmware/xmc4500/smart_logger/smart_logger/Libraries/CMSIS/Infineon/XMC4500_series/Include/XMC4500.h"