   1              	 .syntax unified
   2              	 .cpu cortex-m4
   3              	 .eabi_attribute 27,3
   4              	 .fpu fpv4-sp-d16
   5              	 .eabi_attribute 20,1
   6              	 .eabi_attribute 21,1
   7              	 .eabi_attribute 23,3
   8              	 .eabi_attribute 24,1
   9              	 .eabi_attribute 25,1
  10              	 .eabi_attribute 26,1
  11              	 .eabi_attribute 30,6
  12              	 .eabi_attribute 34,1
  13              	 .eabi_attribute 18,4
  14              	 .thumb
  15              	 .file "ff.c"
  16              	 .text
  17              	.Ltext0:
  18              	 .cfi_sections .debug_frame
  19              	 .section .bss.FatFs,"aw",%nobits
  20              	 .align 2
  23              	FatFs:
  24 0000 00000000 	 .space 4
  25              	 .section .bss.Fsid,"aw",%nobits
  26              	 .align 1
  29              	Fsid:
  30 0000 0000     	 .space 2
  31              	 .section .bss.CurrVol,"aw",%nobits
  34              	CurrVol:
  35 0000 00       	 .space 1
  36              	 .section .bss.Files,"aw",%nobits
  37              	 .align 2
  40              	Files:
  41 0000 00000000 	 .space 16
  41      00000000 
  41      00000000 
  41      00000000 
  42              	 .section .rodata.LfnOfs,"a",%progbits
  43              	 .align 2
  46              	LfnOfs:
  47 0000 01       	 .byte 1
  48 0001 03       	 .byte 3
  49 0002 05       	 .byte 5
  50 0003 07       	 .byte 7
  51 0004 09       	 .byte 9
  52 0005 0E       	 .byte 14
  53 0006 10       	 .byte 16
  54 0007 12       	 .byte 18
  55 0008 14       	 .byte 20
  56 0009 16       	 .byte 22
  57 000a 18       	 .byte 24
  58 000b 1C       	 .byte 28
  59 000c 1E       	 .byte 30
  60 000d 000000   	 .section .bss.LfnBuf,"aw",%nobits
  61              	 .align 2
  64              	LfnBuf:
  65 0000 00000000 	 .space 512
  65      00000000 
  65      00000000 
  65      00000000 
  65      00000000 
  66              	 .section .rodata.ExCvt,"a",%progbits
  67              	 .align 2
  70              	ExCvt:
  71 0000 43       	 .byte 67
  72 0001 55       	 .byte 85
  73 0002 45       	 .byte 69
  74 0003 41       	 .byte 65
  75 0004 41       	 .byte 65
  76 0005 41       	 .byte 65
  77 0006 41       	 .byte 65
  78 0007 43       	 .byte 67
  79 0008 45       	 .byte 69
  80 0009 45       	 .byte 69
  81 000a 45       	 .byte 69
  82 000b 49       	 .byte 73
  83 000c 49       	 .byte 73
  84 000d 49       	 .byte 73
  85 000e 41       	 .byte 65
  86 000f 41       	 .byte 65
  87 0010 45       	 .byte 69
  88 0011 92       	 .byte -110
  89 0012 92       	 .byte -110
  90 0013 4F       	 .byte 79
  91 0014 4F       	 .byte 79
  92 0015 4F       	 .byte 79
  93 0016 55       	 .byte 85
  94 0017 55       	 .byte 85
  95 0018 59       	 .byte 89
  96 0019 4F       	 .byte 79
  97 001a 55       	 .byte 85
  98 001b 4F       	 .byte 79
  99 001c 9C       	 .byte -100
 100 001d 4F       	 .byte 79
 101 001e 9E       	 .byte -98
 102 001f 9F       	 .byte -97
 103 0020 41       	 .byte 65
 104 0021 49       	 .byte 73
 105 0022 4F       	 .byte 79
 106 0023 55       	 .byte 85
 107 0024 A5       	 .byte -91
 108 0025 A5       	 .byte -91
 109 0026 A6       	 .byte -90
 110 0027 A7       	 .byte -89
 111 0028 A8       	 .byte -88
 112 0029 A9       	 .byte -87
 113 002a AA       	 .byte -86
 114 002b AB       	 .byte -85
 115 002c AC       	 .byte -84
 116 002d AD       	 .byte -83
 117 002e AE       	 .byte -82
 118 002f AF       	 .byte -81
 119 0030 B0       	 .byte -80
 120 0031 B1       	 .byte -79
 121 0032 B2       	 .byte -78
 122 0033 B3       	 .byte -77
 123 0034 B4       	 .byte -76
 124 0035 41       	 .byte 65
 125 0036 41       	 .byte 65
 126 0037 41       	 .byte 65
 127 0038 B8       	 .byte -72
 128 0039 B9       	 .byte -71
 129 003a BA       	 .byte -70
 130 003b BB       	 .byte -69
 131 003c BC       	 .byte -68
 132 003d BD       	 .byte -67
 133 003e BE       	 .byte -66
 134 003f BF       	 .byte -65
 135 0040 C0       	 .byte -64
 136 0041 C1       	 .byte -63
 137 0042 C2       	 .byte -62
 138 0043 C3       	 .byte -61
 139 0044 C4       	 .byte -60
 140 0045 C5       	 .byte -59
 141 0046 41       	 .byte 65
 142 0047 41       	 .byte 65
 143 0048 C8       	 .byte -56
 144 0049 C9       	 .byte -55
 145 004a CA       	 .byte -54
 146 004b CB       	 .byte -53
 147 004c CC       	 .byte -52
 148 004d CD       	 .byte -51
 149 004e CE       	 .byte -50
 150 004f CF       	 .byte -49
 151 0050 D1       	 .byte -47
 152 0051 D1       	 .byte -47
 153 0052 45       	 .byte 69
 154 0053 45       	 .byte 69
 155 0054 45       	 .byte 69
 156 0055 49       	 .byte 73
 157 0056 49       	 .byte 73
 158 0057 49       	 .byte 73
 159 0058 49       	 .byte 73
 160 0059 D9       	 .byte -39
 161 005a DA       	 .byte -38
 162 005b DB       	 .byte -37
 163 005c DC       	 .byte -36
 164 005d DD       	 .byte -35
 165 005e 49       	 .byte 73
 166 005f DF       	 .byte -33
 167 0060 4F       	 .byte 79
 168 0061 E1       	 .byte -31
 169 0062 4F       	 .byte 79
 170 0063 4F       	 .byte 79
 171 0064 4F       	 .byte 79
 172 0065 4F       	 .byte 79
 173 0066 E6       	 .byte -26
 174 0067 E8       	 .byte -24
 175 0068 E8       	 .byte -24
 176 0069 55       	 .byte 85
 177 006a 55       	 .byte 85
 178 006b 55       	 .byte 85
 179 006c 59       	 .byte 89
 180 006d 59       	 .byte 89
 181 006e EE       	 .byte -18
 182 006f EF       	 .byte -17
 183 0070 F0       	 .byte -16
 184 0071 F1       	 .byte -15
 185 0072 F2       	 .byte -14
 186 0073 F3       	 .byte -13
 187 0074 F4       	 .byte -12
 188 0075 F5       	 .byte -11
 189 0076 F6       	 .byte -10
 190 0077 F7       	 .byte -9
 191 0078 F8       	 .byte -8
 192 0079 F9       	 .byte -7
 193 007a FA       	 .byte -6
 194 007b FB       	 .byte -5
 195 007c FC       	 .byte -4
 196 007d FD       	 .byte -3
 197 007e FE       	 .byte -2
 198 007f FF       	 .byte -1
 199              	 .section .text.ld_word,"ax",%progbits
 200              	 .align 2
 201              	 .thumb
 202              	 .thumb_func
 204              	ld_word:
 205              	.LFB0:
 206              	 .file 1 "../Dave/Generated/FATFS/ff_Src/ff.c"
   1:../Dave/Generated/FATFS/ff_Src/ff.c **** /*----------------------------------------------------------------------------/
   2:../Dave/Generated/FATFS/ff_Src/ff.c **** /  FatFs - Generic FAT Filesystem Module  R0.13b                              /
   3:../Dave/Generated/FATFS/ff_Src/ff.c **** /-----------------------------------------------------------------------------/
   4:../Dave/Generated/FATFS/ff_Src/ff.c **** /
   5:../Dave/Generated/FATFS/ff_Src/ff.c **** / Copyright (C) 2018, ChaN, all right reserved.
   6:../Dave/Generated/FATFS/ff_Src/ff.c **** /
   7:../Dave/Generated/FATFS/ff_Src/ff.c **** / FatFs module is an open source software. Redistribution and use of FatFs in
   8:../Dave/Generated/FATFS/ff_Src/ff.c **** / source and binary forms, with or without modification, are permitted provided
   9:../Dave/Generated/FATFS/ff_Src/ff.c **** / that the following condition is met:
  10:../Dave/Generated/FATFS/ff_Src/ff.c **** /
  11:../Dave/Generated/FATFS/ff_Src/ff.c **** / 1. Redistributions of source code must retain the above copyright notice,
  12:../Dave/Generated/FATFS/ff_Src/ff.c **** /    this condition and the following disclaimer.
  13:../Dave/Generated/FATFS/ff_Src/ff.c **** /
  14:../Dave/Generated/FATFS/ff_Src/ff.c **** / This software is provided by the copyright holder and contributors "AS IS"
  15:../Dave/Generated/FATFS/ff_Src/ff.c **** / and any warranties related to this software are DISCLAIMED.
  16:../Dave/Generated/FATFS/ff_Src/ff.c **** / The copyright owner or contributors be NOT LIABLE for any damages caused
  17:../Dave/Generated/FATFS/ff_Src/ff.c **** / by use of this software.
  18:../Dave/Generated/FATFS/ff_Src/ff.c **** /
  19:../Dave/Generated/FATFS/ff_Src/ff.c **** /----------------------------------------------------------------------------*/
  20:../Dave/Generated/FATFS/ff_Src/ff.c **** 
  21:../Dave/Generated/FATFS/ff_Src/ff.c **** 
  22:../Dave/Generated/FATFS/ff_Src/ff.c **** #include "ff.h"			/* Declarations of FatFs API */
  23:../Dave/Generated/FATFS/ff_Src/ff.c **** #include "diskio.h"		/* Declarations of device I/O functions */
  24:../Dave/Generated/FATFS/ff_Src/ff.c **** 
  25:../Dave/Generated/FATFS/ff_Src/ff.c **** 
  26:../Dave/Generated/FATFS/ff_Src/ff.c **** /*--------------------------------------------------------------------------
  27:../Dave/Generated/FATFS/ff_Src/ff.c **** 
  28:../Dave/Generated/FATFS/ff_Src/ff.c ****    Module Private Definitions
  29:../Dave/Generated/FATFS/ff_Src/ff.c **** 
  30:../Dave/Generated/FATFS/ff_Src/ff.c **** ---------------------------------------------------------------------------*/
  31:../Dave/Generated/FATFS/ff_Src/ff.c **** 
  32:../Dave/Generated/FATFS/ff_Src/ff.c **** #if FF_DEFINED != 63463	/* Revision ID */
  33:../Dave/Generated/FATFS/ff_Src/ff.c **** #error Wrong include file (ff.h).
  34:../Dave/Generated/FATFS/ff_Src/ff.c **** #endif
  35:../Dave/Generated/FATFS/ff_Src/ff.c **** 
  36:../Dave/Generated/FATFS/ff_Src/ff.c **** 
  37:../Dave/Generated/FATFS/ff_Src/ff.c **** /* Character code support macros */
  38:../Dave/Generated/FATFS/ff_Src/ff.c **** #define IsUpper(c)		((c) >= 'A' && (c) <= 'Z')
  39:../Dave/Generated/FATFS/ff_Src/ff.c **** #define IsLower(c)		((c) >= 'a' && (c) <= 'z')
  40:../Dave/Generated/FATFS/ff_Src/ff.c **** #define IsDigit(c)		((c) >= '0' && (c) <= '9')
  41:../Dave/Generated/FATFS/ff_Src/ff.c **** #define IsSurrogate(c)	((c) >= 0xD800 && (c) <= 0xDFFF)
  42:../Dave/Generated/FATFS/ff_Src/ff.c **** #define IsSurrogateH(c)	((c) >= 0xD800 && (c) <= 0xDBFF)
  43:../Dave/Generated/FATFS/ff_Src/ff.c **** #define IsSurrogateL(c)	((c) >= 0xDC00 && (c) <= 0xDFFF)
  44:../Dave/Generated/FATFS/ff_Src/ff.c **** 
  45:../Dave/Generated/FATFS/ff_Src/ff.c **** 
  46:../Dave/Generated/FATFS/ff_Src/ff.c **** /* Additional file attribute bits for internal use */
  47:../Dave/Generated/FATFS/ff_Src/ff.c **** #define AM_VOL		0x08	/* Volume label */
  48:../Dave/Generated/FATFS/ff_Src/ff.c **** #define AM_LFN		0x0F	/* LFN entry */
  49:../Dave/Generated/FATFS/ff_Src/ff.c **** #define AM_MASK		0x3F	/* Mask of defined bits */
  50:../Dave/Generated/FATFS/ff_Src/ff.c **** 
  51:../Dave/Generated/FATFS/ff_Src/ff.c **** 
  52:../Dave/Generated/FATFS/ff_Src/ff.c **** /* Additional file access control and file status flags for internal use */
  53:../Dave/Generated/FATFS/ff_Src/ff.c **** #define FA_SEEKEND	0x20	/* Seek to end of the file on file open */
  54:../Dave/Generated/FATFS/ff_Src/ff.c **** #define FA_MODIFIED	0x40	/* File has been modified */
  55:../Dave/Generated/FATFS/ff_Src/ff.c **** #define FA_DIRTY	0x80	/* FIL.buf[] needs to be written-back */
  56:../Dave/Generated/FATFS/ff_Src/ff.c **** 
  57:../Dave/Generated/FATFS/ff_Src/ff.c **** 
  58:../Dave/Generated/FATFS/ff_Src/ff.c **** /* Name status flags in fn[11] */
  59:../Dave/Generated/FATFS/ff_Src/ff.c **** #define NSFLAG		11		/* Index of the name status byte */
  60:../Dave/Generated/FATFS/ff_Src/ff.c **** #define NS_LOSS		0x01	/* Out of 8.3 format */
  61:../Dave/Generated/FATFS/ff_Src/ff.c **** #define NS_LFN		0x02	/* Force to create LFN entry */
  62:../Dave/Generated/FATFS/ff_Src/ff.c **** #define NS_LAST		0x04	/* Last segment */
  63:../Dave/Generated/FATFS/ff_Src/ff.c **** #define NS_BODY		0x08	/* Lower case flag (body) */
  64:../Dave/Generated/FATFS/ff_Src/ff.c **** #define NS_EXT		0x10	/* Lower case flag (ext) */
  65:../Dave/Generated/FATFS/ff_Src/ff.c **** #define NS_DOT		0x20	/* Dot entry */
  66:../Dave/Generated/FATFS/ff_Src/ff.c **** #define NS_NOLFN	0x40	/* Do not find LFN */
  67:../Dave/Generated/FATFS/ff_Src/ff.c **** #define NS_NONAME	0x80	/* Not followed */
  68:../Dave/Generated/FATFS/ff_Src/ff.c **** 
  69:../Dave/Generated/FATFS/ff_Src/ff.c **** 
  70:../Dave/Generated/FATFS/ff_Src/ff.c **** /* Limits and boundaries */
  71:../Dave/Generated/FATFS/ff_Src/ff.c **** #define MAX_DIR		0x200000		/* Max size of FAT directory */
  72:../Dave/Generated/FATFS/ff_Src/ff.c **** #define MAX_DIR_EX	0x10000000		/* Max size of exFAT directory */
  73:../Dave/Generated/FATFS/ff_Src/ff.c **** #define MAX_FAT12	0xFF5			/* Max FAT12 clusters (differs from specs, but right for real DOS/Windows
  74:../Dave/Generated/FATFS/ff_Src/ff.c **** #define MAX_FAT16	0xFFF5			/* Max FAT16 clusters (differs from specs, but right for real DOS/Window
  75:../Dave/Generated/FATFS/ff_Src/ff.c **** #define MAX_FAT32	0x0FFFFFF5		/* Max FAT32 clusters (not specified, practical limit) */
  76:../Dave/Generated/FATFS/ff_Src/ff.c **** #define MAX_EXFAT	0x7FFFFFFD		/* Max exFAT clusters (differs from specs, implementation limit) */
  77:../Dave/Generated/FATFS/ff_Src/ff.c **** 
  78:../Dave/Generated/FATFS/ff_Src/ff.c **** 
  79:../Dave/Generated/FATFS/ff_Src/ff.c **** /* FatFs refers the FAT structure as simple byte array instead of structure member
  80:../Dave/Generated/FATFS/ff_Src/ff.c **** / because the C structure is not binary compatible between different platforms */
  81:../Dave/Generated/FATFS/ff_Src/ff.c **** 
  82:../Dave/Generated/FATFS/ff_Src/ff.c **** #define BS_JmpBoot			0		/* x86 jump instruction (3-byte) */
  83:../Dave/Generated/FATFS/ff_Src/ff.c **** #define BS_OEMName			3		/* OEM name (8-byte) */
  84:../Dave/Generated/FATFS/ff_Src/ff.c **** #define BPB_BytsPerSec		11		/* Sector size [byte] (WORD) */
  85:../Dave/Generated/FATFS/ff_Src/ff.c **** #define BPB_SecPerClus		13		/* Cluster size [sector] (BYTE) */
  86:../Dave/Generated/FATFS/ff_Src/ff.c **** #define BPB_RsvdSecCnt		14		/* Size of reserved area [sector] (WORD) */
  87:../Dave/Generated/FATFS/ff_Src/ff.c **** #define BPB_NumFATs			16		/* Number of FATs (BYTE) */
  88:../Dave/Generated/FATFS/ff_Src/ff.c **** #define BPB_RootEntCnt		17		/* Size of root directory area for FAT [entry] (WORD) */
  89:../Dave/Generated/FATFS/ff_Src/ff.c **** #define BPB_TotSec16		19		/* Volume size (16-bit) [sector] (WORD) */
  90:../Dave/Generated/FATFS/ff_Src/ff.c **** #define BPB_Media			21		/* Media descriptor byte (BYTE) */
  91:../Dave/Generated/FATFS/ff_Src/ff.c **** #define BPB_FATSz16			22		/* FAT size (16-bit) [sector] (WORD) */
  92:../Dave/Generated/FATFS/ff_Src/ff.c **** #define BPB_SecPerTrk		24		/* Number of sectors per track for int13h [sector] (WORD) */
  93:../Dave/Generated/FATFS/ff_Src/ff.c **** #define BPB_NumHeads		26		/* Number of heads for int13h (WORD) */
  94:../Dave/Generated/FATFS/ff_Src/ff.c **** #define BPB_HiddSec			28		/* Volume offset from top of the drive (DWORD) */
  95:../Dave/Generated/FATFS/ff_Src/ff.c **** #define BPB_TotSec32		32		/* Volume size (32-bit) [sector] (DWORD) */
  96:../Dave/Generated/FATFS/ff_Src/ff.c **** #define BS_DrvNum			36		/* Physical drive number for int13h (BYTE) */
  97:../Dave/Generated/FATFS/ff_Src/ff.c **** #define BS_NTres			37		/* WindowsNT error flag (BYTE) */
  98:../Dave/Generated/FATFS/ff_Src/ff.c **** #define BS_BootSig			38		/* Extended boot signature (BYTE) */
  99:../Dave/Generated/FATFS/ff_Src/ff.c **** #define BS_VolID			39		/* Volume serial number (DWORD) */
 100:../Dave/Generated/FATFS/ff_Src/ff.c **** #define BS_VolLab			43		/* Volume label string (8-byte) */
 101:../Dave/Generated/FATFS/ff_Src/ff.c **** #define BS_FilSysType		54		/* Filesystem type string (8-byte) */
 102:../Dave/Generated/FATFS/ff_Src/ff.c **** #define BS_BootCode			62		/* Boot code (448-byte) */
 103:../Dave/Generated/FATFS/ff_Src/ff.c **** #define BS_55AA				510		/* Signature word (WORD) */
 104:../Dave/Generated/FATFS/ff_Src/ff.c **** 
 105:../Dave/Generated/FATFS/ff_Src/ff.c **** #define BPB_FATSz32			36		/* FAT32: FAT size [sector] (DWORD) */
 106:../Dave/Generated/FATFS/ff_Src/ff.c **** #define BPB_ExtFlags32		40		/* FAT32: Extended flags (WORD) */
 107:../Dave/Generated/FATFS/ff_Src/ff.c **** #define BPB_FSVer32			42		/* FAT32: Filesystem version (WORD) */
 108:../Dave/Generated/FATFS/ff_Src/ff.c **** #define BPB_RootClus32		44		/* FAT32: Root directory cluster (DWORD) */
 109:../Dave/Generated/FATFS/ff_Src/ff.c **** #define BPB_FSInfo32		48		/* FAT32: Offset of FSINFO sector (WORD) */
 110:../Dave/Generated/FATFS/ff_Src/ff.c **** #define BPB_BkBootSec32		50		/* FAT32: Offset of backup boot sector (WORD) */
 111:../Dave/Generated/FATFS/ff_Src/ff.c **** #define BS_DrvNum32			64		/* FAT32: Physical drive number for int13h (BYTE) */
 112:../Dave/Generated/FATFS/ff_Src/ff.c **** #define BS_NTres32			65		/* FAT32: Error flag (BYTE) */
 113:../Dave/Generated/FATFS/ff_Src/ff.c **** #define BS_BootSig32		66		/* FAT32: Extended boot signature (BYTE) */
 114:../Dave/Generated/FATFS/ff_Src/ff.c **** #define BS_VolID32			67		/* FAT32: Volume serial number (DWORD) */
 115:../Dave/Generated/FATFS/ff_Src/ff.c **** #define BS_VolLab32			71		/* FAT32: Volume label string (8-byte) */
 116:../Dave/Generated/FATFS/ff_Src/ff.c **** #define BS_FilSysType32		82		/* FAT32: Filesystem type string (8-byte) */
 117:../Dave/Generated/FATFS/ff_Src/ff.c **** #define BS_BootCode32		90		/* FAT32: Boot code (420-byte) */
 118:../Dave/Generated/FATFS/ff_Src/ff.c **** 
 119:../Dave/Generated/FATFS/ff_Src/ff.c **** #define BPB_ZeroedEx		11		/* exFAT: MBZ field (53-byte) */
 120:../Dave/Generated/FATFS/ff_Src/ff.c **** #define BPB_VolOfsEx		64		/* exFAT: Volume offset from top of the drive [sector] (QWORD) */
 121:../Dave/Generated/FATFS/ff_Src/ff.c **** #define BPB_TotSecEx		72		/* exFAT: Volume size [sector] (QWORD) */
 122:../Dave/Generated/FATFS/ff_Src/ff.c **** #define BPB_FatOfsEx		80		/* exFAT: FAT offset from top of the volume [sector] (DWORD) */
 123:../Dave/Generated/FATFS/ff_Src/ff.c **** #define BPB_FatSzEx			84		/* exFAT: FAT size [sector] (DWORD) */
 124:../Dave/Generated/FATFS/ff_Src/ff.c **** #define BPB_DataOfsEx		88		/* exFAT: Data offset from top of the volume [sector] (DWORD) */
 125:../Dave/Generated/FATFS/ff_Src/ff.c **** #define BPB_NumClusEx		92		/* exFAT: Number of clusters (DWORD) */
 126:../Dave/Generated/FATFS/ff_Src/ff.c **** #define BPB_RootClusEx		96		/* exFAT: Root directory start cluster (DWORD) */
 127:../Dave/Generated/FATFS/ff_Src/ff.c **** #define BPB_VolIDEx			100		/* exFAT: Volume serial number (DWORD) */
 128:../Dave/Generated/FATFS/ff_Src/ff.c **** #define BPB_FSVerEx			104		/* exFAT: Filesystem version (WORD) */
 129:../Dave/Generated/FATFS/ff_Src/ff.c **** #define BPB_VolFlagEx		106		/* exFAT: Volume flags (WORD) */
 130:../Dave/Generated/FATFS/ff_Src/ff.c **** #define BPB_BytsPerSecEx	108		/* exFAT: Log2 of sector size in unit of byte (BYTE) */
 131:../Dave/Generated/FATFS/ff_Src/ff.c **** #define BPB_SecPerClusEx	109		/* exFAT: Log2 of cluster size in unit of sector (BYTE) */
 132:../Dave/Generated/FATFS/ff_Src/ff.c **** #define BPB_NumFATsEx		110		/* exFAT: Number of FATs (BYTE) */
 133:../Dave/Generated/FATFS/ff_Src/ff.c **** #define BPB_DrvNumEx		111		/* exFAT: Physical drive number for int13h (BYTE) */
 134:../Dave/Generated/FATFS/ff_Src/ff.c **** #define BPB_PercInUseEx		112		/* exFAT: Percent in use (BYTE) */
 135:../Dave/Generated/FATFS/ff_Src/ff.c **** #define BPB_RsvdEx			113		/* exFAT: Reserved (7-byte) */
 136:../Dave/Generated/FATFS/ff_Src/ff.c **** #define BS_BootCodeEx		120		/* exFAT: Boot code (390-byte) */
 137:../Dave/Generated/FATFS/ff_Src/ff.c **** 
 138:../Dave/Generated/FATFS/ff_Src/ff.c **** #define DIR_Name			0		/* Short file name (11-byte) */
 139:../Dave/Generated/FATFS/ff_Src/ff.c **** #define DIR_Attr			11		/* Attribute (BYTE) */
 140:../Dave/Generated/FATFS/ff_Src/ff.c **** #define DIR_NTres			12		/* Lower case flag (BYTE) */
 141:../Dave/Generated/FATFS/ff_Src/ff.c **** #define DIR_CrtTime10		13		/* Created time sub-second (BYTE) */
 142:../Dave/Generated/FATFS/ff_Src/ff.c **** #define DIR_CrtTime			14		/* Created time (DWORD) */
 143:../Dave/Generated/FATFS/ff_Src/ff.c **** #define DIR_LstAccDate		18		/* Last accessed date (WORD) */
 144:../Dave/Generated/FATFS/ff_Src/ff.c **** #define DIR_FstClusHI		20		/* Higher 16-bit of first cluster (WORD) */
 145:../Dave/Generated/FATFS/ff_Src/ff.c **** #define DIR_ModTime			22		/* Modified time (DWORD) */
 146:../Dave/Generated/FATFS/ff_Src/ff.c **** #define DIR_FstClusLO		26		/* Lower 16-bit of first cluster (WORD) */
 147:../Dave/Generated/FATFS/ff_Src/ff.c **** #define DIR_FileSize		28		/* File size (DWORD) */
 148:../Dave/Generated/FATFS/ff_Src/ff.c **** #define LDIR_Ord			0		/* LFN: LFN order and LLE flag (BYTE) */
 149:../Dave/Generated/FATFS/ff_Src/ff.c **** #define LDIR_Attr			11		/* LFN: LFN attribute (BYTE) */
 150:../Dave/Generated/FATFS/ff_Src/ff.c **** #define LDIR_Type			12		/* LFN: Entry type (BYTE) */
 151:../Dave/Generated/FATFS/ff_Src/ff.c **** #define LDIR_Chksum			13		/* LFN: Checksum of the SFN (BYTE) */
 152:../Dave/Generated/FATFS/ff_Src/ff.c **** #define LDIR_FstClusLO		26		/* LFN: MBZ field (WORD) */
 153:../Dave/Generated/FATFS/ff_Src/ff.c **** #define XDIR_Type			0		/* exFAT: Type of exFAT directory entry (BYTE) */
 154:../Dave/Generated/FATFS/ff_Src/ff.c **** #define XDIR_NumLabel		1		/* exFAT: Number of volume label characters (BYTE) */
 155:../Dave/Generated/FATFS/ff_Src/ff.c **** #define XDIR_Label			2		/* exFAT: Volume label (11-WORD) */
 156:../Dave/Generated/FATFS/ff_Src/ff.c **** #define XDIR_CaseSum		4		/* exFAT: Sum of case conversion table (DWORD) */
 157:../Dave/Generated/FATFS/ff_Src/ff.c **** #define XDIR_NumSec			1		/* exFAT: Number of secondary entries (BYTE) */
 158:../Dave/Generated/FATFS/ff_Src/ff.c **** #define XDIR_SetSum			2		/* exFAT: Sum of the set of directory entries (WORD) */
 159:../Dave/Generated/FATFS/ff_Src/ff.c **** #define XDIR_Attr			4		/* exFAT: File attribute (WORD) */
 160:../Dave/Generated/FATFS/ff_Src/ff.c **** #define XDIR_CrtTime		8		/* exFAT: Created time (DWORD) */
 161:../Dave/Generated/FATFS/ff_Src/ff.c **** #define XDIR_ModTime		12		/* exFAT: Modified time (DWORD) */
 162:../Dave/Generated/FATFS/ff_Src/ff.c **** #define XDIR_AccTime		16		/* exFAT: Last accessed time (DWORD) */
 163:../Dave/Generated/FATFS/ff_Src/ff.c **** #define XDIR_CrtTime10		20		/* exFAT: Created time subsecond (BYTE) */
 164:../Dave/Generated/FATFS/ff_Src/ff.c **** #define XDIR_ModTime10		21		/* exFAT: Modified time subsecond (BYTE) */
 165:../Dave/Generated/FATFS/ff_Src/ff.c **** #define XDIR_CrtTZ			22		/* exFAT: Created timezone (BYTE) */
 166:../Dave/Generated/FATFS/ff_Src/ff.c **** #define XDIR_ModTZ			23		/* exFAT: Modified timezone (BYTE) */
 167:../Dave/Generated/FATFS/ff_Src/ff.c **** #define XDIR_AccTZ			24		/* exFAT: Last accessed timezone (BYTE) */
 168:../Dave/Generated/FATFS/ff_Src/ff.c **** #define XDIR_GenFlags		33		/* exFAT: General secondary flags (BYTE) */
 169:../Dave/Generated/FATFS/ff_Src/ff.c **** #define XDIR_NumName		35		/* exFAT: Number of file name characters (BYTE) */
 170:../Dave/Generated/FATFS/ff_Src/ff.c **** #define XDIR_NameHash		36		/* exFAT: Hash of file name (WORD) */
 171:../Dave/Generated/FATFS/ff_Src/ff.c **** #define XDIR_ValidFileSize	40		/* exFAT: Valid file size (QWORD) */
 172:../Dave/Generated/FATFS/ff_Src/ff.c **** #define XDIR_FstClus		52		/* exFAT: First cluster of the file data (DWORD) */
 173:../Dave/Generated/FATFS/ff_Src/ff.c **** #define XDIR_FileSize		56		/* exFAT: File/Directory size (QWORD) */
 174:../Dave/Generated/FATFS/ff_Src/ff.c **** 
 175:../Dave/Generated/FATFS/ff_Src/ff.c **** #define SZDIRE				32		/* Size of a directory entry */
 176:../Dave/Generated/FATFS/ff_Src/ff.c **** #define DDEM				0xE5	/* Deleted directory entry mark set to DIR_Name[0] */
 177:../Dave/Generated/FATFS/ff_Src/ff.c **** #define RDDEM				0x05	/* Replacement of the character collides with DDEM */
 178:../Dave/Generated/FATFS/ff_Src/ff.c **** #define LLEF				0x40	/* Last long entry flag in LDIR_Ord */
 179:../Dave/Generated/FATFS/ff_Src/ff.c **** 
 180:../Dave/Generated/FATFS/ff_Src/ff.c **** #define FSI_LeadSig			0		/* FAT32 FSI: Leading signature (DWORD) */
 181:../Dave/Generated/FATFS/ff_Src/ff.c **** #define FSI_StrucSig		484		/* FAT32 FSI: Structure signature (DWORD) */
 182:../Dave/Generated/FATFS/ff_Src/ff.c **** #define FSI_Free_Count		488		/* FAT32 FSI: Number of free clusters (DWORD) */
 183:../Dave/Generated/FATFS/ff_Src/ff.c **** #define FSI_Nxt_Free		492		/* FAT32 FSI: Last allocated cluster (DWORD) */
 184:../Dave/Generated/FATFS/ff_Src/ff.c **** 
 185:../Dave/Generated/FATFS/ff_Src/ff.c **** #define MBR_Table			446		/* MBR: Offset of partition table in the MBR */
 186:../Dave/Generated/FATFS/ff_Src/ff.c **** #define SZ_PTE				16		/* MBR: Size of a partition table entry */
 187:../Dave/Generated/FATFS/ff_Src/ff.c **** #define PTE_Boot			0		/* MBR PTE: Boot indicator */
 188:../Dave/Generated/FATFS/ff_Src/ff.c **** #define PTE_StHead			1		/* MBR PTE: Start head */
 189:../Dave/Generated/FATFS/ff_Src/ff.c **** #define PTE_StSec			2		/* MBR PTE: Start sector */
 190:../Dave/Generated/FATFS/ff_Src/ff.c **** #define PTE_StCyl			3		/* MBR PTE: Start cylinder */
 191:../Dave/Generated/FATFS/ff_Src/ff.c **** #define PTE_System			4		/* MBR PTE: System ID */
 192:../Dave/Generated/FATFS/ff_Src/ff.c **** #define PTE_EdHead			5		/* MBR PTE: End head */
 193:../Dave/Generated/FATFS/ff_Src/ff.c **** #define PTE_EdSec			6		/* MBR PTE: End sector */
 194:../Dave/Generated/FATFS/ff_Src/ff.c **** #define PTE_EdCyl			7		/* MBR PTE: End cylinder */
 195:../Dave/Generated/FATFS/ff_Src/ff.c **** #define PTE_StLba			8		/* MBR PTE: Start in LBA */
 196:../Dave/Generated/FATFS/ff_Src/ff.c **** #define PTE_SizLba			12		/* MBR PTE: Size in LBA */
 197:../Dave/Generated/FATFS/ff_Src/ff.c **** 
 198:../Dave/Generated/FATFS/ff_Src/ff.c **** 
 199:../Dave/Generated/FATFS/ff_Src/ff.c **** /* Post process on fatal error in the file operations */
 200:../Dave/Generated/FATFS/ff_Src/ff.c **** #define ABORT(fs, res)		{ fp->err = (BYTE)(res); LEAVE_FF(fs, res); }
 201:../Dave/Generated/FATFS/ff_Src/ff.c **** 
 202:../Dave/Generated/FATFS/ff_Src/ff.c **** 
 203:../Dave/Generated/FATFS/ff_Src/ff.c **** /* Re-entrancy related */
 204:../Dave/Generated/FATFS/ff_Src/ff.c **** #if FF_FS_REENTRANT
 205:../Dave/Generated/FATFS/ff_Src/ff.c **** #if FF_USE_LFN == 1
 206:../Dave/Generated/FATFS/ff_Src/ff.c **** #error Static LFN work area cannot be used at thread-safe configuration
 207:../Dave/Generated/FATFS/ff_Src/ff.c **** #endif
 208:../Dave/Generated/FATFS/ff_Src/ff.c **** #define LEAVE_FF(fs, res)	{ unlock_fs(fs, res); return res; }
 209:../Dave/Generated/FATFS/ff_Src/ff.c **** #else
 210:../Dave/Generated/FATFS/ff_Src/ff.c **** #define LEAVE_FF(fs, res)	return res
 211:../Dave/Generated/FATFS/ff_Src/ff.c **** #endif
 212:../Dave/Generated/FATFS/ff_Src/ff.c **** 
 213:../Dave/Generated/FATFS/ff_Src/ff.c **** 
 214:../Dave/Generated/FATFS/ff_Src/ff.c **** /* Definitions of volume - physical location conversion */
 215:../Dave/Generated/FATFS/ff_Src/ff.c **** #if FF_MULTI_PARTITION
 216:../Dave/Generated/FATFS/ff_Src/ff.c **** #define LD2PD(vol) VolToPart[vol].pd	/* Get physical drive number */
 217:../Dave/Generated/FATFS/ff_Src/ff.c **** #define LD2PT(vol) VolToPart[vol].pt	/* Get partition index */
 218:../Dave/Generated/FATFS/ff_Src/ff.c **** #else
 219:../Dave/Generated/FATFS/ff_Src/ff.c **** #define LD2PD(vol) (BYTE)(vol)	/* Each logical drive is bound to the same physical drive number */
 220:../Dave/Generated/FATFS/ff_Src/ff.c **** #define LD2PT(vol) 0			/* Find first valid partition or in SFD */
 221:../Dave/Generated/FATFS/ff_Src/ff.c **** #endif
 222:../Dave/Generated/FATFS/ff_Src/ff.c **** 
 223:../Dave/Generated/FATFS/ff_Src/ff.c **** 
 224:../Dave/Generated/FATFS/ff_Src/ff.c **** /* Definitions of sector size */
 225:../Dave/Generated/FATFS/ff_Src/ff.c **** #if (FF_MAX_SS < FF_MIN_SS) || (FF_MAX_SS != 512 && FF_MAX_SS != 1024 && FF_MAX_SS != 2048 && FF_MA
 226:../Dave/Generated/FATFS/ff_Src/ff.c **** #error Wrong sector size configuration
 227:../Dave/Generated/FATFS/ff_Src/ff.c **** #endif
 228:../Dave/Generated/FATFS/ff_Src/ff.c **** #if FF_MAX_SS == FF_MIN_SS
 229:../Dave/Generated/FATFS/ff_Src/ff.c **** #define SS(fs)	((UINT)FF_MAX_SS)	/* Fixed sector size */
 230:../Dave/Generated/FATFS/ff_Src/ff.c **** #else
 231:../Dave/Generated/FATFS/ff_Src/ff.c **** #define SS(fs)	((fs)->ssize)	/* Variable sector size */
 232:../Dave/Generated/FATFS/ff_Src/ff.c **** #endif
 233:../Dave/Generated/FATFS/ff_Src/ff.c **** 
 234:../Dave/Generated/FATFS/ff_Src/ff.c **** 
 235:../Dave/Generated/FATFS/ff_Src/ff.c **** /* Timestamp */
 236:../Dave/Generated/FATFS/ff_Src/ff.c **** #if FF_FS_NORTC == 1
 237:../Dave/Generated/FATFS/ff_Src/ff.c **** #if FF_NORTC_YEAR < 1980 || FF_NORTC_YEAR > 2107 || FF_NORTC_MON < 1 || FF_NORTC_MON > 12 || FF_NOR
 238:../Dave/Generated/FATFS/ff_Src/ff.c **** #error Invalid FF_FS_NORTC settings
 239:../Dave/Generated/FATFS/ff_Src/ff.c **** #endif
 240:../Dave/Generated/FATFS/ff_Src/ff.c **** #define GET_FATTIME()	((DWORD)(FF_NORTC_YEAR - 1980) << 25 | (DWORD)FF_NORTC_MON << 21 | (DWORD)FF_
 241:../Dave/Generated/FATFS/ff_Src/ff.c **** #else
 242:../Dave/Generated/FATFS/ff_Src/ff.c **** #define GET_FATTIME()	get_fattime()
 243:../Dave/Generated/FATFS/ff_Src/ff.c **** #endif
 244:../Dave/Generated/FATFS/ff_Src/ff.c **** 
 245:../Dave/Generated/FATFS/ff_Src/ff.c **** 
 246:../Dave/Generated/FATFS/ff_Src/ff.c **** /* File lock controls */
 247:../Dave/Generated/FATFS/ff_Src/ff.c **** #if FF_FS_LOCK != 0
 248:../Dave/Generated/FATFS/ff_Src/ff.c **** #if FF_FS_READONLY
 249:../Dave/Generated/FATFS/ff_Src/ff.c **** #error FF_FS_LOCK must be 0 at read-only configuration
 250:../Dave/Generated/FATFS/ff_Src/ff.c **** #endif
 251:../Dave/Generated/FATFS/ff_Src/ff.c **** typedef struct {
 252:../Dave/Generated/FATFS/ff_Src/ff.c **** 	FATFS *fs;		/* Object ID 1, volume (NULL:blank entry) */
 253:../Dave/Generated/FATFS/ff_Src/ff.c **** 	DWORD clu;		/* Object ID 2, containing directory (0:root) */
 254:../Dave/Generated/FATFS/ff_Src/ff.c **** 	DWORD ofs;		/* Object ID 3, offset in the directory */
 255:../Dave/Generated/FATFS/ff_Src/ff.c **** 	WORD ctr;		/* Object open counter, 0:none, 0x01..0xFF:read mode open count, 0x100:write mode */
 256:../Dave/Generated/FATFS/ff_Src/ff.c **** } FILESEM;
 257:../Dave/Generated/FATFS/ff_Src/ff.c **** #endif
 258:../Dave/Generated/FATFS/ff_Src/ff.c **** 
 259:../Dave/Generated/FATFS/ff_Src/ff.c **** 
 260:../Dave/Generated/FATFS/ff_Src/ff.c **** /* SBCS up-case tables (\x80-\xFF) */
 261:../Dave/Generated/FATFS/ff_Src/ff.c **** #define TBL_CT437  {0x80,0x9A,0x45,0x41,0x8E,0x41,0x8F,0x80,0x45,0x45,0x45,0x49,0x49,0x49,0x8E,0x8F
 262:../Dave/Generated/FATFS/ff_Src/ff.c **** 					0x90,0x92,0x92,0x4F,0x99,0x4F,0x55,0x55,0x59,0x99,0x9A,0x9B,0x9C,0x9D,0x9E,0x9F, \
 263:../Dave/Generated/FATFS/ff_Src/ff.c **** 					0x41,0x49,0x4F,0x55,0xA5,0xA5,0xA6,0xA7,0xA8,0xA9,0xAA,0xAB,0xAC,0xAD,0xAE,0xAF, \
 264:../Dave/Generated/FATFS/ff_Src/ff.c **** 					0xB0,0xB1,0xB2,0xB3,0xB4,0xB5,0xB6,0xB7,0xB8,0xB9,0xBA,0xBB,0xBC,0xBD,0xBE,0xBF, \
 265:../Dave/Generated/FATFS/ff_Src/ff.c **** 					0xC0,0xC1,0xC2,0xC3,0xC4,0xC5,0xC6,0xC7,0xC8,0xC9,0xCA,0xCB,0xCC,0xCD,0xCE,0xCF, \
 266:../Dave/Generated/FATFS/ff_Src/ff.c **** 					0xD0,0xD1,0xD2,0xD3,0xD4,0xD5,0xD6,0xD7,0xD8,0xD9,0xDA,0xDB,0xDC,0xDD,0xDE,0xDF, \
 267:../Dave/Generated/FATFS/ff_Src/ff.c **** 					0xE0,0xE1,0xE2,0xE3,0xE4,0xE5,0xE6,0xE7,0xE8,0xE9,0xEA,0xEB,0xEC,0xED,0xEE,0xEF, \
 268:../Dave/Generated/FATFS/ff_Src/ff.c **** 					0xF0,0xF1,0xF2,0xF3,0xF4,0xF5,0xF6,0xF7,0xF8,0xF9,0xFA,0xFB,0xFC,0xFD,0xFE,0xFF}
 269:../Dave/Generated/FATFS/ff_Src/ff.c **** #define TBL_CT720  {0x80,0x81,0x82,0x83,0x84,0x85,0x86,0x87,0x88,0x89,0x8A,0x8B,0x8C,0x8D,0x8E,0x8F
 270:../Dave/Generated/FATFS/ff_Src/ff.c **** 					0x90,0x91,0x92,0x93,0x94,0x95,0x96,0x97,0x98,0x99,0x9A,0x9B,0x9C,0x9D,0x9E,0x9F, \
 271:../Dave/Generated/FATFS/ff_Src/ff.c **** 					0xA0,0xA1,0xA2,0xA3,0xA4,0xA5,0xA6,0xA7,0xA8,0xA9,0xAA,0xAB,0xAC,0xAD,0xAE,0xAF, \
 272:../Dave/Generated/FATFS/ff_Src/ff.c **** 					0xB0,0xB1,0xB2,0xB3,0xB4,0xB5,0xB6,0xB7,0xB8,0xB9,0xBA,0xBB,0xBC,0xBD,0xBE,0xBF, \
 273:../Dave/Generated/FATFS/ff_Src/ff.c **** 					0xC0,0xC1,0xC2,0xC3,0xC4,0xC5,0xC6,0xC7,0xC8,0xC9,0xCA,0xCB,0xCC,0xCD,0xCE,0xCF, \
 274:../Dave/Generated/FATFS/ff_Src/ff.c **** 					0xD0,0xD1,0xD2,0xD3,0xD4,0xD5,0xD6,0xD7,0xD8,0xD9,0xDA,0xDB,0xDC,0xDD,0xDE,0xDF, \
 275:../Dave/Generated/FATFS/ff_Src/ff.c **** 					0xE0,0xE1,0xE2,0xE3,0xE4,0xE5,0xE6,0xE7,0xE8,0xE9,0xEA,0xEB,0xEC,0xED,0xEE,0xEF, \
 276:../Dave/Generated/FATFS/ff_Src/ff.c **** 					0xF0,0xF1,0xF2,0xF3,0xF4,0xF5,0xF6,0xF7,0xF8,0xF9,0xFA,0xFB,0xFC,0xFD,0xFE,0xFF}
 277:../Dave/Generated/FATFS/ff_Src/ff.c **** #define TBL_CT737  {0x80,0x81,0x82,0x83,0x84,0x85,0x86,0x87,0x88,0x89,0x8A,0x8B,0x8C,0x8D,0x8E,0x8F
 278:../Dave/Generated/FATFS/ff_Src/ff.c **** 					0x90,0x92,0x92,0x93,0x94,0x95,0x96,0x97,0x80,0x81,0x82,0x83,0x84,0x85,0x86,0x87, \
 279:../Dave/Generated/FATFS/ff_Src/ff.c **** 					0x88,0x89,0x8A,0x8B,0x8C,0x8D,0x8E,0x8F,0x90,0x91,0xAA,0x92,0x93,0x94,0x95,0x96, \
 280:../Dave/Generated/FATFS/ff_Src/ff.c **** 					0xB0,0xB1,0xB2,0xB3,0xB4,0xB5,0xB6,0xB7,0xB8,0xB9,0xBA,0xBB,0xBC,0xBD,0xBE,0xBF, \
 281:../Dave/Generated/FATFS/ff_Src/ff.c **** 					0xC0,0xC1,0xC2,0xC3,0xC4,0xC5,0xC6,0xC7,0xC8,0xC9,0xCA,0xCB,0xCC,0xCD,0xCE,0xCF, \
 282:../Dave/Generated/FATFS/ff_Src/ff.c **** 					0xD0,0xD1,0xD2,0xD3,0xD4,0xD5,0xD6,0xD7,0xD8,0xD9,0xDA,0xDB,0xDC,0xDD,0xDE,0xDF, \
 283:../Dave/Generated/FATFS/ff_Src/ff.c **** 					0x97,0xEA,0xEB,0xEC,0xE4,0xED,0xEE,0xEF,0xF5,0xF0,0xEA,0xEB,0xEC,0xED,0xEE,0xEF, \
 284:../Dave/Generated/FATFS/ff_Src/ff.c **** 					0xF0,0xF1,0xF2,0xF3,0xF4,0xF5,0xF6,0xF7,0xF8,0xF9,0xFA,0xFB,0xFC,0xFD,0xFE,0xFF}
 285:../Dave/Generated/FATFS/ff_Src/ff.c **** #define TBL_CT771  {0x80,0x81,0x82,0x83,0x84,0x85,0x86,0x87,0x88,0x89,0x8A,0x8B,0x8C,0x8D,0x8E,0x8F
 286:../Dave/Generated/FATFS/ff_Src/ff.c **** 					0x90,0x91,0x92,0x93,0x94,0x95,0x96,0x97,0x98,0x99,0x9A,0x9B,0x9C,0x9D,0x9E,0x9F, \
 287:../Dave/Generated/FATFS/ff_Src/ff.c **** 					0x80,0x81,0x82,0x83,0x84,0x85,0x86,0x87,0x88,0x89,0x8A,0x8B,0x8C,0x8D,0x8E,0x8F, \
 288:../Dave/Generated/FATFS/ff_Src/ff.c **** 					0xB0,0xB1,0xB2,0xB3,0xB4,0xB5,0xB6,0xB7,0xB8,0xB9,0xBA,0xBB,0xBC,0xBD,0xBE,0xBF, \
 289:../Dave/Generated/FATFS/ff_Src/ff.c **** 					0xC0,0xC1,0xC2,0xC3,0xC4,0xC5,0xC6,0xC7,0xC8,0xC9,0xCA,0xCB,0xCC,0xCD,0xCE,0xCF, \
 290:../Dave/Generated/FATFS/ff_Src/ff.c **** 					0xD0,0xD1,0xD2,0xD3,0xD4,0xD5,0xD6,0xD7,0xD8,0xD9,0xDA,0xDB,0xDC,0xDC,0xDE,0xDE, \
 291:../Dave/Generated/FATFS/ff_Src/ff.c **** 					0x90,0x91,0x92,0x93,0x94,0x95,0x96,0x97,0x98,0x99,0x9A,0x9B,0x9C,0x9D,0x9E,0x9F, \
 292:../Dave/Generated/FATFS/ff_Src/ff.c **** 					0xF0,0xF0,0xF2,0xF2,0xF4,0xF4,0xF6,0xF6,0xF8,0xF8,0xFA,0xFA,0xFC,0xFC,0xFE,0xFF}
 293:../Dave/Generated/FATFS/ff_Src/ff.c **** #define TBL_CT775  {0x80,0x9A,0x91,0xA0,0x8E,0x95,0x8F,0x80,0xAD,0xED,0x8A,0x8A,0xA1,0x8D,0x8E,0x8F
 294:../Dave/Generated/FATFS/ff_Src/ff.c **** 					0x90,0x92,0x92,0xE2,0x99,0x95,0x96,0x97,0x97,0x99,0x9A,0x9D,0x9C,0x9D,0x9E,0x9F, \
 295:../Dave/Generated/FATFS/ff_Src/ff.c **** 					0xA0,0xA1,0xE0,0xA3,0xA3,0xA5,0xA6,0xA7,0xA8,0xA9,0xAA,0xAB,0xAC,0xAD,0xAE,0xAF, \
 296:../Dave/Generated/FATFS/ff_Src/ff.c **** 					0xB0,0xB1,0xB2,0xB3,0xB4,0xB5,0xB6,0xB7,0xB8,0xB9,0xBA,0xBB,0xBC,0xBD,0xBE,0xBF, \
 297:../Dave/Generated/FATFS/ff_Src/ff.c **** 					0xC0,0xC1,0xC2,0xC3,0xC4,0xC5,0xC6,0xC7,0xC8,0xC9,0xCA,0xCB,0xCC,0xCD,0xCE,0xCF, \
 298:../Dave/Generated/FATFS/ff_Src/ff.c **** 					0xB5,0xB6,0xB7,0xB8,0xBD,0xBE,0xC6,0xC7,0xA5,0xD9,0xDA,0xDB,0xDC,0xDD,0xDE,0xDF, \
 299:../Dave/Generated/FATFS/ff_Src/ff.c **** 					0xE0,0xE1,0xE2,0xE3,0xE5,0xE5,0xE6,0xE3,0xE8,0xE8,0xEA,0xEA,0xEE,0xED,0xEE,0xEF, \
 300:../Dave/Generated/FATFS/ff_Src/ff.c **** 					0xF0,0xF1,0xF2,0xF3,0xF4,0xF5,0xF6,0xF7,0xF8,0xF9,0xFA,0xFB,0xFC,0xFD,0xFE,0xFF}
 301:../Dave/Generated/FATFS/ff_Src/ff.c **** #define TBL_CT850  {0x43,0x55,0x45,0x41,0x41,0x41,0x41,0x43,0x45,0x45,0x45,0x49,0x49,0x49,0x41,0x41
 302:../Dave/Generated/FATFS/ff_Src/ff.c **** 					0x45,0x92,0x92,0x4F,0x4F,0x4F,0x55,0x55,0x59,0x4F,0x55,0x4F,0x9C,0x4F,0x9E,0x9F, \
 303:../Dave/Generated/FATFS/ff_Src/ff.c **** 					0x41,0x49,0x4F,0x55,0xA5,0xA5,0xA6,0xA7,0xA8,0xA9,0xAA,0xAB,0xAC,0xAD,0xAE,0xAF, \
 304:../Dave/Generated/FATFS/ff_Src/ff.c **** 					0xB0,0xB1,0xB2,0xB3,0xB4,0x41,0x41,0x41,0xB8,0xB9,0xBA,0xBB,0xBC,0xBD,0xBE,0xBF, \
 305:../Dave/Generated/FATFS/ff_Src/ff.c **** 					0xC0,0xC1,0xC2,0xC3,0xC4,0xC5,0x41,0x41,0xC8,0xC9,0xCA,0xCB,0xCC,0xCD,0xCE,0xCF, \
 306:../Dave/Generated/FATFS/ff_Src/ff.c **** 					0xD1,0xD1,0x45,0x45,0x45,0x49,0x49,0x49,0x49,0xD9,0xDA,0xDB,0xDC,0xDD,0x49,0xDF, \
 307:../Dave/Generated/FATFS/ff_Src/ff.c **** 					0x4F,0xE1,0x4F,0x4F,0x4F,0x4F,0xE6,0xE8,0xE8,0x55,0x55,0x55,0x59,0x59,0xEE,0xEF, \
 308:../Dave/Generated/FATFS/ff_Src/ff.c **** 					0xF0,0xF1,0xF2,0xF3,0xF4,0xF5,0xF6,0xF7,0xF8,0xF9,0xFA,0xFB,0xFC,0xFD,0xFE,0xFF}
 309:../Dave/Generated/FATFS/ff_Src/ff.c **** #define TBL_CT852  {0x80,0x9A,0x90,0xB6,0x8E,0xDE,0x8F,0x80,0x9D,0xD3,0x8A,0x8A,0xD7,0x8D,0x8E,0x8F
 310:../Dave/Generated/FATFS/ff_Src/ff.c **** 					0x90,0x91,0x91,0xE2,0x99,0x95,0x95,0x97,0x97,0x99,0x9A,0x9B,0x9B,0x9D,0x9E,0xAC, \
 311:../Dave/Generated/FATFS/ff_Src/ff.c **** 					0xB5,0xD6,0xE0,0xE9,0xA4,0xA4,0xA6,0xA6,0xA8,0xA8,0xAA,0x8D,0xAC,0xB8,0xAE,0xAF, \
 312:../Dave/Generated/FATFS/ff_Src/ff.c **** 					0xB0,0xB1,0xB2,0xB3,0xB4,0xB5,0xB6,0xB7,0xB8,0xB9,0xBA,0xBB,0xBC,0xBD,0xBD,0xBF, \
 313:../Dave/Generated/FATFS/ff_Src/ff.c **** 					0xC0,0xC1,0xC2,0xC3,0xC4,0xC5,0xC6,0xC6,0xC8,0xC9,0xCA,0xCB,0xCC,0xCD,0xCE,0xCF, \
 314:../Dave/Generated/FATFS/ff_Src/ff.c **** 					0xD1,0xD1,0xD2,0xD3,0xD2,0xD5,0xD6,0xD7,0xB7,0xD9,0xDA,0xDB,0xDC,0xDD,0xDE,0xDF, \
 315:../Dave/Generated/FATFS/ff_Src/ff.c **** 					0xE0,0xE1,0xE2,0xE3,0xE3,0xD5,0xE6,0xE6,0xE8,0xE9,0xE8,0xEB,0xED,0xED,0xDD,0xEF, \
 316:../Dave/Generated/FATFS/ff_Src/ff.c **** 					0xF0,0xF1,0xF2,0xF3,0xF4,0xF5,0xF6,0xF7,0xF8,0xF9,0xFA,0xEB,0xFC,0xFC,0xFE,0xFF}
 317:../Dave/Generated/FATFS/ff_Src/ff.c **** #define TBL_CT855  {0x81,0x81,0x83,0x83,0x85,0x85,0x87,0x87,0x89,0x89,0x8B,0x8B,0x8D,0x8D,0x8F,0x8F
 318:../Dave/Generated/FATFS/ff_Src/ff.c **** 					0x91,0x91,0x93,0x93,0x95,0x95,0x97,0x97,0x99,0x99,0x9B,0x9B,0x9D,0x9D,0x9F,0x9F, \
 319:../Dave/Generated/FATFS/ff_Src/ff.c **** 					0xA1,0xA1,0xA3,0xA3,0xA5,0xA5,0xA7,0xA7,0xA9,0xA9,0xAB,0xAB,0xAD,0xAD,0xAE,0xAF, \
 320:../Dave/Generated/FATFS/ff_Src/ff.c **** 					0xB0,0xB1,0xB2,0xB3,0xB4,0xB6,0xB6,0xB8,0xB8,0xB9,0xBA,0xBB,0xBC,0xBE,0xBE,0xBF, \
 321:../Dave/Generated/FATFS/ff_Src/ff.c **** 					0xC0,0xC1,0xC2,0xC3,0xC4,0xC5,0xC7,0xC7,0xC8,0xC9,0xCA,0xCB,0xCC,0xCD,0xCE,0xCF, \
 322:../Dave/Generated/FATFS/ff_Src/ff.c **** 					0xD1,0xD1,0xD3,0xD3,0xD5,0xD5,0xD7,0xD7,0xDD,0xD9,0xDA,0xDB,0xDC,0xDD,0xE0,0xDF, \
 323:../Dave/Generated/FATFS/ff_Src/ff.c **** 					0xE0,0xE2,0xE2,0xE4,0xE4,0xE6,0xE6,0xE8,0xE8,0xEA,0xEA,0xEC,0xEC,0xEE,0xEE,0xEF, \
 324:../Dave/Generated/FATFS/ff_Src/ff.c **** 					0xF0,0xF2,0xF2,0xF4,0xF4,0xF6,0xF6,0xF8,0xF8,0xFA,0xFA,0xFC,0xFC,0xFD,0xFE,0xFF}
 325:../Dave/Generated/FATFS/ff_Src/ff.c **** #define TBL_CT857  {0x80,0x9A,0x90,0xB6,0x8E,0xB7,0x8F,0x80,0xD2,0xD3,0xD4,0xD8,0xD7,0x49,0x8E,0x8F
 326:../Dave/Generated/FATFS/ff_Src/ff.c **** 					0x90,0x92,0x92,0xE2,0x99,0xE3,0xEA,0xEB,0x98,0x99,0x9A,0x9D,0x9C,0x9D,0x9E,0x9E, \
 327:../Dave/Generated/FATFS/ff_Src/ff.c **** 					0xB5,0xD6,0xE0,0xE9,0xA5,0xA5,0xA6,0xA6,0xA8,0xA9,0xAA,0xAB,0xAC,0xAD,0xAE,0xAF, \
 328:../Dave/Generated/FATFS/ff_Src/ff.c **** 					0xB0,0xB1,0xB2,0xB3,0xB4,0xB5,0xB6,0xB7,0xB8,0xB9,0xBA,0xBB,0xBC,0xBD,0xBE,0xBF, \
 329:../Dave/Generated/FATFS/ff_Src/ff.c **** 					0xC0,0xC1,0xC2,0xC3,0xC4,0xC5,0xC7,0xC7,0xC8,0xC9,0xCA,0xCB,0xCC,0xCD,0xCE,0xCF, \
 330:../Dave/Generated/FATFS/ff_Src/ff.c **** 					0xD0,0xD1,0xD2,0xD3,0xD4,0x49,0xD6,0xD7,0xD8,0xD9,0xDA,0xDB,0xDC,0xDD,0xDE,0xDF, \
 331:../Dave/Generated/FATFS/ff_Src/ff.c **** 					0xE0,0xE1,0xE2,0xE3,0xE5,0xE5,0xE6,0xE7,0xE8,0xE9,0xEA,0xEB,0xDE,0xED,0xEE,0xEF, \
 332:../Dave/Generated/FATFS/ff_Src/ff.c **** 					0xF0,0xF1,0xF2,0xF3,0xF4,0xF5,0xF6,0xF7,0xF8,0xF9,0xFA,0xFB,0xFC,0xFD,0xFE,0xFF}
 333:../Dave/Generated/FATFS/ff_Src/ff.c **** #define TBL_CT860  {0x80,0x9A,0x90,0x8F,0x8E,0x91,0x86,0x80,0x89,0x89,0x92,0x8B,0x8C,0x98,0x8E,0x8F
 334:../Dave/Generated/FATFS/ff_Src/ff.c **** 					0x90,0x91,0x92,0x8C,0x99,0xA9,0x96,0x9D,0x98,0x99,0x9A,0x9B,0x9C,0x9D,0x9E,0x9F, \
 335:../Dave/Generated/FATFS/ff_Src/ff.c **** 					0x86,0x8B,0x9F,0x96,0xA5,0xA5,0xA6,0xA7,0xA8,0xA9,0xAA,0xAB,0xAC,0xAD,0xAE,0xAF, \
 336:../Dave/Generated/FATFS/ff_Src/ff.c **** 					0xB0,0xB1,0xB2,0xB3,0xB4,0xB5,0xB6,0xB7,0xB8,0xB9,0xBA,0xBB,0xBC,0xBD,0xBE,0xBF, \
 337:../Dave/Generated/FATFS/ff_Src/ff.c **** 					0xC0,0xC1,0xC2,0xC3,0xC4,0xC5,0xC6,0xC7,0xC8,0xC9,0xCA,0xCB,0xCC,0xCD,0xCE,0xCF, \
 338:../Dave/Generated/FATFS/ff_Src/ff.c **** 					0xD0,0xD1,0xD2,0xD3,0xD4,0xD5,0xD6,0xD7,0xD8,0xD9,0xDA,0xDB,0xDC,0xDD,0xDE,0xDF, \
 339:../Dave/Generated/FATFS/ff_Src/ff.c **** 					0xE0,0xE1,0xE2,0xE3,0xE4,0xE5,0xE6,0xE7,0xE8,0xE9,0xEA,0xEB,0xEC,0xED,0xEE,0xEF, \
 340:../Dave/Generated/FATFS/ff_Src/ff.c **** 					0xF0,0xF1,0xF2,0xF3,0xF4,0xF5,0xF6,0xF7,0xF8,0xF9,0xFA,0xFB,0xFC,0xFD,0xFE,0xFF}
 341:../Dave/Generated/FATFS/ff_Src/ff.c **** #define TBL_CT861  {0x80,0x9A,0x90,0x41,0x8E,0x41,0x8F,0x80,0x45,0x45,0x45,0x8B,0x8B,0x8D,0x8E,0x8F
 342:../Dave/Generated/FATFS/ff_Src/ff.c **** 					0x90,0x92,0x92,0x4F,0x99,0x8D,0x55,0x97,0x97,0x99,0x9A,0x9D,0x9C,0x9D,0x9E,0x9F, \
 343:../Dave/Generated/FATFS/ff_Src/ff.c **** 					0xA4,0xA5,0xA6,0xA7,0xA4,0xA5,0xA6,0xA7,0xA8,0xA9,0xAA,0xAB,0xAC,0xAD,0xAE,0xAF, \
 344:../Dave/Generated/FATFS/ff_Src/ff.c **** 					0xB0,0xB1,0xB2,0xB3,0xB4,0xB5,0xB6,0xB7,0xB8,0xB9,0xBA,0xBB,0xBC,0xBD,0xBE,0xBF, \
 345:../Dave/Generated/FATFS/ff_Src/ff.c **** 					0xC0,0xC1,0xC2,0xC3,0xC4,0xC5,0xC6,0xC7,0xC8,0xC9,0xCA,0xCB,0xCC,0xCD,0xCE,0xCF, \
 346:../Dave/Generated/FATFS/ff_Src/ff.c **** 					0xD0,0xD1,0xD2,0xD3,0xD4,0xD5,0xD6,0xD7,0xD8,0xD9,0xDA,0xDB,0xDC,0xDD,0xDE,0xDF, \
 347:../Dave/Generated/FATFS/ff_Src/ff.c **** 					0xE0,0xE1,0xE2,0xE3,0xE4,0xE5,0xE6,0xE7,0xE8,0xE9,0xEA,0xEB,0xEC,0xED,0xEE,0xEF, \
 348:../Dave/Generated/FATFS/ff_Src/ff.c **** 					0xF0,0xF1,0xF2,0xF3,0xF4,0xF5,0xF6,0xF7,0xF8,0xF9,0xFA,0xFB,0xFC,0xFD,0xFE,0xFF}
 349:../Dave/Generated/FATFS/ff_Src/ff.c **** #define TBL_CT862  {0x80,0x81,0x82,0x83,0x84,0x85,0x86,0x87,0x88,0x89,0x8A,0x8B,0x8C,0x8D,0x8E,0x8F
 350:../Dave/Generated/FATFS/ff_Src/ff.c **** 					0x90,0x91,0x92,0x93,0x94,0x95,0x96,0x97,0x98,0x99,0x9A,0x9B,0x9C,0x9D,0x9E,0x9F, \
 351:../Dave/Generated/FATFS/ff_Src/ff.c **** 					0x41,0x49,0x4F,0x55,0xA5,0xA5,0xA6,0xA7,0xA8,0xA9,0xAA,0xAB,0xAC,0xAD,0xAE,0xAF, \
 352:../Dave/Generated/FATFS/ff_Src/ff.c **** 					0xB0,0xB1,0xB2,0xB3,0xB4,0xB5,0xB6,0xB7,0xB8,0xB9,0xBA,0xBB,0xBC,0xBD,0xBE,0xBF, \
 353:../Dave/Generated/FATFS/ff_Src/ff.c **** 					0xC0,0xC1,0xC2,0xC3,0xC4,0xC5,0xC6,0xC7,0xC8,0xC9,0xCA,0xCB,0xCC,0xCD,0xCE,0xCF, \
 354:../Dave/Generated/FATFS/ff_Src/ff.c **** 					0xD0,0xD1,0xD2,0xD3,0xD4,0xD5,0xD6,0xD7,0xD8,0xD9,0xDA,0xDB,0xDC,0xDD,0xDE,0xDF, \
 355:../Dave/Generated/FATFS/ff_Src/ff.c **** 					0xE0,0xE1,0xE2,0xE3,0xE4,0xE5,0xE6,0xE7,0xE8,0xE9,0xEA,0xEB,0xEC,0xED,0xEE,0xEF, \
 356:../Dave/Generated/FATFS/ff_Src/ff.c **** 					0xF0,0xF1,0xF2,0xF3,0xF4,0xF5,0xF6,0xF7,0xF8,0xF9,0xFA,0xFB,0xFC,0xFD,0xFE,0xFF}
 357:../Dave/Generated/FATFS/ff_Src/ff.c **** #define TBL_CT863  {0x43,0x55,0x45,0x41,0x41,0x41,0x86,0x43,0x45,0x45,0x45,0x49,0x49,0x8D,0x41,0x8F
 358:../Dave/Generated/FATFS/ff_Src/ff.c **** 					0x45,0x45,0x45,0x4F,0x45,0x49,0x55,0x55,0x98,0x4F,0x55,0x9B,0x9C,0x55,0x55,0x9F, \
 359:../Dave/Generated/FATFS/ff_Src/ff.c **** 					0xA0,0xA1,0x4F,0x55,0xA4,0xA5,0xA6,0xA7,0x49,0xA9,0xAA,0xAB,0xAC,0xAD,0xAE,0xAF, \
 360:../Dave/Generated/FATFS/ff_Src/ff.c **** 					0xB0,0xB1,0xB2,0xB3,0xB4,0xB5,0xB6,0xB7,0xB8,0xB9,0xBA,0xBB,0xBC,0xBD,0xBE,0xBF, \
 361:../Dave/Generated/FATFS/ff_Src/ff.c **** 					0xC0,0xC1,0xC2,0xC3,0xC4,0xC5,0xC6,0xC7,0xC8,0xC9,0xCA,0xCB,0xCC,0xCD,0xCE,0xCF, \
 362:../Dave/Generated/FATFS/ff_Src/ff.c **** 					0xD0,0xD1,0xD2,0xD3,0xD4,0xD5,0xD6,0xD7,0xD8,0xD9,0xDA,0xDB,0xDC,0xDD,0xDE,0xDF, \
 363:../Dave/Generated/FATFS/ff_Src/ff.c **** 					0xE0,0xE1,0xE2,0xE3,0xE4,0xE5,0xE6,0xE7,0xE8,0xE9,0xEA,0xEB,0xEC,0xED,0xEE,0xEF, \
 364:../Dave/Generated/FATFS/ff_Src/ff.c **** 					0xF0,0xF1,0xF2,0xF3,0xF4,0xF5,0xF6,0xF7,0xF8,0xF9,0xFA,0xFB,0xFC,0xFD,0xFE,0xFF}
 365:../Dave/Generated/FATFS/ff_Src/ff.c **** #define TBL_CT864  {0x80,0x9A,0x45,0x41,0x8E,0x41,0x8F,0x80,0x45,0x45,0x45,0x49,0x49,0x49,0x8E,0x8F
 366:../Dave/Generated/FATFS/ff_Src/ff.c **** 					0x90,0x92,0x92,0x4F,0x99,0x4F,0x55,0x55,0x59,0x99,0x9A,0x9B,0x9C,0x9D,0x9E,0x9F, \
 367:../Dave/Generated/FATFS/ff_Src/ff.c **** 					0x41,0x49,0x4F,0x55,0xA5,0xA5,0xA6,0xA7,0xA8,0xA9,0xAA,0xAB,0xAC,0xAD,0xAE,0xAF, \
 368:../Dave/Generated/FATFS/ff_Src/ff.c **** 					0xB0,0xB1,0xB2,0xB3,0xB4,0xB5,0xB6,0xB7,0xB8,0xB9,0xBA,0xBB,0xBC,0xBD,0xBE,0xBF, \
 369:../Dave/Generated/FATFS/ff_Src/ff.c **** 					0xC0,0xC1,0xC2,0xC3,0xC4,0xC5,0xC6,0xC7,0xC8,0xC9,0xCA,0xCB,0xCC,0xCD,0xCE,0xCF, \
 370:../Dave/Generated/FATFS/ff_Src/ff.c **** 					0xD0,0xD1,0xD2,0xD3,0xD4,0xD5,0xD6,0xD7,0xD8,0xD9,0xDA,0xDB,0xDC,0xDD,0xDE,0xDF, \
 371:../Dave/Generated/FATFS/ff_Src/ff.c **** 					0xE0,0xE1,0xE2,0xE3,0xE4,0xE5,0xE6,0xE7,0xE8,0xE9,0xEA,0xEB,0xEC,0xED,0xEE,0xEF, \
 372:../Dave/Generated/FATFS/ff_Src/ff.c **** 					0xF0,0xF1,0xF2,0xF3,0xF4,0xF5,0xF6,0xF7,0xF8,0xF9,0xFA,0xFB,0xFC,0xFD,0xFE,0xFF}
 373:../Dave/Generated/FATFS/ff_Src/ff.c **** #define TBL_CT865  {0x80,0x9A,0x90,0x41,0x8E,0x41,0x8F,0x80,0x45,0x45,0x45,0x49,0x49,0x49,0x8E,0x8F
 374:../Dave/Generated/FATFS/ff_Src/ff.c **** 					0x90,0x92,0x92,0x4F,0x99,0x4F,0x55,0x55,0x59,0x99,0x9A,0x9B,0x9C,0x9D,0x9E,0x9F, \
 375:../Dave/Generated/FATFS/ff_Src/ff.c **** 					0x41,0x49,0x4F,0x55,0xA5,0xA5,0xA6,0xA7,0xA8,0xA9,0xAA,0xAB,0xAC,0xAD,0xAE,0xAF, \
 376:../Dave/Generated/FATFS/ff_Src/ff.c **** 					0xB0,0xB1,0xB2,0xB3,0xB4,0xB5,0xB6,0xB7,0xB8,0xB9,0xBA,0xBB,0xBC,0xBD,0xBE,0xBF, \
 377:../Dave/Generated/FATFS/ff_Src/ff.c **** 					0xC0,0xC1,0xC2,0xC3,0xC4,0xC5,0xC6,0xC7,0xC8,0xC9,0xCA,0xCB,0xCC,0xCD,0xCE,0xCF, \
 378:../Dave/Generated/FATFS/ff_Src/ff.c **** 					0xD0,0xD1,0xD2,0xD3,0xD4,0xD5,0xD6,0xD7,0xD8,0xD9,0xDA,0xDB,0xDC,0xDD,0xDE,0xDF, \
 379:../Dave/Generated/FATFS/ff_Src/ff.c **** 					0xE0,0xE1,0xE2,0xE3,0xE4,0xE5,0xE6,0xE7,0xE8,0xE9,0xEA,0xEB,0xEC,0xED,0xEE,0xEF, \
 380:../Dave/Generated/FATFS/ff_Src/ff.c **** 					0xF0,0xF1,0xF2,0xF3,0xF4,0xF5,0xF6,0xF7,0xF8,0xF9,0xFA,0xFB,0xFC,0xFD,0xFE,0xFF}
 381:../Dave/Generated/FATFS/ff_Src/ff.c **** #define TBL_CT866  {0x80,0x81,0x82,0x83,0x84,0x85,0x86,0x87,0x88,0x89,0x8A,0x8B,0x8C,0x8D,0x8E,0x8F
 382:../Dave/Generated/FATFS/ff_Src/ff.c **** 					0x90,0x91,0x92,0x93,0x94,0x95,0x96,0x97,0x98,0x99,0x9A,0x9B,0x9C,0x9D,0x9E,0x9F, \
 383:../Dave/Generated/FATFS/ff_Src/ff.c **** 					0x80,0x81,0x82,0x83,0x84,0x85,0x86,0x87,0x88,0x89,0x8A,0x8B,0x8C,0x8D,0x8E,0x8F, \
 384:../Dave/Generated/FATFS/ff_Src/ff.c **** 					0xB0,0xB1,0xB2,0xB3,0xB4,0xB5,0xB6,0xB7,0xB8,0xB9,0xBA,0xBB,0xBC,0xBD,0xBE,0xBF, \
 385:../Dave/Generated/FATFS/ff_Src/ff.c **** 					0xC0,0xC1,0xC2,0xC3,0xC4,0xC5,0xC6,0xC7,0xC8,0xC9,0xCA,0xCB,0xCC,0xCD,0xCE,0xCF, \
 386:../Dave/Generated/FATFS/ff_Src/ff.c **** 					0xD0,0xD1,0xD2,0xD3,0xD4,0xD5,0xD6,0xD7,0xD8,0xD9,0xDA,0xDB,0xDC,0xDD,0xDE,0xDF, \
 387:../Dave/Generated/FATFS/ff_Src/ff.c **** 					0x90,0x91,0x92,0x93,0x94,0x95,0x96,0x97,0x98,0x99,0x9A,0x9B,0x9C,0x9D,0x9E,0x9F, \
 388:../Dave/Generated/FATFS/ff_Src/ff.c **** 					0xF0,0xF0,0xF2,0xF2,0xF4,0xF4,0xF6,0xF6,0xF8,0xF9,0xFA,0xFB,0xFC,0xFD,0xFE,0xFF}
 389:../Dave/Generated/FATFS/ff_Src/ff.c **** #define TBL_CT869  {0x80,0x81,0x82,0x83,0x84,0x85,0x86,0x87,0x88,0x89,0x8A,0x8B,0x8C,0x8D,0x8E,0x8F
 390:../Dave/Generated/FATFS/ff_Src/ff.c **** 					0x90,0x91,0x92,0x93,0x94,0x95,0x96,0x97,0x98,0x99,0x9A,0x86,0x9C,0x8D,0x8F,0x90, \
 391:../Dave/Generated/FATFS/ff_Src/ff.c **** 					0x91,0x90,0x92,0x95,0xA4,0xA5,0xA6,0xA7,0xA8,0xA9,0xAA,0xAB,0xAC,0xAD,0xAE,0xAF, \
 392:../Dave/Generated/FATFS/ff_Src/ff.c **** 					0xB0,0xB1,0xB2,0xB3,0xB4,0xB5,0xB6,0xB7,0xB8,0xB9,0xBA,0xBB,0xBC,0xBD,0xBE,0xBF, \
 393:../Dave/Generated/FATFS/ff_Src/ff.c **** 					0xC0,0xC1,0xC2,0xC3,0xC4,0xC5,0xC6,0xC7,0xC8,0xC9,0xCA,0xCB,0xCC,0xCD,0xCE,0xCF, \
 394:../Dave/Generated/FATFS/ff_Src/ff.c **** 					0xD0,0xD1,0xD2,0xD3,0xD4,0xD5,0xA4,0xA5,0xA6,0xD9,0xDA,0xDB,0xDC,0xA7,0xA8,0xDF, \
 395:../Dave/Generated/FATFS/ff_Src/ff.c **** 					0xA9,0xAA,0xAC,0xAD,0xB5,0xB6,0xB7,0xB8,0xBD,0xBE,0xC6,0xC7,0xCF,0xCF,0xD0,0xEF, \
 396:../Dave/Generated/FATFS/ff_Src/ff.c **** 					0xF0,0xF1,0xD1,0xD2,0xD3,0xF5,0xD4,0xF7,0xF8,0xF9,0xD5,0x96,0x95,0x98,0xFE,0xFF}
 397:../Dave/Generated/FATFS/ff_Src/ff.c **** 
 398:../Dave/Generated/FATFS/ff_Src/ff.c **** 
 399:../Dave/Generated/FATFS/ff_Src/ff.c **** /* DBCS code range |----- 1st byte -----|  |----------- 2nd byte -----------| */
 400:../Dave/Generated/FATFS/ff_Src/ff.c **** #define TBL_DC932 {0x81, 0x9F, 0xE0, 0xFC, 0x40, 0x7E, 0x80, 0xFC, 0x00, 0x00}
 401:../Dave/Generated/FATFS/ff_Src/ff.c **** #define TBL_DC936 {0x81, 0xFE, 0x00, 0x00, 0x40, 0x7E, 0x80, 0xFE, 0x00, 0x00}
 402:../Dave/Generated/FATFS/ff_Src/ff.c **** #define TBL_DC949 {0x81, 0xFE, 0x00, 0x00, 0x41, 0x5A, 0x61, 0x7A, 0x81, 0xFE}
 403:../Dave/Generated/FATFS/ff_Src/ff.c **** #define TBL_DC950 {0x81, 0xFE, 0x00, 0x00, 0x40, 0x7E, 0xA1, 0xFE, 0x00, 0x00}
 404:../Dave/Generated/FATFS/ff_Src/ff.c **** 
 405:../Dave/Generated/FATFS/ff_Src/ff.c **** 
 406:../Dave/Generated/FATFS/ff_Src/ff.c **** /* Macros for table definitions */
 407:../Dave/Generated/FATFS/ff_Src/ff.c **** #define MERGE_2STR(a, b) a ## b
 408:../Dave/Generated/FATFS/ff_Src/ff.c **** #define MKCVTBL(hd, cp) MERGE_2STR(hd, cp)
 409:../Dave/Generated/FATFS/ff_Src/ff.c **** 
 410:../Dave/Generated/FATFS/ff_Src/ff.c **** 
 411:../Dave/Generated/FATFS/ff_Src/ff.c **** 
 412:../Dave/Generated/FATFS/ff_Src/ff.c **** 
 413:../Dave/Generated/FATFS/ff_Src/ff.c **** /*--------------------------------------------------------------------------
 414:../Dave/Generated/FATFS/ff_Src/ff.c **** 
 415:../Dave/Generated/FATFS/ff_Src/ff.c ****    Module Private Work Area
 416:../Dave/Generated/FATFS/ff_Src/ff.c **** 
 417:../Dave/Generated/FATFS/ff_Src/ff.c **** ---------------------------------------------------------------------------*/
 418:../Dave/Generated/FATFS/ff_Src/ff.c **** /* Remark: Variables defined here without initial value shall be guaranteed
 419:../Dave/Generated/FATFS/ff_Src/ff.c **** /  zero/null at start-up. If not, the linker option or start-up routine is
 420:../Dave/Generated/FATFS/ff_Src/ff.c **** /  not compliance with C standard. */
 421:../Dave/Generated/FATFS/ff_Src/ff.c **** 
 422:../Dave/Generated/FATFS/ff_Src/ff.c **** /*--------------------------------*/
 423:../Dave/Generated/FATFS/ff_Src/ff.c **** /* File/Volume controls           */
 424:../Dave/Generated/FATFS/ff_Src/ff.c **** /*--------------------------------*/
 425:../Dave/Generated/FATFS/ff_Src/ff.c **** 
 426:../Dave/Generated/FATFS/ff_Src/ff.c **** #if FF_VOLUMES < 1 || FF_VOLUMES > 10
 427:../Dave/Generated/FATFS/ff_Src/ff.c **** #error Wrong FF_VOLUMES setting
 428:../Dave/Generated/FATFS/ff_Src/ff.c **** #endif
 429:../Dave/Generated/FATFS/ff_Src/ff.c **** static FATFS* FatFs[FF_VOLUMES];	/* Pointer to the filesystem objects (logical drives) */
 430:../Dave/Generated/FATFS/ff_Src/ff.c **** static WORD Fsid;					/* Filesystem mount ID */
 431:../Dave/Generated/FATFS/ff_Src/ff.c **** 
 432:../Dave/Generated/FATFS/ff_Src/ff.c **** #if FF_FS_RPATH != 0
 433:../Dave/Generated/FATFS/ff_Src/ff.c **** static BYTE CurrVol;				/* Current drive */
 434:../Dave/Generated/FATFS/ff_Src/ff.c **** #endif
 435:../Dave/Generated/FATFS/ff_Src/ff.c **** 
 436:../Dave/Generated/FATFS/ff_Src/ff.c **** #if FF_FS_LOCK != 0
 437:../Dave/Generated/FATFS/ff_Src/ff.c **** static FILESEM Files[FF_FS_LOCK];	/* Open object lock semaphores */
 438:../Dave/Generated/FATFS/ff_Src/ff.c **** #endif
 439:../Dave/Generated/FATFS/ff_Src/ff.c **** 
 440:../Dave/Generated/FATFS/ff_Src/ff.c **** #if FF_STR_VOLUME_ID
 441:../Dave/Generated/FATFS/ff_Src/ff.c **** #ifdef FF_VOLUME_STRS
 442:../Dave/Generated/FATFS/ff_Src/ff.c **** static const char* const VolumeStr[FF_VOLUMES] = {FF_VOLUME_STRS};	/* Pre-defined volume ID */
 443:../Dave/Generated/FATFS/ff_Src/ff.c **** #endif
 444:../Dave/Generated/FATFS/ff_Src/ff.c **** #endif
 445:../Dave/Generated/FATFS/ff_Src/ff.c **** 
 446:../Dave/Generated/FATFS/ff_Src/ff.c **** 
 447:../Dave/Generated/FATFS/ff_Src/ff.c **** /*--------------------------------*/
 448:../Dave/Generated/FATFS/ff_Src/ff.c **** /* LFN/Directory working buffer   */
 449:../Dave/Generated/FATFS/ff_Src/ff.c **** /*--------------------------------*/
 450:../Dave/Generated/FATFS/ff_Src/ff.c **** 
 451:../Dave/Generated/FATFS/ff_Src/ff.c **** #if FF_USE_LFN == 0		/* Non-LFN configuration */
 452:../Dave/Generated/FATFS/ff_Src/ff.c **** #if FF_FS_EXFAT
 453:../Dave/Generated/FATFS/ff_Src/ff.c **** #error LFN must be enabled when enable exFAT
 454:../Dave/Generated/FATFS/ff_Src/ff.c **** #endif
 455:../Dave/Generated/FATFS/ff_Src/ff.c **** #define DEF_NAMBUF
 456:../Dave/Generated/FATFS/ff_Src/ff.c **** #define INIT_NAMBUF(fs)
 457:../Dave/Generated/FATFS/ff_Src/ff.c **** #define FREE_NAMBUF()
 458:../Dave/Generated/FATFS/ff_Src/ff.c **** #define LEAVE_MKFS(res)	return res
 459:../Dave/Generated/FATFS/ff_Src/ff.c **** 
 460:../Dave/Generated/FATFS/ff_Src/ff.c **** #else					/* LFN configurations */
 461:../Dave/Generated/FATFS/ff_Src/ff.c **** #if FF_MAX_LFN < 12 || FF_MAX_LFN > 255
 462:../Dave/Generated/FATFS/ff_Src/ff.c **** #error Wrong setting of FF_MAX_LFN
 463:../Dave/Generated/FATFS/ff_Src/ff.c **** #endif
 464:../Dave/Generated/FATFS/ff_Src/ff.c **** #if FF_LFN_BUF < FF_SFN_BUF || FF_SFN_BUF < 12
 465:../Dave/Generated/FATFS/ff_Src/ff.c **** #error Wrong setting of FF_LFN_BUF or FF_SFN_BUF
 466:../Dave/Generated/FATFS/ff_Src/ff.c **** #endif
 467:../Dave/Generated/FATFS/ff_Src/ff.c **** #if FF_LFN_UNICODE < 0 || FF_LFN_UNICODE > 3
 468:../Dave/Generated/FATFS/ff_Src/ff.c **** #error Wrong setting of FF_LFN_UNICODE
 469:../Dave/Generated/FATFS/ff_Src/ff.c **** #endif
 470:../Dave/Generated/FATFS/ff_Src/ff.c **** static const BYTE LfnOfs[] = {1,3,5,7,9,14,16,18,20,22,24,28,30};	/* FAT: Offset of LFN characters 
 471:../Dave/Generated/FATFS/ff_Src/ff.c **** #define MAXDIRB(nc)	((nc + 44U) / 15 * SZDIRE)	/* exFAT: Size of directory entry block scratchpad b
 472:../Dave/Generated/FATFS/ff_Src/ff.c **** 
 473:../Dave/Generated/FATFS/ff_Src/ff.c **** #if FF_USE_LFN == 1		/* LFN enabled with static working buffer */
 474:../Dave/Generated/FATFS/ff_Src/ff.c **** #if FF_FS_EXFAT
 475:../Dave/Generated/FATFS/ff_Src/ff.c **** static BYTE	DirBuf[MAXDIRB(FF_MAX_LFN)];	/* Directory entry block scratchpad buffer */
 476:../Dave/Generated/FATFS/ff_Src/ff.c **** #endif
 477:../Dave/Generated/FATFS/ff_Src/ff.c **** static WCHAR LfnBuf[FF_MAX_LFN + 1];		/* LFN working buffer */
 478:../Dave/Generated/FATFS/ff_Src/ff.c **** #define DEF_NAMBUF
 479:../Dave/Generated/FATFS/ff_Src/ff.c **** #define INIT_NAMBUF(fs)
 480:../Dave/Generated/FATFS/ff_Src/ff.c **** #define FREE_NAMBUF()
 481:../Dave/Generated/FATFS/ff_Src/ff.c **** #define LEAVE_MKFS(res)	return res
 482:../Dave/Generated/FATFS/ff_Src/ff.c **** 
 483:../Dave/Generated/FATFS/ff_Src/ff.c **** #elif FF_USE_LFN == 2 	/* LFN enabled with dynamic working buffer on the stack */
 484:../Dave/Generated/FATFS/ff_Src/ff.c **** #if FF_FS_EXFAT
 485:../Dave/Generated/FATFS/ff_Src/ff.c **** #define DEF_NAMBUF		WCHAR lbuf[FF_MAX_LFN+1]; BYTE dbuf[MAXDIRB(FF_MAX_LFN)];	/* LFN working buffer
 486:../Dave/Generated/FATFS/ff_Src/ff.c **** #define INIT_NAMBUF(fs)	{ (fs)->lfnbuf = lbuf; (fs)->dirbuf = dbuf; }
 487:../Dave/Generated/FATFS/ff_Src/ff.c **** #define FREE_NAMBUF()
 488:../Dave/Generated/FATFS/ff_Src/ff.c **** #else
 489:../Dave/Generated/FATFS/ff_Src/ff.c **** #define DEF_NAMBUF		WCHAR lbuf[FF_MAX_LFN+1];	/* LFN working buffer */
 490:../Dave/Generated/FATFS/ff_Src/ff.c **** #define INIT_NAMBUF(fs)	{ (fs)->lfnbuf = lbuf; }
 491:../Dave/Generated/FATFS/ff_Src/ff.c **** #define FREE_NAMBUF()
 492:../Dave/Generated/FATFS/ff_Src/ff.c **** #endif
 493:../Dave/Generated/FATFS/ff_Src/ff.c **** #define LEAVE_MKFS(res)	return res
 494:../Dave/Generated/FATFS/ff_Src/ff.c **** 
 495:../Dave/Generated/FATFS/ff_Src/ff.c **** #elif FF_USE_LFN == 3 	/* LFN enabled with dynamic working buffer on the heap */
 496:../Dave/Generated/FATFS/ff_Src/ff.c **** #if FF_FS_EXFAT
 497:../Dave/Generated/FATFS/ff_Src/ff.c **** #define DEF_NAMBUF		WCHAR *lfn;	/* Pointer to LFN working buffer and directory entry block scratchp
 498:../Dave/Generated/FATFS/ff_Src/ff.c **** #define INIT_NAMBUF(fs)	{ lfn = ff_memalloc((FF_MAX_LFN+1)*2 + MAXDIRB(FF_MAX_LFN)); if (!lfn) LEAV
 499:../Dave/Generated/FATFS/ff_Src/ff.c **** #define FREE_NAMBUF()	ff_memfree(lfn)
 500:../Dave/Generated/FATFS/ff_Src/ff.c **** #else
 501:../Dave/Generated/FATFS/ff_Src/ff.c **** #define DEF_NAMBUF		WCHAR *lfn;	/* Pointer to LFN working buffer */
 502:../Dave/Generated/FATFS/ff_Src/ff.c **** #define INIT_NAMBUF(fs)	{ lfn = ff_memalloc((FF_MAX_LFN+1)*2); if (!lfn) LEAVE_FF(fs, FR_NOT_ENOUGH
 503:../Dave/Generated/FATFS/ff_Src/ff.c **** #define FREE_NAMBUF()	ff_memfree(lfn)
 504:../Dave/Generated/FATFS/ff_Src/ff.c **** #endif
 505:../Dave/Generated/FATFS/ff_Src/ff.c **** #define LEAVE_MKFS(res)	{ if (!work) ff_memfree(buf); return res; }
 506:../Dave/Generated/FATFS/ff_Src/ff.c **** #define MAX_MALLOC	0x8000	/* Must be >=FF_MAX_SS */
 507:../Dave/Generated/FATFS/ff_Src/ff.c **** 
 508:../Dave/Generated/FATFS/ff_Src/ff.c **** #else
 509:../Dave/Generated/FATFS/ff_Src/ff.c **** #error Wrong setting of FF_USE_LFN
 510:../Dave/Generated/FATFS/ff_Src/ff.c **** 
 511:../Dave/Generated/FATFS/ff_Src/ff.c **** #endif	/* FF_USE_LFN == 1 */
 512:../Dave/Generated/FATFS/ff_Src/ff.c **** #endif	/* FF_USE_LFN == 0 */
 513:../Dave/Generated/FATFS/ff_Src/ff.c **** 
 514:../Dave/Generated/FATFS/ff_Src/ff.c **** 
 515:../Dave/Generated/FATFS/ff_Src/ff.c **** 
 516:../Dave/Generated/FATFS/ff_Src/ff.c **** /*--------------------------------*/
 517:../Dave/Generated/FATFS/ff_Src/ff.c **** /* Code conversion tables         */
 518:../Dave/Generated/FATFS/ff_Src/ff.c **** /*--------------------------------*/
 519:../Dave/Generated/FATFS/ff_Src/ff.c **** 
 520:../Dave/Generated/FATFS/ff_Src/ff.c **** #if FF_CODE_PAGE == 0		/* Run-time code page configuration */
 521:../Dave/Generated/FATFS/ff_Src/ff.c **** #define CODEPAGE CodePage
 522:../Dave/Generated/FATFS/ff_Src/ff.c **** static WORD CodePage;	/* Current code page */
 523:../Dave/Generated/FATFS/ff_Src/ff.c **** static const BYTE *ExCvt, *DbcTbl;	/* Pointer to current SBCS up-case table and DBCS code range tab
 524:../Dave/Generated/FATFS/ff_Src/ff.c **** static const BYTE Ct437[] = TBL_CT437;
 525:../Dave/Generated/FATFS/ff_Src/ff.c **** static const BYTE Ct720[] = TBL_CT720;
 526:../Dave/Generated/FATFS/ff_Src/ff.c **** static const BYTE Ct737[] = TBL_CT737;
 527:../Dave/Generated/FATFS/ff_Src/ff.c **** static const BYTE Ct771[] = TBL_CT771;
 528:../Dave/Generated/FATFS/ff_Src/ff.c **** static const BYTE Ct775[] = TBL_CT775;
 529:../Dave/Generated/FATFS/ff_Src/ff.c **** static const BYTE Ct850[] = TBL_CT850;
 530:../Dave/Generated/FATFS/ff_Src/ff.c **** static const BYTE Ct852[] = TBL_CT852;
 531:../Dave/Generated/FATFS/ff_Src/ff.c **** static const BYTE Ct855[] = TBL_CT855;
 532:../Dave/Generated/FATFS/ff_Src/ff.c **** static const BYTE Ct857[] = TBL_CT857;
 533:../Dave/Generated/FATFS/ff_Src/ff.c **** static const BYTE Ct860[] = TBL_CT860;
 534:../Dave/Generated/FATFS/ff_Src/ff.c **** static const BYTE Ct861[] = TBL_CT861;
 535:../Dave/Generated/FATFS/ff_Src/ff.c **** static const BYTE Ct862[] = TBL_CT862;
 536:../Dave/Generated/FATFS/ff_Src/ff.c **** static const BYTE Ct863[] = TBL_CT863;
 537:../Dave/Generated/FATFS/ff_Src/ff.c **** static const BYTE Ct864[] = TBL_CT864;
 538:../Dave/Generated/FATFS/ff_Src/ff.c **** static const BYTE Ct865[] = TBL_CT865;
 539:../Dave/Generated/FATFS/ff_Src/ff.c **** static const BYTE Ct866[] = TBL_CT866;
 540:../Dave/Generated/FATFS/ff_Src/ff.c **** static const BYTE Ct869[] = TBL_CT869;
 541:../Dave/Generated/FATFS/ff_Src/ff.c **** static const BYTE Dc932[] = TBL_DC932;
 542:../Dave/Generated/FATFS/ff_Src/ff.c **** static const BYTE Dc936[] = TBL_DC936;
 543:../Dave/Generated/FATFS/ff_Src/ff.c **** static const BYTE Dc949[] = TBL_DC949;
 544:../Dave/Generated/FATFS/ff_Src/ff.c **** static const BYTE Dc950[] = TBL_DC950;
 545:../Dave/Generated/FATFS/ff_Src/ff.c **** 
 546:../Dave/Generated/FATFS/ff_Src/ff.c **** #elif FF_CODE_PAGE < 900	/* Static code page configuration (SBCS) */
 547:../Dave/Generated/FATFS/ff_Src/ff.c **** #define CODEPAGE FF_CODE_PAGE
 548:../Dave/Generated/FATFS/ff_Src/ff.c **** static const BYTE ExCvt[] = MKCVTBL(TBL_CT, FF_CODE_PAGE);
 549:../Dave/Generated/FATFS/ff_Src/ff.c **** 
 550:../Dave/Generated/FATFS/ff_Src/ff.c **** #else					/* Static code page configuration (DBCS) */
 551:../Dave/Generated/FATFS/ff_Src/ff.c **** #define CODEPAGE FF_CODE_PAGE
 552:../Dave/Generated/FATFS/ff_Src/ff.c **** static const BYTE DbcTbl[] = MKCVTBL(TBL_DC, FF_CODE_PAGE);
 553:../Dave/Generated/FATFS/ff_Src/ff.c **** 
 554:../Dave/Generated/FATFS/ff_Src/ff.c **** #endif
 555:../Dave/Generated/FATFS/ff_Src/ff.c **** 
 556:../Dave/Generated/FATFS/ff_Src/ff.c **** 
 557:../Dave/Generated/FATFS/ff_Src/ff.c **** 
 558:../Dave/Generated/FATFS/ff_Src/ff.c **** 
 559:../Dave/Generated/FATFS/ff_Src/ff.c **** /*--------------------------------------------------------------------------
 560:../Dave/Generated/FATFS/ff_Src/ff.c **** 
 561:../Dave/Generated/FATFS/ff_Src/ff.c ****    Module Private Functions
 562:../Dave/Generated/FATFS/ff_Src/ff.c **** 
 563:../Dave/Generated/FATFS/ff_Src/ff.c **** ---------------------------------------------------------------------------*/
 564:../Dave/Generated/FATFS/ff_Src/ff.c **** 
 565:../Dave/Generated/FATFS/ff_Src/ff.c **** 
 566:../Dave/Generated/FATFS/ff_Src/ff.c **** /*-----------------------------------------------------------------------*/
 567:../Dave/Generated/FATFS/ff_Src/ff.c **** /* Load/Store multi-byte word in the FAT structure                       */
 568:../Dave/Generated/FATFS/ff_Src/ff.c **** /*-----------------------------------------------------------------------*/
 569:../Dave/Generated/FATFS/ff_Src/ff.c **** 
 570:../Dave/Generated/FATFS/ff_Src/ff.c **** static WORD ld_word (const BYTE* ptr)	/*	 Load a 2-byte little-endian word */
 571:../Dave/Generated/FATFS/ff_Src/ff.c **** {
 207              	 .loc 1 571 0
 208              	 .cfi_startproc
 209              	 
 210              	 
 211              	 
 212 0000 80B4     	 push {r7}
 213              	.LCFI0:
 214              	 .cfi_def_cfa_offset 4
 215              	 .cfi_offset 7,-4
 216 0002 85B0     	 sub sp,sp,#20
 217              	.LCFI1:
 218              	 .cfi_def_cfa_offset 24
 219 0004 00AF     	 add r7,sp,#0
 220              	.LCFI2:
 221              	 .cfi_def_cfa_register 7
 222 0006 7860     	 str r0,[r7,#4]
 572:../Dave/Generated/FATFS/ff_Src/ff.c **** 	WORD rv;
 573:../Dave/Generated/FATFS/ff_Src/ff.c **** 
 574:../Dave/Generated/FATFS/ff_Src/ff.c **** 	rv = ptr[1];
 223              	 .loc 1 574 0
 224 0008 7B68     	 ldr r3,[r7,#4]
 225 000a 0133     	 adds r3,r3,#1
 226 000c 1B78     	 ldrb r3,[r3]
 227 000e FB81     	 strh r3,[r7,#14]
 575:../Dave/Generated/FATFS/ff_Src/ff.c **** 	rv = rv << 8 | ptr[0];
 228              	 .loc 1 575 0
 229 0010 FB89     	 ldrh r3,[r7,#14]
 230 0012 1B02     	 lsls r3,r3,#8
 231 0014 9AB2     	 uxth r2,r3
 232 0016 7B68     	 ldr r3,[r7,#4]
 233 0018 1B78     	 ldrb r3,[r3]
 234 001a 9BB2     	 uxth r3,r3
 235 001c 1343     	 orrs r3,r3,r2
 236 001e 9BB2     	 uxth r3,r3
 237 0020 FB81     	 strh r3,[r7,#14]
 576:../Dave/Generated/FATFS/ff_Src/ff.c **** 	return rv;
 238              	 .loc 1 576 0
 239 0022 FB89     	 ldrh r3,[r7,#14]
 577:../Dave/Generated/FATFS/ff_Src/ff.c **** }
 240              	 .loc 1 577 0
 241 0024 1846     	 mov r0,r3
 242 0026 1437     	 adds r7,r7,#20
 243              	.LCFI3:
 244              	 .cfi_def_cfa_offset 4
 245 0028 BD46     	 mov sp,r7
 246              	.LCFI4:
 247              	 .cfi_def_cfa_register 13
 248              	 
 249 002a 5DF8047B 	 ldr r7,[sp],#4
 250              	.LCFI5:
 251              	 .cfi_restore 7
 252              	 .cfi_def_cfa_offset 0
 253 002e 7047     	 bx lr
 254              	 .cfi_endproc
 255              	.LFE0:
 257              	 .section .text.ld_dword,"ax",%progbits
 258              	 .align 2
 259              	 .thumb
 260              	 .thumb_func
 262              	ld_dword:
 263              	.LFB1:
 578:../Dave/Generated/FATFS/ff_Src/ff.c **** 
 579:../Dave/Generated/FATFS/ff_Src/ff.c **** static DWORD ld_dword (const BYTE* ptr)	/* Load a 4-byte little-endian word */
 580:../Dave/Generated/FATFS/ff_Src/ff.c **** {
 264              	 .loc 1 580 0
 265              	 .cfi_startproc
 266              	 
 267              	 
 268              	 
 269 0000 80B4     	 push {r7}
 270              	.LCFI6:
 271              	 .cfi_def_cfa_offset 4
 272              	 .cfi_offset 7,-4
 273 0002 85B0     	 sub sp,sp,#20
 274              	.LCFI7:
 275              	 .cfi_def_cfa_offset 24
 276 0004 00AF     	 add r7,sp,#0
 277              	.LCFI8:
 278              	 .cfi_def_cfa_register 7
 279 0006 7860     	 str r0,[r7,#4]
 581:../Dave/Generated/FATFS/ff_Src/ff.c **** 	DWORD rv;
 582:../Dave/Generated/FATFS/ff_Src/ff.c **** 
 583:../Dave/Generated/FATFS/ff_Src/ff.c **** 	rv = ptr[3];
 280              	 .loc 1 583 0
 281 0008 7B68     	 ldr r3,[r7,#4]
 282 000a 0333     	 adds r3,r3,#3
 283 000c 1B78     	 ldrb r3,[r3]
 284 000e FB60     	 str r3,[r7,#12]
 584:../Dave/Generated/FATFS/ff_Src/ff.c **** 	rv = rv << 8 | ptr[2];
 285              	 .loc 1 584 0
 286 0010 FB68     	 ldr r3,[r7,#12]
 287 0012 1B02     	 lsls r3,r3,#8
 288 0014 7A68     	 ldr r2,[r7,#4]
 289 0016 0232     	 adds r2,r2,#2
 290 0018 1278     	 ldrb r2,[r2]
 291 001a 1343     	 orrs r3,r3,r2
 292 001c FB60     	 str r3,[r7,#12]
 585:../Dave/Generated/FATFS/ff_Src/ff.c **** 	rv = rv << 8 | ptr[1];
 293              	 .loc 1 585 0
 294 001e FB68     	 ldr r3,[r7,#12]
 295 0020 1B02     	 lsls r3,r3,#8
 296 0022 7A68     	 ldr r2,[r7,#4]
 297 0024 0132     	 adds r2,r2,#1
 298 0026 1278     	 ldrb r2,[r2]
 299 0028 1343     	 orrs r3,r3,r2
 300 002a FB60     	 str r3,[r7,#12]
 586:../Dave/Generated/FATFS/ff_Src/ff.c **** 	rv = rv << 8 | ptr[0];
 301              	 .loc 1 586 0
 302 002c FB68     	 ldr r3,[r7,#12]
 303 002e 1B02     	 lsls r3,r3,#8
 304 0030 7A68     	 ldr r2,[r7,#4]
 305 0032 1278     	 ldrb r2,[r2]
 306 0034 1343     	 orrs r3,r3,r2
 307 0036 FB60     	 str r3,[r7,#12]
 587:../Dave/Generated/FATFS/ff_Src/ff.c **** 	return rv;
 308              	 .loc 1 587 0
 309 0038 FB68     	 ldr r3,[r7,#12]
 588:../Dave/Generated/FATFS/ff_Src/ff.c **** }
 310              	 .loc 1 588 0
 311 003a 1846     	 mov r0,r3
 312 003c 1437     	 adds r7,r7,#20
 313              	.LCFI9:
 314              	 .cfi_def_cfa_offset 4
 315 003e BD46     	 mov sp,r7
 316              	.LCFI10:
 317              	 .cfi_def_cfa_register 13
 318              	 
 319 0040 5DF8047B 	 ldr r7,[sp],#4
 320              	.LCFI11:
 321              	 .cfi_restore 7
 322              	 .cfi_def_cfa_offset 0
 323 0044 7047     	 bx lr
 324              	 .cfi_endproc
 325              	.LFE1:
 327 0046 00BF     	 .section .text.st_word,"ax",%progbits
 328              	 .align 2
 329              	 .thumb
 330              	 .thumb_func
 332              	st_word:
 333              	.LFB2:
 589:../Dave/Generated/FATFS/ff_Src/ff.c **** 
 590:../Dave/Generated/FATFS/ff_Src/ff.c **** #if FF_FS_EXFAT
 591:../Dave/Generated/FATFS/ff_Src/ff.c **** static QWORD ld_qword (const BYTE* ptr)	/* Load an 8-byte little-endian word */
 592:../Dave/Generated/FATFS/ff_Src/ff.c **** {
 593:../Dave/Generated/FATFS/ff_Src/ff.c **** 	QWORD rv;
 594:../Dave/Generated/FATFS/ff_Src/ff.c **** 
 595:../Dave/Generated/FATFS/ff_Src/ff.c **** 	rv = ptr[7];
 596:../Dave/Generated/FATFS/ff_Src/ff.c **** 	rv = rv << 8 | ptr[6];
 597:../Dave/Generated/FATFS/ff_Src/ff.c **** 	rv = rv << 8 | ptr[5];
 598:../Dave/Generated/FATFS/ff_Src/ff.c **** 	rv = rv << 8 | ptr[4];
 599:../Dave/Generated/FATFS/ff_Src/ff.c **** 	rv = rv << 8 | ptr[3];
 600:../Dave/Generated/FATFS/ff_Src/ff.c **** 	rv = rv << 8 | ptr[2];
 601:../Dave/Generated/FATFS/ff_Src/ff.c **** 	rv = rv << 8 | ptr[1];
 602:../Dave/Generated/FATFS/ff_Src/ff.c **** 	rv = rv << 8 | ptr[0];
 603:../Dave/Generated/FATFS/ff_Src/ff.c **** 	return rv;
 604:../Dave/Generated/FATFS/ff_Src/ff.c **** }
 605:../Dave/Generated/FATFS/ff_Src/ff.c **** #endif
 606:../Dave/Generated/FATFS/ff_Src/ff.c **** 
 607:../Dave/Generated/FATFS/ff_Src/ff.c **** #if !FF_FS_READONLY
 608:../Dave/Generated/FATFS/ff_Src/ff.c **** static void st_word (BYTE* ptr, WORD val)	/* Store a 2-byte word in little-endian */
 609:../Dave/Generated/FATFS/ff_Src/ff.c **** {
 334              	 .loc 1 609 0
 335              	 .cfi_startproc
 336              	 
 337              	 
 338              	 
 339 0000 80B4     	 push {r7}
 340              	.LCFI12:
 341              	 .cfi_def_cfa_offset 4
 342              	 .cfi_offset 7,-4
 343 0002 83B0     	 sub sp,sp,#12
 344              	.LCFI13:
 345              	 .cfi_def_cfa_offset 16
 346 0004 00AF     	 add r7,sp,#0
 347              	.LCFI14:
 348              	 .cfi_def_cfa_register 7
 349 0006 7860     	 str r0,[r7,#4]
 350 0008 0B46     	 mov r3,r1
 351 000a 7B80     	 strh r3,[r7,#2]
 610:../Dave/Generated/FATFS/ff_Src/ff.c **** 	*ptr++ = (BYTE)val; val >>= 8;
 352              	 .loc 1 610 0
 353 000c 7B68     	 ldr r3,[r7,#4]
 354 000e 5A1C     	 adds r2,r3,#1
 355 0010 7A60     	 str r2,[r7,#4]
 356 0012 7A88     	 ldrh r2,[r7,#2]
 357 0014 D2B2     	 uxtb r2,r2
 358 0016 1A70     	 strb r2,[r3]
 359 0018 7B88     	 ldrh r3,[r7,#2]
 360 001a 1B0A     	 lsrs r3,r3,#8
 361 001c 7B80     	 strh r3,[r7,#2]
 611:../Dave/Generated/FATFS/ff_Src/ff.c **** 	*ptr++ = (BYTE)val;
 362              	 .loc 1 611 0
 363 001e 7B68     	 ldr r3,[r7,#4]
 364 0020 5A1C     	 adds r2,r3,#1
 365 0022 7A60     	 str r2,[r7,#4]
 366 0024 7A88     	 ldrh r2,[r7,#2]
 367 0026 D2B2     	 uxtb r2,r2
 368 0028 1A70     	 strb r2,[r3]
 612:../Dave/Generated/FATFS/ff_Src/ff.c **** }
 369              	 .loc 1 612 0
 370 002a 0C37     	 adds r7,r7,#12
 371              	.LCFI15:
 372              	 .cfi_def_cfa_offset 4
 373 002c BD46     	 mov sp,r7
 374              	.LCFI16:
 375              	 .cfi_def_cfa_register 13
 376              	 
 377 002e 5DF8047B 	 ldr r7,[sp],#4
 378              	.LCFI17:
 379              	 .cfi_restore 7
 380              	 .cfi_def_cfa_offset 0
 381 0032 7047     	 bx lr
 382              	 .cfi_endproc
 383              	.LFE2:
 385              	 .section .text.st_dword,"ax",%progbits
 386              	 .align 2
 387              	 .thumb
 388              	 .thumb_func
 390              	st_dword:
 391              	.LFB3:
 613:../Dave/Generated/FATFS/ff_Src/ff.c **** 
 614:../Dave/Generated/FATFS/ff_Src/ff.c **** static void st_dword (BYTE* ptr, DWORD val)	/* Store a 4-byte word in little-endian */
 615:../Dave/Generated/FATFS/ff_Src/ff.c **** {
 392              	 .loc 1 615 0
 393              	 .cfi_startproc
 394              	 
 395              	 
 396              	 
 397 0000 80B4     	 push {r7}
 398              	.LCFI18:
 399              	 .cfi_def_cfa_offset 4
 400              	 .cfi_offset 7,-4
 401 0002 83B0     	 sub sp,sp,#12
 402              	.LCFI19:
 403              	 .cfi_def_cfa_offset 16
 404 0004 00AF     	 add r7,sp,#0
 405              	.LCFI20:
 406              	 .cfi_def_cfa_register 7
 407 0006 7860     	 str r0,[r7,#4]
 408 0008 3960     	 str r1,[r7]
 616:../Dave/Generated/FATFS/ff_Src/ff.c **** 	*ptr++ = (BYTE)val; val >>= 8;
 409              	 .loc 1 616 0
 410 000a 7B68     	 ldr r3,[r7,#4]
 411 000c 5A1C     	 adds r2,r3,#1
 412 000e 7A60     	 str r2,[r7,#4]
 413 0010 3A68     	 ldr r2,[r7]
 414 0012 D2B2     	 uxtb r2,r2
 415 0014 1A70     	 strb r2,[r3]
 416 0016 3B68     	 ldr r3,[r7]
 417 0018 1B0A     	 lsrs r3,r3,#8
 418 001a 3B60     	 str r3,[r7]
 617:../Dave/Generated/FATFS/ff_Src/ff.c **** 	*ptr++ = (BYTE)val; val >>= 8;
 419              	 .loc 1 617 0
 420 001c 7B68     	 ldr r3,[r7,#4]
 421 001e 5A1C     	 adds r2,r3,#1
 422 0020 7A60     	 str r2,[r7,#4]
 423 0022 3A68     	 ldr r2,[r7]
 424 0024 D2B2     	 uxtb r2,r2
 425 0026 1A70     	 strb r2,[r3]
 426 0028 3B68     	 ldr r3,[r7]
 427 002a 1B0A     	 lsrs r3,r3,#8
 428 002c 3B60     	 str r3,[r7]
 618:../Dave/Generated/FATFS/ff_Src/ff.c **** 	*ptr++ = (BYTE)val; val >>= 8;
 429              	 .loc 1 618 0
 430 002e 7B68     	 ldr r3,[r7,#4]
 431 0030 5A1C     	 adds r2,r3,#1
 432 0032 7A60     	 str r2,[r7,#4]
 433 0034 3A68     	 ldr r2,[r7]
 434 0036 D2B2     	 uxtb r2,r2
 435 0038 1A70     	 strb r2,[r3]
 436 003a 3B68     	 ldr r3,[r7]
 437 003c 1B0A     	 lsrs r3,r3,#8
 438 003e 3B60     	 str r3,[r7]
 619:../Dave/Generated/FATFS/ff_Src/ff.c **** 	*ptr++ = (BYTE)val;
 439              	 .loc 1 619 0
 440 0040 7B68     	 ldr r3,[r7,#4]
 441 0042 5A1C     	 adds r2,r3,#1
 442 0044 7A60     	 str r2,[r7,#4]
 443 0046 3A68     	 ldr r2,[r7]
 444 0048 D2B2     	 uxtb r2,r2
 445 004a 1A70     	 strb r2,[r3]
 620:../Dave/Generated/FATFS/ff_Src/ff.c **** }
 446              	 .loc 1 620 0
 447 004c 0C37     	 adds r7,r7,#12
 448              	.LCFI21:
 449              	 .cfi_def_cfa_offset 4
 450 004e BD46     	 mov sp,r7
 451              	.LCFI22:
 452              	 .cfi_def_cfa_register 13
 453              	 
 454 0050 5DF8047B 	 ldr r7,[sp],#4
 455              	.LCFI23:
 456              	 .cfi_restore 7
 457              	 .cfi_def_cfa_offset 0
 458 0054 7047     	 bx lr
 459              	 .cfi_endproc
 460              	.LFE3:
 462 0056 00BF     	 .section .text.mem_cpy,"ax",%progbits
 463              	 .align 2
 464              	 .thumb
 465              	 .thumb_func
 467              	mem_cpy:
 468              	.LFB4:
 621:../Dave/Generated/FATFS/ff_Src/ff.c **** 
 622:../Dave/Generated/FATFS/ff_Src/ff.c **** #if FF_FS_EXFAT
 623:../Dave/Generated/FATFS/ff_Src/ff.c **** static void st_qword (BYTE* ptr, QWORD val)	/* Store an 8-byte word in little-endian */
 624:../Dave/Generated/FATFS/ff_Src/ff.c **** {
 625:../Dave/Generated/FATFS/ff_Src/ff.c **** 	*ptr++ = (BYTE)val; val >>= 8;
 626:../Dave/Generated/FATFS/ff_Src/ff.c **** 	*ptr++ = (BYTE)val; val >>= 8;
 627:../Dave/Generated/FATFS/ff_Src/ff.c **** 	*ptr++ = (BYTE)val; val >>= 8;
 628:../Dave/Generated/FATFS/ff_Src/ff.c **** 	*ptr++ = (BYTE)val; val >>= 8;
 629:../Dave/Generated/FATFS/ff_Src/ff.c **** 	*ptr++ = (BYTE)val; val >>= 8;
 630:../Dave/Generated/FATFS/ff_Src/ff.c **** 	*ptr++ = (BYTE)val; val >>= 8;
 631:../Dave/Generated/FATFS/ff_Src/ff.c **** 	*ptr++ = (BYTE)val; val >>= 8;
 632:../Dave/Generated/FATFS/ff_Src/ff.c **** 	*ptr++ = (BYTE)val;
 633:../Dave/Generated/FATFS/ff_Src/ff.c **** }
 634:../Dave/Generated/FATFS/ff_Src/ff.c **** #endif
 635:../Dave/Generated/FATFS/ff_Src/ff.c **** #endif	/* !FF_FS_READONLY */
 636:../Dave/Generated/FATFS/ff_Src/ff.c **** 
 637:../Dave/Generated/FATFS/ff_Src/ff.c **** 
 638:../Dave/Generated/FATFS/ff_Src/ff.c **** 
 639:../Dave/Generated/FATFS/ff_Src/ff.c **** /*-----------------------------------------------------------------------*/
 640:../Dave/Generated/FATFS/ff_Src/ff.c **** /* String functions                                                      */
 641:../Dave/Generated/FATFS/ff_Src/ff.c **** /*-----------------------------------------------------------------------*/
 642:../Dave/Generated/FATFS/ff_Src/ff.c **** 
 643:../Dave/Generated/FATFS/ff_Src/ff.c **** /* Copy memory to memory */
 644:../Dave/Generated/FATFS/ff_Src/ff.c **** static void mem_cpy (void* dst, const void* src, UINT cnt)
 645:../Dave/Generated/FATFS/ff_Src/ff.c **** {
 469              	 .loc 1 645 0
 470              	 .cfi_startproc
 471              	 
 472              	 
 473              	 
 474 0000 80B4     	 push {r7}
 475              	.LCFI24:
 476              	 .cfi_def_cfa_offset 4
 477              	 .cfi_offset 7,-4
 478 0002 87B0     	 sub sp,sp,#28
 479              	.LCFI25:
 480              	 .cfi_def_cfa_offset 32
 481 0004 00AF     	 add r7,sp,#0
 482              	.LCFI26:
 483              	 .cfi_def_cfa_register 7
 484 0006 F860     	 str r0,[r7,#12]
 485 0008 B960     	 str r1,[r7,#8]
 486 000a 7A60     	 str r2,[r7,#4]
 646:../Dave/Generated/FATFS/ff_Src/ff.c **** 	BYTE *d = (BYTE*)dst;
 487              	 .loc 1 646 0
 488 000c FB68     	 ldr r3,[r7,#12]
 489 000e 7B61     	 str r3,[r7,#20]
 647:../Dave/Generated/FATFS/ff_Src/ff.c **** 	const BYTE *s = (const BYTE*)src;
 490              	 .loc 1 647 0
 491 0010 BB68     	 ldr r3,[r7,#8]
 492 0012 3B61     	 str r3,[r7,#16]
 648:../Dave/Generated/FATFS/ff_Src/ff.c **** 
 649:../Dave/Generated/FATFS/ff_Src/ff.c **** 	if (cnt != 0) {
 493              	 .loc 1 649 0
 494 0014 7B68     	 ldr r3,[r7,#4]
 495 0016 002B     	 cmp r3,#0
 496 0018 0DD0     	 beq .L7
 497              	.L9:
 650:../Dave/Generated/FATFS/ff_Src/ff.c **** 		do {
 651:../Dave/Generated/FATFS/ff_Src/ff.c **** 			*d++ = *s++;
 498              	 .loc 1 651 0 discriminator 1
 499 001a 7B69     	 ldr r3,[r7,#20]
 500 001c 5A1C     	 adds r2,r3,#1
 501 001e 7A61     	 str r2,[r7,#20]
 502 0020 3A69     	 ldr r2,[r7,#16]
 503 0022 511C     	 adds r1,r2,#1
 504 0024 3961     	 str r1,[r7,#16]
 505 0026 1278     	 ldrb r2,[r2]
 506 0028 1A70     	 strb r2,[r3]
 652:../Dave/Generated/FATFS/ff_Src/ff.c **** 		} while (--cnt);
 507              	 .loc 1 652 0 discriminator 1
 508 002a 7B68     	 ldr r3,[r7,#4]
 509 002c 013B     	 subs r3,r3,#1
 510 002e 7B60     	 str r3,[r7,#4]
 511 0030 7B68     	 ldr r3,[r7,#4]
 512 0032 002B     	 cmp r3,#0
 513 0034 F1D1     	 bne .L9
 514              	.L7:
 653:../Dave/Generated/FATFS/ff_Src/ff.c **** 	}
 654:../Dave/Generated/FATFS/ff_Src/ff.c **** }
 515              	 .loc 1 654 0
 516 0036 1C37     	 adds r7,r7,#28
 517              	.LCFI27:
 518              	 .cfi_def_cfa_offset 4
 519 0038 BD46     	 mov sp,r7
 520              	.LCFI28:
 521              	 .cfi_def_cfa_register 13
 522              	 
 523 003a 5DF8047B 	 ldr r7,[sp],#4
 524              	.LCFI29:
 525              	 .cfi_restore 7
 526              	 .cfi_def_cfa_offset 0
 527 003e 7047     	 bx lr
 528              	 .cfi_endproc
 529              	.LFE4:
 531              	 .section .text.mem_set,"ax",%progbits
 532              	 .align 2
 533              	 .thumb
 534              	 .thumb_func
 536              	mem_set:
 537              	.LFB5:
 655:../Dave/Generated/FATFS/ff_Src/ff.c **** 
 656:../Dave/Generated/FATFS/ff_Src/ff.c **** 
 657:../Dave/Generated/FATFS/ff_Src/ff.c **** /* Fill memory block */
 658:../Dave/Generated/FATFS/ff_Src/ff.c **** static void mem_set (void* dst, int val, UINT cnt)
 659:../Dave/Generated/FATFS/ff_Src/ff.c **** {
 538              	 .loc 1 659 0
 539              	 .cfi_startproc
 540              	 
 541              	 
 542              	 
 543 0000 80B4     	 push {r7}
 544              	.LCFI30:
 545              	 .cfi_def_cfa_offset 4
 546              	 .cfi_offset 7,-4
 547 0002 87B0     	 sub sp,sp,#28
 548              	.LCFI31:
 549              	 .cfi_def_cfa_offset 32
 550 0004 00AF     	 add r7,sp,#0
 551              	.LCFI32:
 552              	 .cfi_def_cfa_register 7
 553 0006 F860     	 str r0,[r7,#12]
 554 0008 B960     	 str r1,[r7,#8]
 555 000a 7A60     	 str r2,[r7,#4]
 660:../Dave/Generated/FATFS/ff_Src/ff.c **** 	BYTE *d = (BYTE*)dst;
 556              	 .loc 1 660 0
 557 000c FB68     	 ldr r3,[r7,#12]
 558 000e 7B61     	 str r3,[r7,#20]
 559              	.L11:
 661:../Dave/Generated/FATFS/ff_Src/ff.c **** 
 662:../Dave/Generated/FATFS/ff_Src/ff.c **** 	do {
 663:../Dave/Generated/FATFS/ff_Src/ff.c **** 		*d++ = (BYTE)val;
 560              	 .loc 1 663 0 discriminator 1
 561 0010 7B69     	 ldr r3,[r7,#20]
 562 0012 5A1C     	 adds r2,r3,#1
 563 0014 7A61     	 str r2,[r7,#20]
 564 0016 BA68     	 ldr r2,[r7,#8]
 565 0018 D2B2     	 uxtb r2,r2
 566 001a 1A70     	 strb r2,[r3]
 664:../Dave/Generated/FATFS/ff_Src/ff.c **** 	} while (--cnt);
 567              	 .loc 1 664 0 discriminator 1
 568 001c 7B68     	 ldr r3,[r7,#4]
 569 001e 013B     	 subs r3,r3,#1
 570 0020 7B60     	 str r3,[r7,#4]
 571 0022 7B68     	 ldr r3,[r7,#4]
 572 0024 002B     	 cmp r3,#0
 573 0026 F3D1     	 bne .L11
 665:../Dave/Generated/FATFS/ff_Src/ff.c **** }
 574              	 .loc 1 665 0
 575 0028 1C37     	 adds r7,r7,#28
 576              	.LCFI33:
 577              	 .cfi_def_cfa_offset 4
 578 002a BD46     	 mov sp,r7
 579              	.LCFI34:
 580              	 .cfi_def_cfa_register 13
 581              	 
 582 002c 5DF8047B 	 ldr r7,[sp],#4
 583              	.LCFI35:
 584              	 .cfi_restore 7
 585              	 .cfi_def_cfa_offset 0
 586 0030 7047     	 bx lr
 587              	 .cfi_endproc
 588              	.LFE5:
 590 0032 00BF     	 .section .text.mem_cmp,"ax",%progbits
 591              	 .align 2
 592              	 .thumb
 593              	 .thumb_func
 595              	mem_cmp:
 596              	.LFB6:
 666:../Dave/Generated/FATFS/ff_Src/ff.c **** 
 667:../Dave/Generated/FATFS/ff_Src/ff.c **** 
 668:../Dave/Generated/FATFS/ff_Src/ff.c **** /* Compare memory block */
 669:../Dave/Generated/FATFS/ff_Src/ff.c **** static int mem_cmp (const void* dst, const void* src, UINT cnt)	/* ZR:same, NZ:different */
 670:../Dave/Generated/FATFS/ff_Src/ff.c **** {
 597              	 .loc 1 670 0
 598              	 .cfi_startproc
 599              	 
 600              	 
 601              	 
 602 0000 80B4     	 push {r7}
 603              	.LCFI36:
 604              	 .cfi_def_cfa_offset 4
 605              	 .cfi_offset 7,-4
 606 0002 89B0     	 sub sp,sp,#36
 607              	.LCFI37:
 608              	 .cfi_def_cfa_offset 40
 609 0004 00AF     	 add r7,sp,#0
 610              	.LCFI38:
 611              	 .cfi_def_cfa_register 7
 612 0006 F860     	 str r0,[r7,#12]
 613 0008 B960     	 str r1,[r7,#8]
 614 000a 7A60     	 str r2,[r7,#4]
 671:../Dave/Generated/FATFS/ff_Src/ff.c **** 	const BYTE *d = (const BYTE *)dst, *s = (const BYTE *)src;
 615              	 .loc 1 671 0
 616 000c FB68     	 ldr r3,[r7,#12]
 617 000e FB61     	 str r3,[r7,#28]
 618 0010 BB68     	 ldr r3,[r7,#8]
 619 0012 BB61     	 str r3,[r7,#24]
 672:../Dave/Generated/FATFS/ff_Src/ff.c **** 	int r = 0;
 620              	 .loc 1 672 0
 621 0014 0023     	 movs r3,#0
 622 0016 7B61     	 str r3,[r7,#20]
 623              	.L14:
 673:../Dave/Generated/FATFS/ff_Src/ff.c **** 
 674:../Dave/Generated/FATFS/ff_Src/ff.c **** 	do {
 675:../Dave/Generated/FATFS/ff_Src/ff.c **** 		r = *d++ - *s++;
 624              	 .loc 1 675 0 discriminator 2
 625 0018 FB69     	 ldr r3,[r7,#28]
 626 001a 5A1C     	 adds r2,r3,#1
 627 001c FA61     	 str r2,[r7,#28]
 628 001e 1B78     	 ldrb r3,[r3]
 629 0020 1946     	 mov r1,r3
 630 0022 BB69     	 ldr r3,[r7,#24]
 631 0024 5A1C     	 adds r2,r3,#1
 632 0026 BA61     	 str r2,[r7,#24]
 633 0028 1B78     	 ldrb r3,[r3]
 634 002a CB1A     	 subs r3,r1,r3
 635 002c 7B61     	 str r3,[r7,#20]
 676:../Dave/Generated/FATFS/ff_Src/ff.c **** 	} while (--cnt && r == 0);
 636              	 .loc 1 676 0 discriminator 2
 637 002e 7B68     	 ldr r3,[r7,#4]
 638 0030 013B     	 subs r3,r3,#1
 639 0032 7B60     	 str r3,[r7,#4]
 640 0034 7B68     	 ldr r3,[r7,#4]
 641 0036 002B     	 cmp r3,#0
 642 0038 02D0     	 beq .L13
 643              	 .loc 1 676 0 is_stmt 0 discriminator 1
 644 003a 7B69     	 ldr r3,[r7,#20]
 645 003c 002B     	 cmp r3,#0
 646 003e EBD0     	 beq .L14
 647              	.L13:
 677:../Dave/Generated/FATFS/ff_Src/ff.c **** 
 678:../Dave/Generated/FATFS/ff_Src/ff.c **** 	return r;
 648              	 .loc 1 678 0 is_stmt 1
 649 0040 7B69     	 ldr r3,[r7,#20]
 679:../Dave/Generated/FATFS/ff_Src/ff.c **** }
 650              	 .loc 1 679 0
 651 0042 1846     	 mov r0,r3
 652 0044 2437     	 adds r7,r7,#36
 653              	.LCFI39:
 654              	 .cfi_def_cfa_offset 4
 655 0046 BD46     	 mov sp,r7
 656              	.LCFI40:
 657              	 .cfi_def_cfa_register 13
 658              	 
 659 0048 5DF8047B 	 ldr r7,[sp],#4
 660              	.LCFI41:
 661              	 .cfi_restore 7
 662              	 .cfi_def_cfa_offset 0
 663 004c 7047     	 bx lr
 664              	 .cfi_endproc
 665              	.LFE6:
 667 004e 00BF     	 .section .text.chk_chr,"ax",%progbits
 668              	 .align 2
 669              	 .thumb
 670              	 .thumb_func
 672              	chk_chr:
 673              	.LFB7:
 680:../Dave/Generated/FATFS/ff_Src/ff.c **** 
 681:../Dave/Generated/FATFS/ff_Src/ff.c **** 
 682:../Dave/Generated/FATFS/ff_Src/ff.c **** /* Check if chr is contained in the string */
 683:../Dave/Generated/FATFS/ff_Src/ff.c **** static int chk_chr (const char* str, int chr)	/* NZ:contained, ZR:not contained */
 684:../Dave/Generated/FATFS/ff_Src/ff.c **** {
 674              	 .loc 1 684 0
 675              	 .cfi_startproc
 676              	 
 677              	 
 678              	 
 679 0000 80B4     	 push {r7}
 680              	.LCFI42:
 681              	 .cfi_def_cfa_offset 4
 682              	 .cfi_offset 7,-4
 683 0002 83B0     	 sub sp,sp,#12
 684              	.LCFI43:
 685              	 .cfi_def_cfa_offset 16
 686 0004 00AF     	 add r7,sp,#0
 687              	.LCFI44:
 688              	 .cfi_def_cfa_register 7
 689 0006 7860     	 str r0,[r7,#4]
 690 0008 3960     	 str r1,[r7]
 685:../Dave/Generated/FATFS/ff_Src/ff.c **** 	while (*str && *str != chr) str++;
 691              	 .loc 1 685 0
 692 000a 02E0     	 b .L17
 693              	.L19:
 694              	 .loc 1 685 0 is_stmt 0 discriminator 3
 695 000c 7B68     	 ldr r3,[r7,#4]
 696 000e 0133     	 adds r3,r3,#1
 697 0010 7B60     	 str r3,[r7,#4]
 698              	.L17:
 699              	 .loc 1 685 0 discriminator 1
 700 0012 7B68     	 ldr r3,[r7,#4]
 701 0014 1B78     	 ldrb r3,[r3]
 702 0016 002B     	 cmp r3,#0
 703 0018 05D0     	 beq .L18
 704              	 .loc 1 685 0 discriminator 2
 705 001a 7B68     	 ldr r3,[r7,#4]
 706 001c 1B78     	 ldrb r3,[r3]
 707 001e 1A46     	 mov r2,r3
 708 0020 3B68     	 ldr r3,[r7]
 709 0022 9A42     	 cmp r2,r3
 710 0024 F2D1     	 bne .L19
 711              	.L18:
 686:../Dave/Generated/FATFS/ff_Src/ff.c **** 	return *str;
 712              	 .loc 1 686 0 is_stmt 1
 713 0026 7B68     	 ldr r3,[r7,#4]
 714 0028 1B78     	 ldrb r3,[r3]
 687:../Dave/Generated/FATFS/ff_Src/ff.c **** }
 715              	 .loc 1 687 0
 716 002a 1846     	 mov r0,r3
 717 002c 0C37     	 adds r7,r7,#12
 718              	.LCFI45:
 719              	 .cfi_def_cfa_offset 4
 720 002e BD46     	 mov sp,r7
 721              	.LCFI46:
 722              	 .cfi_def_cfa_register 13
 723              	 
 724 0030 5DF8047B 	 ldr r7,[sp],#4
 725              	.LCFI47:
 726              	 .cfi_restore 7
 727              	 .cfi_def_cfa_offset 0
 728 0034 7047     	 bx lr
 729              	 .cfi_endproc
 730              	.LFE7:
 732 0036 00BF     	 .section .text.dbc_1st,"ax",%progbits
 733              	 .align 2
 734              	 .thumb
 735              	 .thumb_func
 737              	dbc_1st:
 738              	.LFB8:
 688:../Dave/Generated/FATFS/ff_Src/ff.c **** 
 689:../Dave/Generated/FATFS/ff_Src/ff.c **** 
 690:../Dave/Generated/FATFS/ff_Src/ff.c **** /* Test if the character is DBC 1st byte */
 691:../Dave/Generated/FATFS/ff_Src/ff.c **** static int dbc_1st (BYTE c)
 692:../Dave/Generated/FATFS/ff_Src/ff.c **** {
 739              	 .loc 1 692 0
 740              	 .cfi_startproc
 741              	 
 742              	 
 743              	 
 744 0000 80B4     	 push {r7}
 745              	.LCFI48:
 746              	 .cfi_def_cfa_offset 4
 747              	 .cfi_offset 7,-4
 748 0002 83B0     	 sub sp,sp,#12
 749              	.LCFI49:
 750              	 .cfi_def_cfa_offset 16
 751 0004 00AF     	 add r7,sp,#0
 752              	.LCFI50:
 753              	 .cfi_def_cfa_register 7
 754 0006 0346     	 mov r3,r0
 755 0008 FB71     	 strb r3,[r7,#7]
 693:../Dave/Generated/FATFS/ff_Src/ff.c **** #if FF_CODE_PAGE == 0		/* Variable code page */
 694:../Dave/Generated/FATFS/ff_Src/ff.c **** 	if (DbcTbl && c >= DbcTbl[0]) {
 695:../Dave/Generated/FATFS/ff_Src/ff.c **** 		if (c <= DbcTbl[1]) return 1;					/* 1st byte range 1 */
 696:../Dave/Generated/FATFS/ff_Src/ff.c **** 		if (c >= DbcTbl[2] && c <= DbcTbl[3]) return 1;	/* 1st byte range 2 */
 697:../Dave/Generated/FATFS/ff_Src/ff.c **** 	}
 698:../Dave/Generated/FATFS/ff_Src/ff.c **** #elif FF_CODE_PAGE >= 900	/* DBCS fixed code page */
 699:../Dave/Generated/FATFS/ff_Src/ff.c **** 	if (c >= DbcTbl[0]) {
 700:../Dave/Generated/FATFS/ff_Src/ff.c **** 		if (c <= DbcTbl[1]) return 1;
 701:../Dave/Generated/FATFS/ff_Src/ff.c **** 		if (c >= DbcTbl[2] && c <= DbcTbl[3]) return 1;
 702:../Dave/Generated/FATFS/ff_Src/ff.c **** 	}
 703:../Dave/Generated/FATFS/ff_Src/ff.c **** #else						/* SBCS fixed code page */
 704:../Dave/Generated/FATFS/ff_Src/ff.c **** 	if (c != 0) return 0;	/* Always false */
 756              	 .loc 1 704 0
 757 000a FB79     	 ldrb r3,[r7,#7]
 758 000c 002B     	 cmp r3,#0
 759 000e 01D0     	 beq .L22
 760              	 .loc 1 704 0 is_stmt 0 discriminator 1
 761 0010 0023     	 movs r3,#0
 762 0012 00E0     	 b .L23
 763              	.L22:
 705:../Dave/Generated/FATFS/ff_Src/ff.c **** #endif
 706:../Dave/Generated/FATFS/ff_Src/ff.c **** 	return 0;
 764              	 .loc 1 706 0 is_stmt 1
 765 0014 0023     	 movs r3,#0
 766              	.L23:
 707:../Dave/Generated/FATFS/ff_Src/ff.c **** }
 767              	 .loc 1 707 0
 768 0016 1846     	 mov r0,r3
 769 0018 0C37     	 adds r7,r7,#12
 770              	.LCFI51:
 771              	 .cfi_def_cfa_offset 4
 772 001a BD46     	 mov sp,r7
 773              	.LCFI52:
 774              	 .cfi_def_cfa_register 13
 775              	 
 776 001c 5DF8047B 	 ldr r7,[sp],#4
 777              	.LCFI53:
 778              	 .cfi_restore 7
 779              	 .cfi_def_cfa_offset 0
 780 0020 7047     	 bx lr
 781              	 .cfi_endproc
 782              	.LFE8:
 784 0022 00BF     	 .section .text.dbc_2nd,"ax",%progbits
 785              	 .align 2
 786              	 .thumb
 787              	 .thumb_func
 789              	dbc_2nd:
 790              	.LFB9:
 708:../Dave/Generated/FATFS/ff_Src/ff.c **** 
 709:../Dave/Generated/FATFS/ff_Src/ff.c **** 
 710:../Dave/Generated/FATFS/ff_Src/ff.c **** /* Test if the character is DBC 2nd byte */
 711:../Dave/Generated/FATFS/ff_Src/ff.c **** static int dbc_2nd (BYTE c)
 712:../Dave/Generated/FATFS/ff_Src/ff.c **** {
 791              	 .loc 1 712 0
 792              	 .cfi_startproc
 793              	 
 794              	 
 795              	 
 796 0000 80B4     	 push {r7}
 797              	.LCFI54:
 798              	 .cfi_def_cfa_offset 4
 799              	 .cfi_offset 7,-4
 800 0002 83B0     	 sub sp,sp,#12
 801              	.LCFI55:
 802              	 .cfi_def_cfa_offset 16
 803 0004 00AF     	 add r7,sp,#0
 804              	.LCFI56:
 805              	 .cfi_def_cfa_register 7
 806 0006 0346     	 mov r3,r0
 807 0008 FB71     	 strb r3,[r7,#7]
 713:../Dave/Generated/FATFS/ff_Src/ff.c **** #if FF_CODE_PAGE == 0		/* Variable code page */
 714:../Dave/Generated/FATFS/ff_Src/ff.c **** 	if (DbcTbl && c >= DbcTbl[4]) {
 715:../Dave/Generated/FATFS/ff_Src/ff.c **** 		if (c <= DbcTbl[5]) return 1;					/* 2nd byte range 1 */
 716:../Dave/Generated/FATFS/ff_Src/ff.c **** 		if (c >= DbcTbl[6] && c <= DbcTbl[7]) return 1;	/* 2nd byte range 2 */
 717:../Dave/Generated/FATFS/ff_Src/ff.c **** 		if (c >= DbcTbl[8] && c <= DbcTbl[9]) return 1;	/* 2nd byte range 3 */
 718:../Dave/Generated/FATFS/ff_Src/ff.c **** 	}
 719:../Dave/Generated/FATFS/ff_Src/ff.c **** #elif FF_CODE_PAGE >= 900	/* DBCS fixed code page */
 720:../Dave/Generated/FATFS/ff_Src/ff.c **** 	if (c >= DbcTbl[4]) {
 721:../Dave/Generated/FATFS/ff_Src/ff.c **** 		if (c <= DbcTbl[5]) return 1;
 722:../Dave/Generated/FATFS/ff_Src/ff.c **** 		if (c >= DbcTbl[6] && c <= DbcTbl[7]) return 1;
 723:../Dave/Generated/FATFS/ff_Src/ff.c **** 		if (c >= DbcTbl[8] && c <= DbcTbl[9]) return 1;
 724:../Dave/Generated/FATFS/ff_Src/ff.c **** 	}
 725:../Dave/Generated/FATFS/ff_Src/ff.c **** #else						/* SBCS fixed code page */
 726:../Dave/Generated/FATFS/ff_Src/ff.c **** 	if (c != 0) return 0;	/* Always false */
 808              	 .loc 1 726 0
 809 000a FB79     	 ldrb r3,[r7,#7]
 810 000c 002B     	 cmp r3,#0
 811 000e 01D0     	 beq .L25
 812              	 .loc 1 726 0 is_stmt 0 discriminator 1
 813 0010 0023     	 movs r3,#0
 814 0012 00E0     	 b .L26
 815              	.L25:
 727:../Dave/Generated/FATFS/ff_Src/ff.c **** #endif
 728:../Dave/Generated/FATFS/ff_Src/ff.c **** 	return 0;
 816              	 .loc 1 728 0 is_stmt 1
 817 0014 0023     	 movs r3,#0
 818              	.L26:
 729:../Dave/Generated/FATFS/ff_Src/ff.c **** }
 819              	 .loc 1 729 0
 820 0016 1846     	 mov r0,r3
 821 0018 0C37     	 adds r7,r7,#12
 822              	.LCFI57:
 823              	 .cfi_def_cfa_offset 4
 824 001a BD46     	 mov sp,r7
 825              	.LCFI58:
 826              	 .cfi_def_cfa_register 13
 827              	 
 828 001c 5DF8047B 	 ldr r7,[sp],#4
 829              	.LCFI59:
 830              	 .cfi_restore 7
 831              	 .cfi_def_cfa_offset 0
 832 0020 7047     	 bx lr
 833              	 .cfi_endproc
 834              	.LFE9:
 836 0022 00BF     	 .section .text.tchar2uni,"ax",%progbits
 837              	 .align 2
 838              	 .thumb
 839              	 .thumb_func
 841              	tchar2uni:
 842              	.LFB10:
 730:../Dave/Generated/FATFS/ff_Src/ff.c **** 
 731:../Dave/Generated/FATFS/ff_Src/ff.c **** 
 732:../Dave/Generated/FATFS/ff_Src/ff.c **** #if FF_USE_LFN
 733:../Dave/Generated/FATFS/ff_Src/ff.c **** 
 734:../Dave/Generated/FATFS/ff_Src/ff.c **** /* Get a character from TCHAR string in defined API encodeing */
 735:../Dave/Generated/FATFS/ff_Src/ff.c **** static DWORD tchar2uni (	/* Returns character in UTF-16 encoding (>=0x10000 on double encoding unit
 736:../Dave/Generated/FATFS/ff_Src/ff.c **** 	const TCHAR** str		/* Pointer to pointer to TCHAR string in configured encoding */
 737:../Dave/Generated/FATFS/ff_Src/ff.c **** )
 738:../Dave/Generated/FATFS/ff_Src/ff.c **** {
 843              	 .loc 1 738 0
 844              	 .cfi_startproc
 845              	 
 846              	 
 847 0000 80B5     	 push {r7,lr}
 848              	.LCFI60:
 849              	 .cfi_def_cfa_offset 8
 850              	 .cfi_offset 7,-8
 851              	 .cfi_offset 14,-4
 852 0002 86B0     	 sub sp,sp,#24
 853              	.LCFI61:
 854              	 .cfi_def_cfa_offset 32
 855 0004 00AF     	 add r7,sp,#0
 856              	.LCFI62:
 857              	 .cfi_def_cfa_register 7
 858 0006 7860     	 str r0,[r7,#4]
 739:../Dave/Generated/FATFS/ff_Src/ff.c **** 	DWORD uc;
 740:../Dave/Generated/FATFS/ff_Src/ff.c **** 	const TCHAR *p = *str;
 859              	 .loc 1 740 0
 860 0008 7B68     	 ldr r3,[r7,#4]
 861 000a 1B68     	 ldr r3,[r3]
 862 000c 7B61     	 str r3,[r7,#20]
 741:../Dave/Generated/FATFS/ff_Src/ff.c **** 
 742:../Dave/Generated/FATFS/ff_Src/ff.c **** #if FF_LFN_UNICODE == 1		/* UTF-16 input */
 743:../Dave/Generated/FATFS/ff_Src/ff.c **** 	WCHAR wc;
 744:../Dave/Generated/FATFS/ff_Src/ff.c **** 
 745:../Dave/Generated/FATFS/ff_Src/ff.c **** 	uc = *p++;	/* Get a unit */
 746:../Dave/Generated/FATFS/ff_Src/ff.c **** 	if (IsSurrogate(uc)) {	/* Surrogate? */
 747:../Dave/Generated/FATFS/ff_Src/ff.c **** 		wc = *p++;		/* Get low surrogate */
 748:../Dave/Generated/FATFS/ff_Src/ff.c **** 		if (!IsSurrogateH(uc) || !IsSurrogateL(wc)) return 0xFFFFFFFF;	/* Wrong surrogate? */
 749:../Dave/Generated/FATFS/ff_Src/ff.c **** 		uc = uc << 16 | wc;
 750:../Dave/Generated/FATFS/ff_Src/ff.c **** 	}
 751:../Dave/Generated/FATFS/ff_Src/ff.c **** 
 752:../Dave/Generated/FATFS/ff_Src/ff.c **** #elif FF_LFN_UNICODE == 2	/* UTF-8 input */
 753:../Dave/Generated/FATFS/ff_Src/ff.c **** 	BYTE b;
 754:../Dave/Generated/FATFS/ff_Src/ff.c **** 	int nf;
 755:../Dave/Generated/FATFS/ff_Src/ff.c **** 
 756:../Dave/Generated/FATFS/ff_Src/ff.c **** 	uc = (BYTE)*p++;	/* Get a unit */
 757:../Dave/Generated/FATFS/ff_Src/ff.c **** 	if (uc & 0x80) {	/* Multiple byte code? */
 758:../Dave/Generated/FATFS/ff_Src/ff.c **** 		if ((uc & 0xE0) == 0xC0) {	/* 2-byte sequence? */
 759:../Dave/Generated/FATFS/ff_Src/ff.c **** 			uc &= 0x1F; nf = 1;
 760:../Dave/Generated/FATFS/ff_Src/ff.c **** 		} else {
 761:../Dave/Generated/FATFS/ff_Src/ff.c **** 			if ((uc & 0xF0) == 0xE0) {	/* 3-byte sequence? */
 762:../Dave/Generated/FATFS/ff_Src/ff.c **** 				uc &= 0x0F; nf = 2;
 763:../Dave/Generated/FATFS/ff_Src/ff.c **** 			} else {
 764:../Dave/Generated/FATFS/ff_Src/ff.c **** 				if ((uc & 0xF8) == 0xF0) {	/* 4-byte sequence? */
 765:../Dave/Generated/FATFS/ff_Src/ff.c **** 					uc &= 0x07; nf = 3;
 766:../Dave/Generated/FATFS/ff_Src/ff.c **** 				} else {					/* Wrong sequence */
 767:../Dave/Generated/FATFS/ff_Src/ff.c **** 					return 0xFFFFFFFF;
 768:../Dave/Generated/FATFS/ff_Src/ff.c **** 				}
 769:../Dave/Generated/FATFS/ff_Src/ff.c **** 			}
 770:../Dave/Generated/FATFS/ff_Src/ff.c **** 		}
 771:../Dave/Generated/FATFS/ff_Src/ff.c **** 		do {	/* Get trailing bytes */
 772:../Dave/Generated/FATFS/ff_Src/ff.c **** 			b = (BYTE)*p++;
 773:../Dave/Generated/FATFS/ff_Src/ff.c **** 			if ((b & 0xC0) != 0x80) return 0xFFFFFFFF;	/* Wrong sequence? */
 774:../Dave/Generated/FATFS/ff_Src/ff.c **** 			uc = uc << 6 | (b & 0x3F);
 775:../Dave/Generated/FATFS/ff_Src/ff.c **** 		} while (--nf != 0);
 776:../Dave/Generated/FATFS/ff_Src/ff.c **** 		if (uc < 0x80 || IsSurrogate(uc) || uc >= 0x110000) return 0xFFFFFFFF;	/* Wrong code? */
 777:../Dave/Generated/FATFS/ff_Src/ff.c **** 		if (uc >= 0x010000) uc = 0xD800DC00 | ((uc - 0x10000) << 6 & 0x3FF0000) | (uc & 0x3FF);	/* Make a
 778:../Dave/Generated/FATFS/ff_Src/ff.c **** 	}
 779:../Dave/Generated/FATFS/ff_Src/ff.c **** 
 780:../Dave/Generated/FATFS/ff_Src/ff.c **** #elif FF_LFN_UNICODE == 3	/* UTF-32 input */
 781:../Dave/Generated/FATFS/ff_Src/ff.c **** 	uc = (TCHAR)*p++;	/* Get a unit */
 782:../Dave/Generated/FATFS/ff_Src/ff.c **** 	if (uc >= 0x110000) return 0xFFFFFFFF;	/* Wrong code? */
 783:../Dave/Generated/FATFS/ff_Src/ff.c **** 	if (uc >= 0x010000) uc = 0xD800DC00 | ((uc - 0x10000) << 6 & 0x3FF0000) | (uc & 0x3FF);	/* Make a 
 784:../Dave/Generated/FATFS/ff_Src/ff.c **** 
 785:../Dave/Generated/FATFS/ff_Src/ff.c **** #else		/* ANSI/OEM input */
 786:../Dave/Generated/FATFS/ff_Src/ff.c **** 	BYTE b;
 787:../Dave/Generated/FATFS/ff_Src/ff.c **** 	WCHAR wc;
 788:../Dave/Generated/FATFS/ff_Src/ff.c **** 
 789:../Dave/Generated/FATFS/ff_Src/ff.c **** 	wc = (BYTE)*p++;			/* Get a byte */
 863              	 .loc 1 789 0
 864 000e 7B69     	 ldr r3,[r7,#20]
 865 0010 5A1C     	 adds r2,r3,#1
 866 0012 7A61     	 str r2,[r7,#20]
 867 0014 1B78     	 ldrb r3,[r3]
 868 0016 7B82     	 strh r3,[r7,#18]
 790:../Dave/Generated/FATFS/ff_Src/ff.c **** 	if (dbc_1st((BYTE)wc)) {	/* Is it a DBC 1st byte? */
 869              	 .loc 1 790 0
 870 0018 7B8A     	 ldrh r3,[r7,#18]
 871 001a DBB2     	 uxtb r3,r3
 872 001c 1846     	 mov r0,r3
 873 001e FFF7FEFF 	 bl dbc_1st
 874 0022 0346     	 mov r3,r0
 875 0024 002B     	 cmp r3,#0
 876 0026 15D0     	 beq .L28
 791:../Dave/Generated/FATFS/ff_Src/ff.c **** 		b = (BYTE)*p++;			/* Get 2nd byte */
 877              	 .loc 1 791 0
 878 0028 7B69     	 ldr r3,[r7,#20]
 879 002a 5A1C     	 adds r2,r3,#1
 880 002c 7A61     	 str r2,[r7,#20]
 881 002e 1B78     	 ldrb r3,[r3]
 882 0030 7B74     	 strb r3,[r7,#17]
 792:../Dave/Generated/FATFS/ff_Src/ff.c **** 		if (!dbc_2nd(b)) return 0xFFFFFFFF;	/* Invalid code? */
 883              	 .loc 1 792 0
 884 0032 7B7C     	 ldrb r3,[r7,#17]
 885 0034 1846     	 mov r0,r3
 886 0036 FFF7FEFF 	 bl dbc_2nd
 887 003a 0346     	 mov r3,r0
 888 003c 002B     	 cmp r3,#0
 889 003e 02D1     	 bne .L29
 890              	 .loc 1 792 0 is_stmt 0 discriminator 1
 891 0040 4FF0FF33 	 mov r3,#-1
 892 0044 1DE0     	 b .L30
 893              	.L29:
 793:../Dave/Generated/FATFS/ff_Src/ff.c **** 		wc = (wc << 8) + b;		/* Make a DBC */
 894              	 .loc 1 793 0 is_stmt 1
 895 0046 7B8A     	 ldrh r3,[r7,#18]
 896 0048 1B02     	 lsls r3,r3,#8
 897 004a 9AB2     	 uxth r2,r3
 898 004c 7B7C     	 ldrb r3,[r7,#17]
 899 004e 9BB2     	 uxth r3,r3
 900 0050 1344     	 add r3,r3,r2
 901 0052 7B82     	 strh r3,[r7,#18]
 902              	.L28:
 794:../Dave/Generated/FATFS/ff_Src/ff.c **** 	}
 795:../Dave/Generated/FATFS/ff_Src/ff.c **** 	if (wc != 0) {
 903              	 .loc 1 795 0
 904 0054 7B8A     	 ldrh r3,[r7,#18]
 905 0056 002B     	 cmp r3,#0
 906 0058 0DD0     	 beq .L31
 796:../Dave/Generated/FATFS/ff_Src/ff.c **** 		wc = ff_oem2uni(wc, CODEPAGE);	/* ANSI/OEM ==> Unicode */
 907              	 .loc 1 796 0
 908 005a 7B8A     	 ldrh r3,[r7,#18]
 909 005c 1846     	 mov r0,r3
 910 005e 40F25231 	 movw r1,#850
 911 0062 FFF7FEFF 	 bl ff_oem2uni
 912 0066 0346     	 mov r3,r0
 913 0068 7B82     	 strh r3,[r7,#18]
 797:../Dave/Generated/FATFS/ff_Src/ff.c **** 		if (wc == 0) return 0xFFFFFFFF;	/* Invalid code? */
 914              	 .loc 1 797 0
 915 006a 7B8A     	 ldrh r3,[r7,#18]
 916 006c 002B     	 cmp r3,#0
 917 006e 02D1     	 bne .L31
 918              	 .loc 1 797 0 is_stmt 0 discriminator 1
 919 0070 4FF0FF33 	 mov r3,#-1
 920 0074 05E0     	 b .L30
 921              	.L31:
 798:../Dave/Generated/FATFS/ff_Src/ff.c **** 	}
 799:../Dave/Generated/FATFS/ff_Src/ff.c **** 	uc = wc;
 922              	 .loc 1 799 0 is_stmt 1
 923 0076 7B8A     	 ldrh r3,[r7,#18]
 924 0078 FB60     	 str r3,[r7,#12]
 800:../Dave/Generated/FATFS/ff_Src/ff.c **** 
 801:../Dave/Generated/FATFS/ff_Src/ff.c **** #endif
 802:../Dave/Generated/FATFS/ff_Src/ff.c **** 	*str = p;	/* Next read pointer */
 925              	 .loc 1 802 0
 926 007a 7B68     	 ldr r3,[r7,#4]
 927 007c 7A69     	 ldr r2,[r7,#20]
 928 007e 1A60     	 str r2,[r3]
 803:../Dave/Generated/FATFS/ff_Src/ff.c **** 	return uc;
 929              	 .loc 1 803 0
 930 0080 FB68     	 ldr r3,[r7,#12]
 931              	.L30:
 804:../Dave/Generated/FATFS/ff_Src/ff.c **** }
 932              	 .loc 1 804 0
 933 0082 1846     	 mov r0,r3
 934 0084 1837     	 adds r7,r7,#24
 935              	.LCFI63:
 936              	 .cfi_def_cfa_offset 8
 937 0086 BD46     	 mov sp,r7
 938              	.LCFI64:
 939              	 .cfi_def_cfa_register 13
 940              	 
 941 0088 80BD     	 pop {r7,pc}
 942              	 .cfi_endproc
 943              	.LFE10:
 945 008a 00BF     	 .section .text.put_utf,"ax",%progbits
 946              	 .align 2
 947              	 .thumb
 948              	 .thumb_func
 950              	put_utf:
 951              	.LFB11:
 805:../Dave/Generated/FATFS/ff_Src/ff.c **** 
 806:../Dave/Generated/FATFS/ff_Src/ff.c **** 
 807:../Dave/Generated/FATFS/ff_Src/ff.c **** /* Output a TCHAR string in defined API encoding */
 808:../Dave/Generated/FATFS/ff_Src/ff.c **** static BYTE put_utf (	/* Returns number of encoding units written (0:buffer overflow or wrong encod
 809:../Dave/Generated/FATFS/ff_Src/ff.c **** 	DWORD chr,	/* UTF-16 encoded character (Double encoding unit char if >=0x10000) */
 810:../Dave/Generated/FATFS/ff_Src/ff.c **** 	TCHAR* buf,	/* Output buffer */
 811:../Dave/Generated/FATFS/ff_Src/ff.c **** 	UINT szb	/* Size of the buffer */
 812:../Dave/Generated/FATFS/ff_Src/ff.c **** )
 813:../Dave/Generated/FATFS/ff_Src/ff.c **** {
 952              	 .loc 1 813 0
 953              	 .cfi_startproc
 954              	 
 955              	 
 956 0000 80B5     	 push {r7,lr}
 957              	.LCFI65:
 958              	 .cfi_def_cfa_offset 8
 959              	 .cfi_offset 7,-8
 960              	 .cfi_offset 14,-4
 961 0002 86B0     	 sub sp,sp,#24
 962              	.LCFI66:
 963              	 .cfi_def_cfa_offset 32
 964 0004 00AF     	 add r7,sp,#0
 965              	.LCFI67:
 966              	 .cfi_def_cfa_register 7
 967 0006 F860     	 str r0,[r7,#12]
 968 0008 B960     	 str r1,[r7,#8]
 969 000a 7A60     	 str r2,[r7,#4]
 814:../Dave/Generated/FATFS/ff_Src/ff.c **** #if FF_LFN_UNICODE == 1	/* UTF-16 output */
 815:../Dave/Generated/FATFS/ff_Src/ff.c **** 	WCHAR hs, wc;
 816:../Dave/Generated/FATFS/ff_Src/ff.c **** 
 817:../Dave/Generated/FATFS/ff_Src/ff.c **** 	hs = (WCHAR)(chr >> 16);
 818:../Dave/Generated/FATFS/ff_Src/ff.c **** 	wc = (WCHAR)chr;
 819:../Dave/Generated/FATFS/ff_Src/ff.c **** 	if (hs == 0) {	/* Single encoding unit? */
 820:../Dave/Generated/FATFS/ff_Src/ff.c **** 		if (szb < 1 || IsSurrogate(wc)) return 0;	/* Buffer overflow or wrong code? */
 821:../Dave/Generated/FATFS/ff_Src/ff.c **** 		*buf = wc;
 822:../Dave/Generated/FATFS/ff_Src/ff.c **** 		return 1;
 823:../Dave/Generated/FATFS/ff_Src/ff.c **** 	}
 824:../Dave/Generated/FATFS/ff_Src/ff.c **** 	if (szb < 2 || !IsSurrogateH(hs) || !IsSurrogateL(wc)) return 0;	/* Buffer overflow or wrong surro
 825:../Dave/Generated/FATFS/ff_Src/ff.c **** 	*buf++ = hs;
 826:../Dave/Generated/FATFS/ff_Src/ff.c **** 	*buf++ = wc;
 827:../Dave/Generated/FATFS/ff_Src/ff.c **** 	return 2;
 828:../Dave/Generated/FATFS/ff_Src/ff.c **** 
 829:../Dave/Generated/FATFS/ff_Src/ff.c **** #elif FF_LFN_UNICODE == 2	/* UTF-8 output */
 830:../Dave/Generated/FATFS/ff_Src/ff.c **** 	DWORD hc;
 831:../Dave/Generated/FATFS/ff_Src/ff.c **** 
 832:../Dave/Generated/FATFS/ff_Src/ff.c **** 	if (chr < 0x80) {	/* Single byte code? */
 833:../Dave/Generated/FATFS/ff_Src/ff.c **** 		if (szb < 1) return 0;	/* Buffer overflow? */
 834:../Dave/Generated/FATFS/ff_Src/ff.c **** 		*buf = (TCHAR)chr;
 835:../Dave/Generated/FATFS/ff_Src/ff.c **** 		return 1;
 836:../Dave/Generated/FATFS/ff_Src/ff.c **** 	}
 837:../Dave/Generated/FATFS/ff_Src/ff.c **** 	if (chr < 0x800) {	/* 2-byte sequence? */
 838:../Dave/Generated/FATFS/ff_Src/ff.c **** 		if (szb < 2) return 0;	/* Buffer overflow? */
 839:../Dave/Generated/FATFS/ff_Src/ff.c **** 		*buf++ = (TCHAR)(0xC0 | (chr >> 6 & 0x1F));
 840:../Dave/Generated/FATFS/ff_Src/ff.c **** 		*buf++ = (TCHAR)(0x80 | (chr >> 0 & 0x3F));
 841:../Dave/Generated/FATFS/ff_Src/ff.c **** 		return 2;
 842:../Dave/Generated/FATFS/ff_Src/ff.c **** 	}
 843:../Dave/Generated/FATFS/ff_Src/ff.c **** 	if (chr < 0x10000) {	/* 3-byte sequence? */
 844:../Dave/Generated/FATFS/ff_Src/ff.c **** 		if (szb < 3 || IsSurrogate(chr)) return 0;	/* Buffer overflow or wrong code? */
 845:../Dave/Generated/FATFS/ff_Src/ff.c **** 		*buf++ = (TCHAR)(0xE0 | (chr >> 12 & 0x0F));
 846:../Dave/Generated/FATFS/ff_Src/ff.c **** 		*buf++ = (TCHAR)(0x80 | (chr >> 6 & 0x3F));
 847:../Dave/Generated/FATFS/ff_Src/ff.c **** 		*buf++ = (TCHAR)(0x80 | (chr >> 0 & 0x3F));
 848:../Dave/Generated/FATFS/ff_Src/ff.c **** 		return 3;
 849:../Dave/Generated/FATFS/ff_Src/ff.c **** 	}
 850:../Dave/Generated/FATFS/ff_Src/ff.c **** 	/* 4-byte sequence */
 851:../Dave/Generated/FATFS/ff_Src/ff.c **** 	if (szb < 4) return 0;	/* Buffer overflow? */
 852:../Dave/Generated/FATFS/ff_Src/ff.c **** 	hc = ((chr & 0xFFFF0000) - 0xD8000000) >> 6;	/* Get high 10 bits */
 853:../Dave/Generated/FATFS/ff_Src/ff.c **** 	chr = (chr & 0xFFFF) - 0xDC00;					/* Get low 10 bits */
 854:../Dave/Generated/FATFS/ff_Src/ff.c **** 	if (hc >= 0x100000 || chr >= 0x400) return 0;	/* Wrong surrogate? */
 855:../Dave/Generated/FATFS/ff_Src/ff.c **** 	chr = (hc | chr) + 0x10000;
 856:../Dave/Generated/FATFS/ff_Src/ff.c **** 	*buf++ = (TCHAR)(0xF0 | (chr >> 18 & 0x07));
 857:../Dave/Generated/FATFS/ff_Src/ff.c **** 	*buf++ = (TCHAR)(0x80 | (chr >> 12 & 0x3F));
 858:../Dave/Generated/FATFS/ff_Src/ff.c **** 	*buf++ = (TCHAR)(0x80 | (chr >> 6 & 0x3F));
 859:../Dave/Generated/FATFS/ff_Src/ff.c **** 	*buf++ = (TCHAR)(0x80 | (chr >> 0 & 0x3F));
 860:../Dave/Generated/FATFS/ff_Src/ff.c **** 	return 4;
 861:../Dave/Generated/FATFS/ff_Src/ff.c **** 
 862:../Dave/Generated/FATFS/ff_Src/ff.c **** #elif FF_LFN_UNICODE == 3	/* UTF-32 output */
 863:../Dave/Generated/FATFS/ff_Src/ff.c **** 	DWORD hc;
 864:../Dave/Generated/FATFS/ff_Src/ff.c **** 
 865:../Dave/Generated/FATFS/ff_Src/ff.c **** 	if (szb < 1) return 0;	/* Buffer overflow? */
 866:../Dave/Generated/FATFS/ff_Src/ff.c **** 	if (chr >= 0x10000) {	/* Out of BMP? */
 867:../Dave/Generated/FATFS/ff_Src/ff.c **** 		hc = ((chr & 0xFFFF0000) - 0xD8000000) >> 6;	/* Get high 10 bits */
 868:../Dave/Generated/FATFS/ff_Src/ff.c **** 		chr = (chr & 0xFFFF) - 0xDC00;					/* Get low 10 bits */
 869:../Dave/Generated/FATFS/ff_Src/ff.c **** 		if (hc >= 0x100000 || chr >= 0x400) return 0;	/* Wrong surrogate? */
 870:../Dave/Generated/FATFS/ff_Src/ff.c **** 		chr = (hc | chr) + 0x10000;
 871:../Dave/Generated/FATFS/ff_Src/ff.c **** 	}
 872:../Dave/Generated/FATFS/ff_Src/ff.c **** 	*buf++ = (TCHAR)chr;
 873:../Dave/Generated/FATFS/ff_Src/ff.c **** 	return 1;
 874:../Dave/Generated/FATFS/ff_Src/ff.c **** 
 875:../Dave/Generated/FATFS/ff_Src/ff.c **** #else						/* ANSI/OEM output */
 876:../Dave/Generated/FATFS/ff_Src/ff.c **** 	WCHAR wc;
 877:../Dave/Generated/FATFS/ff_Src/ff.c **** 
 878:../Dave/Generated/FATFS/ff_Src/ff.c **** 	wc = ff_uni2oem(chr, CODEPAGE);
 970              	 .loc 1 878 0
 971 000c F868     	 ldr r0,[r7,#12]
 972 000e 40F25231 	 movw r1,#850
 973 0012 FFF7FEFF 	 bl ff_uni2oem
 974 0016 0346     	 mov r3,r0
 975 0018 FB82     	 strh r3,[r7,#22]
 879:../Dave/Generated/FATFS/ff_Src/ff.c **** 	if (wc >= 0x100) {	/* Is this a DBC? */
 976              	 .loc 1 879 0
 977 001a FB8A     	 ldrh r3,[r7,#22]
 978 001c FF2B     	 cmp r3,#255
 979 001e 14D9     	 bls .L33
 880:../Dave/Generated/FATFS/ff_Src/ff.c **** 		if (szb < 2) return 0;
 980              	 .loc 1 880 0
 981 0020 7B68     	 ldr r3,[r7,#4]
 982 0022 012B     	 cmp r3,#1
 983 0024 01D8     	 bhi .L34
 984              	 .loc 1 880 0 is_stmt 0 discriminator 1
 985 0026 0023     	 movs r3,#0
 986 0028 1EE0     	 b .L35
 987              	.L34:
 881:../Dave/Generated/FATFS/ff_Src/ff.c **** 		*buf++ = (char)(wc >> 8);	/* Store DBC 1st byte */
 988              	 .loc 1 881 0 is_stmt 1
 989 002a BB68     	 ldr r3,[r7,#8]
 990 002c 5A1C     	 adds r2,r3,#1
 991 002e BA60     	 str r2,[r7,#8]
 992 0030 FA8A     	 ldrh r2,[r7,#22]
 993 0032 120A     	 lsrs r2,r2,#8
 994 0034 92B2     	 uxth r2,r2
 995 0036 D2B2     	 uxtb r2,r2
 996 0038 1A70     	 strb r2,[r3]
 882:../Dave/Generated/FATFS/ff_Src/ff.c **** 		*buf++ = (TCHAR)wc;			/* Store DBC 2nd byte */
 997              	 .loc 1 882 0
 998 003a BB68     	 ldr r3,[r7,#8]
 999 003c 5A1C     	 adds r2,r3,#1
 1000 003e BA60     	 str r2,[r7,#8]
 1001 0040 FA8A     	 ldrh r2,[r7,#22]
 1002 0042 D2B2     	 uxtb r2,r2
 1003 0044 1A70     	 strb r2,[r3]
 883:../Dave/Generated/FATFS/ff_Src/ff.c **** 		return 2;
 1004              	 .loc 1 883 0
 1005 0046 0223     	 movs r3,#2
 1006 0048 0EE0     	 b .L35
 1007              	.L33:
 884:../Dave/Generated/FATFS/ff_Src/ff.c **** 	}
 885:../Dave/Generated/FATFS/ff_Src/ff.c **** 	if (wc == 0 || szb < 1) return 0;	/* Invalid char or buffer overflow? */
 1008              	 .loc 1 885 0
 1009 004a FB8A     	 ldrh r3,[r7,#22]
 1010 004c 002B     	 cmp r3,#0
 1011 004e 02D0     	 beq .L36
 1012              	 .loc 1 885 0 is_stmt 0 discriminator 2
 1013 0050 7B68     	 ldr r3,[r7,#4]
 1014 0052 002B     	 cmp r3,#0
 1015 0054 01D1     	 bne .L37
 1016              	.L36:
 1017              	 .loc 1 885 0 discriminator 3
 1018 0056 0023     	 movs r3,#0
 1019 0058 06E0     	 b .L35
 1020              	.L37:
 886:../Dave/Generated/FATFS/ff_Src/ff.c **** 	*buf++ = (TCHAR)wc;					/* Store the character */
 1021              	 .loc 1 886 0 is_stmt 1
 1022 005a BB68     	 ldr r3,[r7,#8]
 1023 005c 5A1C     	 adds r2,r3,#1
 1024 005e BA60     	 str r2,[r7,#8]
 1025 0060 FA8A     	 ldrh r2,[r7,#22]
 1026 0062 D2B2     	 uxtb r2,r2
 1027 0064 1A70     	 strb r2,[r3]
 887:../Dave/Generated/FATFS/ff_Src/ff.c **** 	return 1;
 1028              	 .loc 1 887 0
 1029 0066 0123     	 movs r3,#1
 1030              	.L35:
 888:../Dave/Generated/FATFS/ff_Src/ff.c **** #endif
 889:../Dave/Generated/FATFS/ff_Src/ff.c **** }
 1031              	 .loc 1 889 0
 1032 0068 1846     	 mov r0,r3
 1033 006a 1837     	 adds r7,r7,#24
 1034              	.LCFI68:
 1035              	 .cfi_def_cfa_offset 8
 1036 006c BD46     	 mov sp,r7
 1037              	.LCFI69:
 1038              	 .cfi_def_cfa_register 13
 1039              	 
 1040 006e 80BD     	 pop {r7,pc}
 1041              	 .cfi_endproc
 1042              	.LFE11:
 1044              	 .section .text.chk_lock,"ax",%progbits
 1045              	 .align 2
 1046              	 .thumb
 1047              	 .thumb_func
 1049              	chk_lock:
 1050              	.LFB12:
 890:../Dave/Generated/FATFS/ff_Src/ff.c **** #endif	/* FF_USE_LFN */
 891:../Dave/Generated/FATFS/ff_Src/ff.c **** 
 892:../Dave/Generated/FATFS/ff_Src/ff.c **** 
 893:../Dave/Generated/FATFS/ff_Src/ff.c **** #if FF_FS_REENTRANT
 894:../Dave/Generated/FATFS/ff_Src/ff.c **** /*-----------------------------------------------------------------------*/
 895:../Dave/Generated/FATFS/ff_Src/ff.c **** /* Request/Release grant to access the volume                            */
 896:../Dave/Generated/FATFS/ff_Src/ff.c **** /*-----------------------------------------------------------------------*/
 897:../Dave/Generated/FATFS/ff_Src/ff.c **** static int lock_fs (		/* 1:Ok, 0:timeout */
 898:../Dave/Generated/FATFS/ff_Src/ff.c **** 	FATFS* fs		/* Filesystem object */
 899:../Dave/Generated/FATFS/ff_Src/ff.c **** )
 900:../Dave/Generated/FATFS/ff_Src/ff.c **** {
 901:../Dave/Generated/FATFS/ff_Src/ff.c **** 	return ff_req_grant(fs->sobj);
 902:../Dave/Generated/FATFS/ff_Src/ff.c **** }
 903:../Dave/Generated/FATFS/ff_Src/ff.c **** 
 904:../Dave/Generated/FATFS/ff_Src/ff.c **** 
 905:../Dave/Generated/FATFS/ff_Src/ff.c **** static void unlock_fs (
 906:../Dave/Generated/FATFS/ff_Src/ff.c **** 	FATFS* fs,		/* Filesystem object */
 907:../Dave/Generated/FATFS/ff_Src/ff.c **** 	FRESULT res		/* Result code to be returned */
 908:../Dave/Generated/FATFS/ff_Src/ff.c **** )
 909:../Dave/Generated/FATFS/ff_Src/ff.c **** {
 910:../Dave/Generated/FATFS/ff_Src/ff.c **** 	if (fs && res != FR_NOT_ENABLED && res != FR_INVALID_DRIVE && res != FR_TIMEOUT) {
 911:../Dave/Generated/FATFS/ff_Src/ff.c **** 		ff_rel_grant(fs->sobj);
 912:../Dave/Generated/FATFS/ff_Src/ff.c **** 	}
 913:../Dave/Generated/FATFS/ff_Src/ff.c **** }
 914:../Dave/Generated/FATFS/ff_Src/ff.c **** 
 915:../Dave/Generated/FATFS/ff_Src/ff.c **** #endif
 916:../Dave/Generated/FATFS/ff_Src/ff.c **** 
 917:../Dave/Generated/FATFS/ff_Src/ff.c **** 
 918:../Dave/Generated/FATFS/ff_Src/ff.c **** 
 919:../Dave/Generated/FATFS/ff_Src/ff.c **** #if FF_FS_LOCK != 0
 920:../Dave/Generated/FATFS/ff_Src/ff.c **** /*-----------------------------------------------------------------------*/
 921:../Dave/Generated/FATFS/ff_Src/ff.c **** /* File lock control functions                                           */
 922:../Dave/Generated/FATFS/ff_Src/ff.c **** /*-----------------------------------------------------------------------*/
 923:../Dave/Generated/FATFS/ff_Src/ff.c **** 
 924:../Dave/Generated/FATFS/ff_Src/ff.c **** static FRESULT chk_lock (	/* Check if the file can be accessed */
 925:../Dave/Generated/FATFS/ff_Src/ff.c **** 	DIR* dp,		/* Directory object pointing the file to be checked */
 926:../Dave/Generated/FATFS/ff_Src/ff.c **** 	int acc			/* Desired access type (0:Read mode open, 1:Write mode open, 2:Delete or rename) */
 927:../Dave/Generated/FATFS/ff_Src/ff.c **** )
 928:../Dave/Generated/FATFS/ff_Src/ff.c **** {
 1051              	 .loc 1 928 0
 1052              	 .cfi_startproc
 1053              	 
 1054              	 
 1055              	 
 1056 0000 80B4     	 push {r7}
 1057              	.LCFI70:
 1058              	 .cfi_def_cfa_offset 4
 1059              	 .cfi_offset 7,-4
 1060 0002 85B0     	 sub sp,sp,#20
 1061              	.LCFI71:
 1062              	 .cfi_def_cfa_offset 24
 1063 0004 00AF     	 add r7,sp,#0
 1064              	.LCFI72:
 1065              	 .cfi_def_cfa_register 7
 1066 0006 7860     	 str r0,[r7,#4]
 1067 0008 3960     	 str r1,[r7]
 929:../Dave/Generated/FATFS/ff_Src/ff.c **** 	UINT i, be;
 930:../Dave/Generated/FATFS/ff_Src/ff.c **** 
 931:../Dave/Generated/FATFS/ff_Src/ff.c **** 	/* Search open object table for the object */
 932:../Dave/Generated/FATFS/ff_Src/ff.c **** 	be = 0;
 1068              	 .loc 1 932 0
 1069 000a 0023     	 movs r3,#0
 1070 000c BB60     	 str r3,[r7,#8]
 933:../Dave/Generated/FATFS/ff_Src/ff.c **** 	for (i = 0; i < FF_FS_LOCK; i++) {
 1071              	 .loc 1 933 0
 1072 000e 0023     	 movs r3,#0
 1073 0010 FB60     	 str r3,[r7,#12]
 1074 0012 28E0     	 b .L39
 1075              	.L43:
 934:../Dave/Generated/FATFS/ff_Src/ff.c **** 		if (Files[i].fs) {	/* Existing entry */
 1076              	 .loc 1 934 0
 1077 0014 264A     	 ldr r2,.L51
 1078 0016 FB68     	 ldr r3,[r7,#12]
 1079 0018 1B01     	 lsls r3,r3,#4
 1080 001a 1344     	 add r3,r3,r2
 1081 001c 1B68     	 ldr r3,[r3]
 1082 001e 002B     	 cmp r3,#0
 1083 0020 1CD0     	 beq .L40
 935:../Dave/Generated/FATFS/ff_Src/ff.c **** 			if (Files[i].fs == dp->obj.fs &&	 	/* Check if the object matches with an open object */
 1084              	 .loc 1 935 0
 1085 0022 234A     	 ldr r2,.L51
 1086 0024 FB68     	 ldr r3,[r7,#12]
 1087 0026 1B01     	 lsls r3,r3,#4
 1088 0028 1344     	 add r3,r3,r2
 1089 002a 1A68     	 ldr r2,[r3]
 1090 002c 7B68     	 ldr r3,[r7,#4]
 1091 002e 1B68     	 ldr r3,[r3]
 1092 0030 9A42     	 cmp r2,r3
 1093 0032 15D1     	 bne .L41
 936:../Dave/Generated/FATFS/ff_Src/ff.c **** 				Files[i].clu == dp->obj.sclust &&
 1094              	 .loc 1 936 0 discriminator 1
 1095 0034 1E4A     	 ldr r2,.L51
 1096 0036 FB68     	 ldr r3,[r7,#12]
 1097 0038 1B01     	 lsls r3,r3,#4
 1098 003a 1344     	 add r3,r3,r2
 1099 003c 5A68     	 ldr r2,[r3,#4]
 1100 003e 7B68     	 ldr r3,[r7,#4]
 1101 0040 9B68     	 ldr r3,[r3,#8]
 935:../Dave/Generated/FATFS/ff_Src/ff.c **** 			if (Files[i].fs == dp->obj.fs &&	 	/* Check if the object matches with an open object */
 1102              	 .loc 1 935 0 discriminator 1
 1103 0042 9A42     	 cmp r2,r3
 1104 0044 0CD1     	 bne .L41
 937:../Dave/Generated/FATFS/ff_Src/ff.c **** 				Files[i].ofs == dp->dptr) break;
 1105              	 .loc 1 937 0
 1106 0046 1A4A     	 ldr r2,.L51
 1107 0048 FB68     	 ldr r3,[r7,#12]
 1108 004a 1B01     	 lsls r3,r3,#4
 1109 004c 1344     	 add r3,r3,r2
 1110 004e 0833     	 adds r3,r3,#8
 1111 0050 1A68     	 ldr r2,[r3]
 1112 0052 7B68     	 ldr r3,[r7,#4]
 1113 0054 5B69     	 ldr r3,[r3,#20]
 936:../Dave/Generated/FATFS/ff_Src/ff.c **** 				Files[i].clu == dp->obj.sclust &&
 1114              	 .loc 1 936 0
 1115 0056 9A42     	 cmp r2,r3
 1116 0058 02D1     	 bne .L41
 1117              	 .loc 1 937 0
 1118 005a 07E0     	 b .L42
 1119              	.L40:
 938:../Dave/Generated/FATFS/ff_Src/ff.c **** 		} else {			/* Blank entry */
 939:../Dave/Generated/FATFS/ff_Src/ff.c **** 			be = 1;
 1120              	 .loc 1 939 0
 1121 005c 0123     	 movs r3,#1
 1122 005e BB60     	 str r3,[r7,#8]
 1123              	.L41:
 933:../Dave/Generated/FATFS/ff_Src/ff.c **** 		if (Files[i].fs) {	/* Existing entry */
 1124              	 .loc 1 933 0 discriminator 2
 1125 0060 FB68     	 ldr r3,[r7,#12]
 1126 0062 0133     	 adds r3,r3,#1
 1127 0064 FB60     	 str r3,[r7,#12]
 1128              	.L39:
 933:../Dave/Generated/FATFS/ff_Src/ff.c **** 		if (Files[i].fs) {	/* Existing entry */
 1129              	 .loc 1 933 0 is_stmt 0 discriminator 1
 1130 0066 FB68     	 ldr r3,[r7,#12]
 1131 0068 002B     	 cmp r3,#0
 1132 006a D3D0     	 beq .L43
 1133              	.L42:
 940:../Dave/Generated/FATFS/ff_Src/ff.c **** 		}
 941:../Dave/Generated/FATFS/ff_Src/ff.c **** 	}
 942:../Dave/Generated/FATFS/ff_Src/ff.c **** 	if (i == FF_FS_LOCK) {	/* The object has not been opened */
 1134              	 .loc 1 942 0 is_stmt 1
 1135 006c FB68     	 ldr r3,[r7,#12]
 1136 006e 012B     	 cmp r3,#1
 1137 0070 09D1     	 bne .L44
 943:../Dave/Generated/FATFS/ff_Src/ff.c **** 		return (!be && acc != 2) ? FR_TOO_MANY_OPEN_FILES : FR_OK;	/* Is there a blank entry for new obje
 1138              	 .loc 1 943 0
 1139 0072 BB68     	 ldr r3,[r7,#8]
 1140 0074 002B     	 cmp r3,#0
 1141 0076 04D1     	 bne .L45
 1142              	 .loc 1 943 0 is_stmt 0 discriminator 1
 1143 0078 3B68     	 ldr r3,[r7]
 1144 007a 022B     	 cmp r3,#2
 1145 007c 01D0     	 beq .L45
 1146              	 .loc 1 943 0 discriminator 3
 1147 007e 1223     	 movs r3,#18
 1148 0080 10E0     	 b .L47
 1149              	.L45:
 1150              	 .loc 1 943 0 discriminator 4
 1151 0082 0023     	 movs r3,#0
 1152 0084 0EE0     	 b .L47
 1153              	.L44:
 944:../Dave/Generated/FATFS/ff_Src/ff.c **** 	}
 945:../Dave/Generated/FATFS/ff_Src/ff.c **** 
 946:../Dave/Generated/FATFS/ff_Src/ff.c **** 	/* The object was opened. Reject any open against writing file and all write mode open */
 947:../Dave/Generated/FATFS/ff_Src/ff.c **** 	return (acc != 0 || Files[i].ctr == 0x100) ? FR_LOCKED : FR_OK;
 1154              	 .loc 1 947 0 is_stmt 1
 1155 0086 3B68     	 ldr r3,[r7]
 1156 0088 002B     	 cmp r3,#0
 1157 008a 08D1     	 bne .L48
 1158              	 .loc 1 947 0 is_stmt 0 discriminator 2
 1159 008c 084A     	 ldr r2,.L51
 1160 008e FB68     	 ldr r3,[r7,#12]
 1161 0090 1B01     	 lsls r3,r3,#4
 1162 0092 1344     	 add r3,r3,r2
 1163 0094 0833     	 adds r3,r3,#8
 1164 0096 9B88     	 ldrh r3,[r3,#4]
 1165 0098 B3F5807F 	 cmp r3,#256
 1166 009c 01D1     	 bne .L49
 1167              	.L48:
 1168              	 .loc 1 947 0 discriminator 3
 1169 009e 1023     	 movs r3,#16
 1170 00a0 00E0     	 b .L47
 1171              	.L49:
 1172              	 .loc 1 947 0 discriminator 4
 1173 00a2 0023     	 movs r3,#0
 1174              	.L47:
 948:../Dave/Generated/FATFS/ff_Src/ff.c **** }
 1175              	 .loc 1 948 0 is_stmt 1
 1176 00a4 1846     	 mov r0,r3
 1177 00a6 1437     	 adds r7,r7,#20
 1178              	.LCFI73:
 1179              	 .cfi_def_cfa_offset 4
 1180 00a8 BD46     	 mov sp,r7
 1181              	.LCFI74:
 1182              	 .cfi_def_cfa_register 13
 1183              	 
 1184 00aa 5DF8047B 	 ldr r7,[sp],#4
 1185              	.LCFI75:
 1186              	 .cfi_restore 7
 1187              	 .cfi_def_cfa_offset 0
 1188 00ae 7047     	 bx lr
 1189              	.L52:
 1190              	 .align 2
 1191              	.L51:
 1192 00b0 00000000 	 .word Files
 1193              	 .cfi_endproc
 1194              	.LFE12:
 1196              	 .section .text.enq_lock,"ax",%progbits
 1197              	 .align 2
 1198              	 .thumb
 1199              	 .thumb_func
 1201              	enq_lock:
 1202              	.LFB13:
 949:../Dave/Generated/FATFS/ff_Src/ff.c **** 
 950:../Dave/Generated/FATFS/ff_Src/ff.c **** 
 951:../Dave/Generated/FATFS/ff_Src/ff.c **** static int enq_lock (void)	/* Check if an entry is available for a new object */
 952:../Dave/Generated/FATFS/ff_Src/ff.c **** {
 1203              	 .loc 1 952 0
 1204              	 .cfi_startproc
 1205              	 
 1206              	 
 1207              	 
 1208 0000 80B4     	 push {r7}
 1209              	.LCFI76:
 1210              	 .cfi_def_cfa_offset 4
 1211              	 .cfi_offset 7,-4
 1212 0002 83B0     	 sub sp,sp,#12
 1213              	.LCFI77:
 1214              	 .cfi_def_cfa_offset 16
 1215 0004 00AF     	 add r7,sp,#0
 1216              	.LCFI78:
 1217              	 .cfi_def_cfa_register 7
 953:../Dave/Generated/FATFS/ff_Src/ff.c **** 	UINT i;
 954:../Dave/Generated/FATFS/ff_Src/ff.c **** 
 955:../Dave/Generated/FATFS/ff_Src/ff.c **** 	for (i = 0; i < FF_FS_LOCK && Files[i].fs; i++) ;
 1218              	 .loc 1 955 0
 1219 0006 0023     	 movs r3,#0
 1220 0008 7B60     	 str r3,[r7,#4]
 1221 000a 02E0     	 b .L54
 1222              	.L56:
 1223              	 .loc 1 955 0 is_stmt 0 discriminator 4
 1224 000c 7B68     	 ldr r3,[r7,#4]
 1225 000e 0133     	 adds r3,r3,#1
 1226 0010 7B60     	 str r3,[r7,#4]
 1227              	.L54:
 1228              	 .loc 1 955 0 discriminator 1
 1229 0012 7B68     	 ldr r3,[r7,#4]
 1230 0014 002B     	 cmp r3,#0
 1231 0016 06D1     	 bne .L55
 1232              	 .loc 1 955 0 discriminator 3
 1233 0018 094A     	 ldr r2,.L58
 1234 001a 7B68     	 ldr r3,[r7,#4]
 1235 001c 1B01     	 lsls r3,r3,#4
 1236 001e 1344     	 add r3,r3,r2
 1237 0020 1B68     	 ldr r3,[r3]
 1238 0022 002B     	 cmp r3,#0
 1239 0024 F2D1     	 bne .L56
 1240              	.L55:
 956:../Dave/Generated/FATFS/ff_Src/ff.c **** 	return (i == FF_FS_LOCK) ? 0 : 1;
 1241              	 .loc 1 956 0 is_stmt 1
 1242 0026 7B68     	 ldr r3,[r7,#4]
 1243 0028 012B     	 cmp r3,#1
 1244 002a 14BF     	 ite ne
 1245 002c 0123     	 movne r3,#1
 1246 002e 0023     	 moveq r3,#0
 1247 0030 DBB2     	 uxtb r3,r3
 957:../Dave/Generated/FATFS/ff_Src/ff.c **** }
 1248              	 .loc 1 957 0
 1249 0032 1846     	 mov r0,r3
 1250 0034 0C37     	 adds r7,r7,#12
 1251              	.LCFI79:
 1252              	 .cfi_def_cfa_offset 4
 1253 0036 BD46     	 mov sp,r7
 1254              	.LCFI80:
 1255              	 .cfi_def_cfa_register 13
 1256              	 
 1257 0038 5DF8047B 	 ldr r7,[sp],#4
 1258              	.LCFI81:
 1259              	 .cfi_restore 7
 1260              	 .cfi_def_cfa_offset 0
 1261 003c 7047     	 bx lr
 1262              	.L59:
 1263 003e 00BF     	 .align 2
 1264              	.L58:
 1265 0040 00000000 	 .word Files
 1266              	 .cfi_endproc
 1267              	.LFE13:
 1269              	 .section .text.inc_lock,"ax",%progbits
 1270              	 .align 2
 1271              	 .thumb
 1272              	 .thumb_func
 1274              	inc_lock:
 1275              	.LFB14:
 958:../Dave/Generated/FATFS/ff_Src/ff.c **** 
 959:../Dave/Generated/FATFS/ff_Src/ff.c **** 
 960:../Dave/Generated/FATFS/ff_Src/ff.c **** static UINT inc_lock (	/* Increment object open counter and returns its index (0:Internal error) */
 961:../Dave/Generated/FATFS/ff_Src/ff.c **** 	DIR* dp,	/* Directory object pointing the file to register or increment */
 962:../Dave/Generated/FATFS/ff_Src/ff.c **** 	int acc		/* Desired access (0:Read, 1:Write, 2:Delete/Rename) */
 963:../Dave/Generated/FATFS/ff_Src/ff.c **** )
 964:../Dave/Generated/FATFS/ff_Src/ff.c **** {
 1276              	 .loc 1 964 0
 1277              	 .cfi_startproc
 1278              	 
 1279              	 
 1280              	 
 1281 0000 80B4     	 push {r7}
 1282              	.LCFI82:
 1283              	 .cfi_def_cfa_offset 4
 1284              	 .cfi_offset 7,-4
 1285 0002 85B0     	 sub sp,sp,#20
 1286              	.LCFI83:
 1287              	 .cfi_def_cfa_offset 24
 1288 0004 00AF     	 add r7,sp,#0
 1289              	.LCFI84:
 1290              	 .cfi_def_cfa_register 7
 1291 0006 7860     	 str r0,[r7,#4]
 1292 0008 3960     	 str r1,[r7]
 965:../Dave/Generated/FATFS/ff_Src/ff.c **** 	UINT i;
 966:../Dave/Generated/FATFS/ff_Src/ff.c **** 
 967:../Dave/Generated/FATFS/ff_Src/ff.c **** 
 968:../Dave/Generated/FATFS/ff_Src/ff.c **** 	for (i = 0; i < FF_FS_LOCK; i++) {	/* Find the object */
 1293              	 .loc 1 968 0
 1294 000a 0023     	 movs r3,#0
 1295 000c FB60     	 str r3,[r7,#12]
 1296 000e 1FE0     	 b .L61
 1297              	.L64:
 969:../Dave/Generated/FATFS/ff_Src/ff.c **** 		if (Files[i].fs == dp->obj.fs &&
 1298              	 .loc 1 969 0
 1299 0010 404A     	 ldr r2,.L74
 1300 0012 FB68     	 ldr r3,[r7,#12]
 1301 0014 1B01     	 lsls r3,r3,#4
 1302 0016 1344     	 add r3,r3,r2
 1303 0018 1A68     	 ldr r2,[r3]
 1304 001a 7B68     	 ldr r3,[r7,#4]
 1305 001c 1B68     	 ldr r3,[r3]
 1306 001e 9A42     	 cmp r2,r3
 1307 0020 13D1     	 bne .L62
 970:../Dave/Generated/FATFS/ff_Src/ff.c **** 			Files[i].clu == dp->obj.sclust &&
 1308              	 .loc 1 970 0 discriminator 1
 1309 0022 3C4A     	 ldr r2,.L74
 1310 0024 FB68     	 ldr r3,[r7,#12]
 1311 0026 1B01     	 lsls r3,r3,#4
 1312 0028 1344     	 add r3,r3,r2
 1313 002a 5A68     	 ldr r2,[r3,#4]
 1314 002c 7B68     	 ldr r3,[r7,#4]
 1315 002e 9B68     	 ldr r3,[r3,#8]
 969:../Dave/Generated/FATFS/ff_Src/ff.c **** 		if (Files[i].fs == dp->obj.fs &&
 1316              	 .loc 1 969 0 discriminator 1
 1317 0030 9A42     	 cmp r2,r3
 1318 0032 0AD1     	 bne .L62
 971:../Dave/Generated/FATFS/ff_Src/ff.c **** 			Files[i].ofs == dp->dptr) break;
 1319              	 .loc 1 971 0
 1320 0034 374A     	 ldr r2,.L74
 1321 0036 FB68     	 ldr r3,[r7,#12]
 1322 0038 1B01     	 lsls r3,r3,#4
 1323 003a 1344     	 add r3,r3,r2
 1324 003c 0833     	 adds r3,r3,#8
 1325 003e 1A68     	 ldr r2,[r3]
 1326 0040 7B68     	 ldr r3,[r7,#4]
 1327 0042 5B69     	 ldr r3,[r3,#20]
 970:../Dave/Generated/FATFS/ff_Src/ff.c **** 			Files[i].clu == dp->obj.sclust &&
 1328              	 .loc 1 970 0
 1329 0044 9A42     	 cmp r2,r3
 1330 0046 00D1     	 bne .L62
 1331              	 .loc 1 971 0
 1332 0048 05E0     	 b .L63
 1333              	.L62:
 968:../Dave/Generated/FATFS/ff_Src/ff.c **** 		if (Files[i].fs == dp->obj.fs &&
 1334              	 .loc 1 968 0 discriminator 2
 1335 004a FB68     	 ldr r3,[r7,#12]
 1336 004c 0133     	 adds r3,r3,#1
 1337 004e FB60     	 str r3,[r7,#12]
 1338              	.L61:
 968:../Dave/Generated/FATFS/ff_Src/ff.c **** 		if (Files[i].fs == dp->obj.fs &&
 1339              	 .loc 1 968 0 is_stmt 0 discriminator 1
 1340 0050 FB68     	 ldr r3,[r7,#12]
 1341 0052 002B     	 cmp r3,#0
 1342 0054 DCD0     	 beq .L64
 1343              	.L63:
 972:../Dave/Generated/FATFS/ff_Src/ff.c **** 	}
 973:../Dave/Generated/FATFS/ff_Src/ff.c **** 
 974:../Dave/Generated/FATFS/ff_Src/ff.c **** 	if (i == FF_FS_LOCK) {				/* Not opened. Register it as new. */
 1344              	 .loc 1 974 0 is_stmt 1
 1345 0056 FB68     	 ldr r3,[r7,#12]
 1346 0058 012B     	 cmp r3,#1
 1347 005a 31D1     	 bne .L65
 975:../Dave/Generated/FATFS/ff_Src/ff.c **** 		for (i = 0; i < FF_FS_LOCK && Files[i].fs; i++) ;
 1348              	 .loc 1 975 0
 1349 005c 0023     	 movs r3,#0
 1350 005e FB60     	 str r3,[r7,#12]
 1351 0060 02E0     	 b .L66
 1352              	.L68:
 1353              	 .loc 1 975 0 is_stmt 0 discriminator 4
 1354 0062 FB68     	 ldr r3,[r7,#12]
 1355 0064 0133     	 adds r3,r3,#1
 1356 0066 FB60     	 str r3,[r7,#12]
 1357              	.L66:
 1358              	 .loc 1 975 0 discriminator 1
 1359 0068 FB68     	 ldr r3,[r7,#12]
 1360 006a 002B     	 cmp r3,#0
 1361 006c 06D1     	 bne .L67
 1362              	 .loc 1 975 0 discriminator 3
 1363 006e 294A     	 ldr r2,.L74
 1364 0070 FB68     	 ldr r3,[r7,#12]
 1365 0072 1B01     	 lsls r3,r3,#4
 1366 0074 1344     	 add r3,r3,r2
 1367 0076 1B68     	 ldr r3,[r3]
 1368 0078 002B     	 cmp r3,#0
 1369 007a F2D1     	 bne .L68
 1370              	.L67:
 976:../Dave/Generated/FATFS/ff_Src/ff.c **** 		if (i == FF_FS_LOCK) return 0;	/* No free entry to register (int err) */
 1371              	 .loc 1 976 0 is_stmt 1
 1372 007c FB68     	 ldr r3,[r7,#12]
 1373 007e 012B     	 cmp r3,#1
 1374 0080 01D1     	 bne .L69
 1375              	 .loc 1 976 0 is_stmt 0 discriminator 1
 1376 0082 0023     	 movs r3,#0
 1377 0084 3FE0     	 b .L70
 1378              	.L69:
 977:../Dave/Generated/FATFS/ff_Src/ff.c **** 		Files[i].fs = dp->obj.fs;
 1379              	 .loc 1 977 0 is_stmt 1
 1380 0086 7B68     	 ldr r3,[r7,#4]
 1381 0088 1A68     	 ldr r2,[r3]
 1382 008a 2249     	 ldr r1,.L74
 1383 008c FB68     	 ldr r3,[r7,#12]
 1384 008e 1B01     	 lsls r3,r3,#4
 1385 0090 0B44     	 add r3,r3,r1
 1386 0092 1A60     	 str r2,[r3]
 978:../Dave/Generated/FATFS/ff_Src/ff.c **** 		Files[i].clu = dp->obj.sclust;
 1387              	 .loc 1 978 0
 1388 0094 7B68     	 ldr r3,[r7,#4]
 1389 0096 9A68     	 ldr r2,[r3,#8]
 1390 0098 1E49     	 ldr r1,.L74
 1391 009a FB68     	 ldr r3,[r7,#12]
 1392 009c 1B01     	 lsls r3,r3,#4
 1393 009e 0B44     	 add r3,r3,r1
 1394 00a0 5A60     	 str r2,[r3,#4]
 979:../Dave/Generated/FATFS/ff_Src/ff.c **** 		Files[i].ofs = dp->dptr;
 1395              	 .loc 1 979 0
 1396 00a2 7B68     	 ldr r3,[r7,#4]
 1397 00a4 5A69     	 ldr r2,[r3,#20]
 1398 00a6 1B49     	 ldr r1,.L74
 1399 00a8 FB68     	 ldr r3,[r7,#12]
 1400 00aa 1B01     	 lsls r3,r3,#4
 1401 00ac 0B44     	 add r3,r3,r1
 1402 00ae 0833     	 adds r3,r3,#8
 1403 00b0 1A60     	 str r2,[r3]
 980:../Dave/Generated/FATFS/ff_Src/ff.c **** 		Files[i].ctr = 0;
 1404              	 .loc 1 980 0
 1405 00b2 184A     	 ldr r2,.L74
 1406 00b4 FB68     	 ldr r3,[r7,#12]
 1407 00b6 1B01     	 lsls r3,r3,#4
 1408 00b8 1344     	 add r3,r3,r2
 1409 00ba 0833     	 adds r3,r3,#8
 1410 00bc 0022     	 movs r2,#0
 1411 00be 9A80     	 strh r2,[r3,#4]
 1412              	.L65:
 981:../Dave/Generated/FATFS/ff_Src/ff.c **** 	}
 982:../Dave/Generated/FATFS/ff_Src/ff.c **** 
 983:../Dave/Generated/FATFS/ff_Src/ff.c **** 	if (acc >= 1 && Files[i].ctr) return 0;	/* Access violation (int err) */
 1413              	 .loc 1 983 0
 1414 00c0 3B68     	 ldr r3,[r7]
 1415 00c2 002B     	 cmp r3,#0
 1416 00c4 09DD     	 ble .L71
 1417              	 .loc 1 983 0 is_stmt 0 discriminator 1
 1418 00c6 134A     	 ldr r2,.L74
 1419 00c8 FB68     	 ldr r3,[r7,#12]
 1420 00ca 1B01     	 lsls r3,r3,#4
 1421 00cc 1344     	 add r3,r3,r2
 1422 00ce 0833     	 adds r3,r3,#8
 1423 00d0 9B88     	 ldrh r3,[r3,#4]
 1424 00d2 002B     	 cmp r3,#0
 1425 00d4 01D0     	 beq .L71
 1426              	 .loc 1 983 0 discriminator 2
 1427 00d6 0023     	 movs r3,#0
 1428 00d8 15E0     	 b .L70
 1429              	.L71:
 984:../Dave/Generated/FATFS/ff_Src/ff.c **** 
 985:../Dave/Generated/FATFS/ff_Src/ff.c **** 	Files[i].ctr = acc ? 0x100 : Files[i].ctr + 1;	/* Set semaphore value */
 1430              	 .loc 1 985 0 is_stmt 1
 1431 00da 3B68     	 ldr r3,[r7]
 1432 00dc 002B     	 cmp r3,#0
 1433 00de 08D1     	 bne .L72
 1434              	 .loc 1 985 0 is_stmt 0 discriminator 1
 1435 00e0 0C4A     	 ldr r2,.L74
 1436 00e2 FB68     	 ldr r3,[r7,#12]
 1437 00e4 1B01     	 lsls r3,r3,#4
 1438 00e6 1344     	 add r3,r3,r2
 1439 00e8 0833     	 adds r3,r3,#8
 1440 00ea 9B88     	 ldrh r3,[r3,#4]
 1441 00ec 0133     	 adds r3,r3,#1
 1442 00ee 9AB2     	 uxth r2,r3
 1443 00f0 01E0     	 b .L73
 1444              	.L72:
 1445              	 .loc 1 985 0 discriminator 2
 1446 00f2 4FF48072 	 mov r2,#256
 1447              	.L73:
 1448              	 .loc 1 985 0 discriminator 4
 1449 00f6 0749     	 ldr r1,.L74
 1450 00f8 FB68     	 ldr r3,[r7,#12]
 1451 00fa 1B01     	 lsls r3,r3,#4
 1452 00fc 0B44     	 add r3,r3,r1
 1453 00fe 0833     	 adds r3,r3,#8
 1454 0100 9A80     	 strh r2,[r3,#4]
 986:../Dave/Generated/FATFS/ff_Src/ff.c **** 
 987:../Dave/Generated/FATFS/ff_Src/ff.c **** 	return i + 1;	/* Index number origin from 1 */
 1455              	 .loc 1 987 0 is_stmt 1 discriminator 4
 1456 0102 FB68     	 ldr r3,[r7,#12]
 1457 0104 0133     	 adds r3,r3,#1
 1458              	.L70:
 988:../Dave/Generated/FATFS/ff_Src/ff.c **** }
 1459              	 .loc 1 988 0
 1460 0106 1846     	 mov r0,r3
 1461 0108 1437     	 adds r7,r7,#20
 1462              	.LCFI85:
 1463              	 .cfi_def_cfa_offset 4
 1464 010a BD46     	 mov sp,r7
 1465              	.LCFI86:
 1466              	 .cfi_def_cfa_register 13
 1467              	 
 1468 010c 5DF8047B 	 ldr r7,[sp],#4
 1469              	.LCFI87:
 1470              	 .cfi_restore 7
 1471              	 .cfi_def_cfa_offset 0
 1472 0110 7047     	 bx lr
 1473              	.L75:
 1474 0112 00BF     	 .align 2
 1475              	.L74:
 1476 0114 00000000 	 .word Files
 1477              	 .cfi_endproc
 1478              	.LFE14:
 1480              	 .section .text.dec_lock,"ax",%progbits
 1481              	 .align 2
 1482              	 .thumb
 1483              	 .thumb_func
 1485              	dec_lock:
 1486              	.LFB15:
 989:../Dave/Generated/FATFS/ff_Src/ff.c **** 
 990:../Dave/Generated/FATFS/ff_Src/ff.c **** 
 991:../Dave/Generated/FATFS/ff_Src/ff.c **** static FRESULT dec_lock (	/* Decrement object open counter */
 992:../Dave/Generated/FATFS/ff_Src/ff.c **** 	UINT i			/* Semaphore index (1..) */
 993:../Dave/Generated/FATFS/ff_Src/ff.c **** )
 994:../Dave/Generated/FATFS/ff_Src/ff.c **** {
 1487              	 .loc 1 994 0
 1488              	 .cfi_startproc
 1489              	 
 1490              	 
 1491              	 
 1492 0000 80B4     	 push {r7}
 1493              	.LCFI88:
 1494              	 .cfi_def_cfa_offset 4
 1495              	 .cfi_offset 7,-4
 1496 0002 85B0     	 sub sp,sp,#20
 1497              	.LCFI89:
 1498              	 .cfi_def_cfa_offset 24
 1499 0004 00AF     	 add r7,sp,#0
 1500              	.LCFI90:
 1501              	 .cfi_def_cfa_register 7
 1502 0006 7860     	 str r0,[r7,#4]
 995:../Dave/Generated/FATFS/ff_Src/ff.c **** 	WORD n;
 996:../Dave/Generated/FATFS/ff_Src/ff.c **** 	FRESULT res;
 997:../Dave/Generated/FATFS/ff_Src/ff.c **** 
 998:../Dave/Generated/FATFS/ff_Src/ff.c **** 
 999:../Dave/Generated/FATFS/ff_Src/ff.c **** 	if (--i < FF_FS_LOCK) {	/* Index number origin from 0 */
 1503              	 .loc 1 999 0
 1504 0008 7B68     	 ldr r3,[r7,#4]
 1505 000a 013B     	 subs r3,r3,#1
 1506 000c 7B60     	 str r3,[r7,#4]
 1507 000e 7B68     	 ldr r3,[r7,#4]
 1508 0010 002B     	 cmp r3,#0
 1509 0012 25D1     	 bne .L77
1000:../Dave/Generated/FATFS/ff_Src/ff.c **** 		n = Files[i].ctr;
 1510              	 .loc 1 1000 0
 1511 0014 174A     	 ldr r2,.L83
 1512 0016 7B68     	 ldr r3,[r7,#4]
 1513 0018 1B01     	 lsls r3,r3,#4
 1514 001a 1344     	 add r3,r3,r2
 1515 001c 0833     	 adds r3,r3,#8
 1516 001e 9B88     	 ldrh r3,[r3,#4]
 1517 0020 FB81     	 strh r3,[r7,#14]
1001:../Dave/Generated/FATFS/ff_Src/ff.c **** 		if (n == 0x100) n = 0;		/* If write mode open, delete the entry */
 1518              	 .loc 1 1001 0
 1519 0022 FB89     	 ldrh r3,[r7,#14]
 1520 0024 B3F5807F 	 cmp r3,#256
 1521 0028 01D1     	 bne .L78
 1522              	 .loc 1 1001 0 is_stmt 0 discriminator 1
 1523 002a 0023     	 movs r3,#0
 1524 002c FB81     	 strh r3,[r7,#14]
 1525              	.L78:
1002:../Dave/Generated/FATFS/ff_Src/ff.c **** 		if (n > 0) n--;				/* Decrement read mode open count */
 1526              	 .loc 1 1002 0 is_stmt 1
 1527 002e FB89     	 ldrh r3,[r7,#14]
 1528 0030 002B     	 cmp r3,#0
 1529 0032 02D0     	 beq .L79
 1530              	 .loc 1 1002 0 is_stmt 0 discriminator 1
 1531 0034 FB89     	 ldrh r3,[r7,#14]
 1532 0036 013B     	 subs r3,r3,#1
 1533 0038 FB81     	 strh r3,[r7,#14]
 1534              	.L79:
1003:../Dave/Generated/FATFS/ff_Src/ff.c **** 		Files[i].ctr = n;
 1535              	 .loc 1 1003 0 is_stmt 1
 1536 003a 0E4A     	 ldr r2,.L83
 1537 003c 7B68     	 ldr r3,[r7,#4]
 1538 003e 1B01     	 lsls r3,r3,#4
 1539 0040 1344     	 add r3,r3,r2
 1540 0042 0833     	 adds r3,r3,#8
 1541 0044 FA89     	 ldrh r2,[r7,#14]
 1542 0046 9A80     	 strh r2,[r3,#4]
1004:../Dave/Generated/FATFS/ff_Src/ff.c **** 		if (n == 0) Files[i].fs = 0;	/* Delete the entry if open count gets zero */
 1543              	 .loc 1 1004 0
 1544 0048 FB89     	 ldrh r3,[r7,#14]
 1545 004a 002B     	 cmp r3,#0
 1546 004c 05D1     	 bne .L80
 1547              	 .loc 1 1004 0 is_stmt 0 discriminator 1
 1548 004e 094A     	 ldr r2,.L83
 1549 0050 7B68     	 ldr r3,[r7,#4]
 1550 0052 1B01     	 lsls r3,r3,#4
 1551 0054 1344     	 add r3,r3,r2
 1552 0056 0022     	 movs r2,#0
 1553 0058 1A60     	 str r2,[r3]
 1554              	.L80:
1005:../Dave/Generated/FATFS/ff_Src/ff.c **** 		res = FR_OK;
 1555              	 .loc 1 1005 0 is_stmt 1
 1556 005a 0023     	 movs r3,#0
 1557 005c 7B73     	 strb r3,[r7,#13]
 1558 005e 01E0     	 b .L81
 1559              	.L77:
1006:../Dave/Generated/FATFS/ff_Src/ff.c **** 	} else {
1007:../Dave/Generated/FATFS/ff_Src/ff.c **** 		res = FR_INT_ERR;			/* Invalid index nunber */
 1560              	 .loc 1 1007 0
 1561 0060 0223     	 movs r3,#2
 1562 0062 7B73     	 strb r3,[r7,#13]
 1563              	.L81:
1008:../Dave/Generated/FATFS/ff_Src/ff.c **** 	}
1009:../Dave/Generated/FATFS/ff_Src/ff.c **** 	return res;
 1564              	 .loc 1 1009 0
 1565 0064 7B7B     	 ldrb r3,[r7,#13]
1010:../Dave/Generated/FATFS/ff_Src/ff.c **** }
 1566              	 .loc 1 1010 0
 1567 0066 1846     	 mov r0,r3
 1568 0068 1437     	 adds r7,r7,#20
 1569              	.LCFI91:
 1570              	 .cfi_def_cfa_offset 4
 1571 006a BD46     	 mov sp,r7
 1572              	.LCFI92:
 1573              	 .cfi_def_cfa_register 13
 1574              	 
 1575 006c 5DF8047B 	 ldr r7,[sp],#4
 1576              	.LCFI93:
 1577              	 .cfi_restore 7
 1578              	 .cfi_def_cfa_offset 0
 1579 0070 7047     	 bx lr
 1580              	.L84:
 1581 0072 00BF     	 .align 2
 1582              	.L83:
 1583 0074 00000000 	 .word Files
 1584              	 .cfi_endproc
 1585              	.LFE15:
 1587              	 .section .text.clear_lock,"ax",%progbits
 1588              	 .align 2
 1589              	 .thumb
 1590              	 .thumb_func
 1592              	clear_lock:
 1593              	.LFB16:
1011:../Dave/Generated/FATFS/ff_Src/ff.c **** 
1012:../Dave/Generated/FATFS/ff_Src/ff.c **** 
1013:../Dave/Generated/FATFS/ff_Src/ff.c **** static void clear_lock (	/* Clear lock entries of the volume */
1014:../Dave/Generated/FATFS/ff_Src/ff.c **** 	FATFS *fs
1015:../Dave/Generated/FATFS/ff_Src/ff.c **** )
1016:../Dave/Generated/FATFS/ff_Src/ff.c **** {
 1594              	 .loc 1 1016 0
 1595              	 .cfi_startproc
 1596              	 
 1597              	 
 1598              	 
 1599 0000 80B4     	 push {r7}
 1600              	.LCFI94:
 1601              	 .cfi_def_cfa_offset 4
 1602              	 .cfi_offset 7,-4
 1603 0002 85B0     	 sub sp,sp,#20
 1604              	.LCFI95:
 1605              	 .cfi_def_cfa_offset 24
 1606 0004 00AF     	 add r7,sp,#0
 1607              	.LCFI96:
 1608              	 .cfi_def_cfa_register 7
 1609 0006 7860     	 str r0,[r7,#4]
1017:../Dave/Generated/FATFS/ff_Src/ff.c **** 	UINT i;
1018:../Dave/Generated/FATFS/ff_Src/ff.c **** 
1019:../Dave/Generated/FATFS/ff_Src/ff.c **** 	for (i = 0; i < FF_FS_LOCK; i++) {
 1610              	 .loc 1 1019 0
 1611 0008 0023     	 movs r3,#0
 1612 000a FB60     	 str r3,[r7,#12]
 1613 000c 10E0     	 b .L86
 1614              	.L88:
1020:../Dave/Generated/FATFS/ff_Src/ff.c **** 		if (Files[i].fs == fs) Files[i].fs = 0;
 1615              	 .loc 1 1020 0
 1616 000e 0C4A     	 ldr r2,.L89
 1617 0010 FB68     	 ldr r3,[r7,#12]
 1618 0012 1B01     	 lsls r3,r3,#4
 1619 0014 1344     	 add r3,r3,r2
 1620 0016 1A68     	 ldr r2,[r3]
 1621 0018 7B68     	 ldr r3,[r7,#4]
 1622 001a 9A42     	 cmp r2,r3
 1623 001c 05D1     	 bne .L87
 1624              	 .loc 1 1020 0 is_stmt 0 discriminator 1
 1625 001e 084A     	 ldr r2,.L89
 1626 0020 FB68     	 ldr r3,[r7,#12]
 1627 0022 1B01     	 lsls r3,r3,#4
 1628 0024 1344     	 add r3,r3,r2
 1629 0026 0022     	 movs r2,#0
 1630 0028 1A60     	 str r2,[r3]
 1631              	.L87:
1019:../Dave/Generated/FATFS/ff_Src/ff.c **** 		if (Files[i].fs == fs) Files[i].fs = 0;
 1632              	 .loc 1 1019 0 is_stmt 1 discriminator 2
 1633 002a FB68     	 ldr r3,[r7,#12]
 1634 002c 0133     	 adds r3,r3,#1
 1635 002e FB60     	 str r3,[r7,#12]
 1636              	.L86:
1019:../Dave/Generated/FATFS/ff_Src/ff.c **** 		if (Files[i].fs == fs) Files[i].fs = 0;
 1637              	 .loc 1 1019 0 is_stmt 0 discriminator 1
 1638 0030 FB68     	 ldr r3,[r7,#12]
 1639 0032 002B     	 cmp r3,#0
 1640 0034 EBD0     	 beq .L88
1021:../Dave/Generated/FATFS/ff_Src/ff.c **** 	}
1022:../Dave/Generated/FATFS/ff_Src/ff.c **** }
 1641              	 .loc 1 1022 0 is_stmt 1
 1642 0036 1437     	 adds r7,r7,#20
 1643              	.LCFI97:
 1644              	 .cfi_def_cfa_offset 4
 1645 0038 BD46     	 mov sp,r7
 1646              	.LCFI98:
 1647              	 .cfi_def_cfa_register 13
 1648              	 
 1649 003a 5DF8047B 	 ldr r7,[sp],#4
 1650              	.LCFI99:
 1651              	 .cfi_restore 7
 1652              	 .cfi_def_cfa_offset 0
 1653 003e 7047     	 bx lr
 1654              	.L90:
 1655              	 .align 2
 1656              	.L89:
 1657 0040 00000000 	 .word Files
 1658              	 .cfi_endproc
 1659              	.LFE16:
 1661              	 .section .text.sync_window,"ax",%progbits
 1662              	 .align 2
 1663              	 .thumb
 1664              	 .thumb_func
 1666              	sync_window:
 1667              	.LFB17:
1023:../Dave/Generated/FATFS/ff_Src/ff.c **** 
1024:../Dave/Generated/FATFS/ff_Src/ff.c **** #endif	/* FF_FS_LOCK != 0 */
1025:../Dave/Generated/FATFS/ff_Src/ff.c **** 
1026:../Dave/Generated/FATFS/ff_Src/ff.c **** 
1027:../Dave/Generated/FATFS/ff_Src/ff.c **** 
1028:../Dave/Generated/FATFS/ff_Src/ff.c **** /*-----------------------------------------------------------------------*/
1029:../Dave/Generated/FATFS/ff_Src/ff.c **** /* Move/Flush disk access window in the filesystem object                */
1030:../Dave/Generated/FATFS/ff_Src/ff.c **** /*-----------------------------------------------------------------------*/
1031:../Dave/Generated/FATFS/ff_Src/ff.c **** #if !FF_FS_READONLY
1032:../Dave/Generated/FATFS/ff_Src/ff.c **** static FRESULT sync_window (	/* Returns FR_OK or FR_DISK_ERR */
1033:../Dave/Generated/FATFS/ff_Src/ff.c **** 	FATFS* fs			/* Filesystem object */
1034:../Dave/Generated/FATFS/ff_Src/ff.c **** )
1035:../Dave/Generated/FATFS/ff_Src/ff.c **** {
 1668              	 .loc 1 1035 0
 1669              	 .cfi_startproc
 1670              	 
 1671              	 
 1672 0000 80B5     	 push {r7,lr}
 1673              	.LCFI100:
 1674              	 .cfi_def_cfa_offset 8
 1675              	 .cfi_offset 7,-8
 1676              	 .cfi_offset 14,-4
 1677 0002 84B0     	 sub sp,sp,#16
 1678              	.LCFI101:
 1679              	 .cfi_def_cfa_offset 24
 1680 0004 00AF     	 add r7,sp,#0
 1681              	.LCFI102:
 1682              	 .cfi_def_cfa_register 7
 1683 0006 7860     	 str r0,[r7,#4]
1036:../Dave/Generated/FATFS/ff_Src/ff.c **** 	FRESULT res = FR_OK;
 1684              	 .loc 1 1036 0
 1685 0008 0023     	 movs r3,#0
 1686 000a FB73     	 strb r3,[r7,#15]
1037:../Dave/Generated/FATFS/ff_Src/ff.c **** 
1038:../Dave/Generated/FATFS/ff_Src/ff.c **** 
1039:../Dave/Generated/FATFS/ff_Src/ff.c **** 	if (fs->wflag) {	/* Is the disk access window dirty */
 1687              	 .loc 1 1039 0
 1688 000c 7B68     	 ldr r3,[r7,#4]
 1689 000e DB78     	 ldrb r3,[r3,#3]
 1690 0010 002B     	 cmp r3,#0
 1691 0012 30D0     	 beq .L92
1040:../Dave/Generated/FATFS/ff_Src/ff.c **** 		if (disk_write(fs->pdrv, fs->win, fs->winsect, 1) == RES_OK) {	/* Write back the window */
 1692              	 .loc 1 1040 0
 1693 0014 7B68     	 ldr r3,[r7,#4]
 1694 0016 5978     	 ldrb r1,[r3,#1]
 1695 0018 7B68     	 ldr r3,[r7,#4]
 1696 001a 03F13802 	 add r2,r3,#56
 1697 001e 7B68     	 ldr r3,[r7,#4]
 1698 0020 5B6B     	 ldr r3,[r3,#52]
 1699 0022 0846     	 mov r0,r1
 1700 0024 1146     	 mov r1,r2
 1701 0026 1A46     	 mov r2,r3
 1702 0028 0123     	 movs r3,#1
 1703 002a FFF7FEFF 	 bl disk_write
 1704 002e 0346     	 mov r3,r0
 1705 0030 002B     	 cmp r3,#0
 1706 0032 1ED1     	 bne .L93
1041:../Dave/Generated/FATFS/ff_Src/ff.c **** 			fs->wflag = 0;	/* Clear window dirty flag */
 1707              	 .loc 1 1041 0
 1708 0034 7B68     	 ldr r3,[r7,#4]
 1709 0036 0022     	 movs r2,#0
 1710 0038 DA70     	 strb r2,[r3,#3]
1042:../Dave/Generated/FATFS/ff_Src/ff.c **** 			if (fs->winsect - fs->fatbase < fs->fsize) {	/* Is it in the 1st FAT? */
 1711              	 .loc 1 1042 0
 1712 003a 7B68     	 ldr r3,[r7,#4]
 1713 003c 5A6B     	 ldr r2,[r3,#52]
 1714 003e 7B68     	 ldr r3,[r7,#4]
 1715 0040 9B6A     	 ldr r3,[r3,#40]
 1716 0042 D21A     	 subs r2,r2,r3
 1717 0044 7B68     	 ldr r3,[r7,#4]
 1718 0046 1B6A     	 ldr r3,[r3,#32]
 1719 0048 9A42     	 cmp r2,r3
 1720 004a 14D2     	 bcs .L92
1043:../Dave/Generated/FATFS/ff_Src/ff.c **** 				if (fs->n_fats == 2) disk_write(fs->pdrv, fs->win, fs->winsect + fs->fsize, 1);	/* Reflect it t
 1721              	 .loc 1 1043 0
 1722 004c 7B68     	 ldr r3,[r7,#4]
 1723 004e 9B78     	 ldrb r3,[r3,#2]
 1724 0050 022B     	 cmp r3,#2
 1725 0052 10D1     	 bne .L92
 1726              	 .loc 1 1043 0 is_stmt 0 discriminator 1
 1727 0054 7B68     	 ldr r3,[r7,#4]
 1728 0056 5878     	 ldrb r0,[r3,#1]
 1729 0058 7B68     	 ldr r3,[r7,#4]
 1730 005a 03F13801 	 add r1,r3,#56
 1731 005e 7B68     	 ldr r3,[r7,#4]
 1732 0060 5A6B     	 ldr r2,[r3,#52]
 1733 0062 7B68     	 ldr r3,[r7,#4]
 1734 0064 1B6A     	 ldr r3,[r3,#32]
 1735 0066 1344     	 add r3,r3,r2
 1736 0068 1A46     	 mov r2,r3
 1737 006a 0123     	 movs r3,#1
 1738 006c FFF7FEFF 	 bl disk_write
 1739 0070 01E0     	 b .L92
 1740              	.L93:
1044:../Dave/Generated/FATFS/ff_Src/ff.c **** 			}
1045:../Dave/Generated/FATFS/ff_Src/ff.c **** 		} else {
1046:../Dave/Generated/FATFS/ff_Src/ff.c **** 			res = FR_DISK_ERR;
 1741              	 .loc 1 1046 0 is_stmt 1
 1742 0072 0123     	 movs r3,#1
 1743 0074 FB73     	 strb r3,[r7,#15]
 1744              	.L92:
1047:../Dave/Generated/FATFS/ff_Src/ff.c **** 		}
1048:../Dave/Generated/FATFS/ff_Src/ff.c **** 	}
1049:../Dave/Generated/FATFS/ff_Src/ff.c **** 	return res;
 1745              	 .loc 1 1049 0
 1746 0076 FB7B     	 ldrb r3,[r7,#15]
1050:../Dave/Generated/FATFS/ff_Src/ff.c **** }
 1747              	 .loc 1 1050 0
 1748 0078 1846     	 mov r0,r3
 1749 007a 1037     	 adds r7,r7,#16
 1750              	.LCFI103:
 1751              	 .cfi_def_cfa_offset 8
 1752 007c BD46     	 mov sp,r7
 1753              	.LCFI104:
 1754              	 .cfi_def_cfa_register 13
 1755              	 
 1756 007e 80BD     	 pop {r7,pc}
 1757              	 .cfi_endproc
 1758              	.LFE17:
 1760              	 .section .text.move_window,"ax",%progbits
 1761              	 .align 2
 1762              	 .thumb
 1763              	 .thumb_func
 1765              	move_window:
 1766              	.LFB18:
1051:../Dave/Generated/FATFS/ff_Src/ff.c **** #endif
1052:../Dave/Generated/FATFS/ff_Src/ff.c **** 
1053:../Dave/Generated/FATFS/ff_Src/ff.c **** 
1054:../Dave/Generated/FATFS/ff_Src/ff.c **** static FRESULT move_window (	/* Returns FR_OK or FR_DISK_ERR */
1055:../Dave/Generated/FATFS/ff_Src/ff.c **** 	FATFS* fs,			/* Filesystem object */
1056:../Dave/Generated/FATFS/ff_Src/ff.c **** 	DWORD sector		/* Sector number to make appearance in the fs->win[] */
1057:../Dave/Generated/FATFS/ff_Src/ff.c **** )
1058:../Dave/Generated/FATFS/ff_Src/ff.c **** {
 1767              	 .loc 1 1058 0
 1768              	 .cfi_startproc
 1769              	 
 1770              	 
 1771 0000 80B5     	 push {r7,lr}
 1772              	.LCFI105:
 1773              	 .cfi_def_cfa_offset 8
 1774              	 .cfi_offset 7,-8
 1775              	 .cfi_offset 14,-4
 1776 0002 84B0     	 sub sp,sp,#16
 1777              	.LCFI106:
 1778              	 .cfi_def_cfa_offset 24
 1779 0004 00AF     	 add r7,sp,#0
 1780              	.LCFI107:
 1781              	 .cfi_def_cfa_register 7
 1782 0006 7860     	 str r0,[r7,#4]
 1783 0008 3960     	 str r1,[r7]
1059:../Dave/Generated/FATFS/ff_Src/ff.c **** 	FRESULT res = FR_OK;
 1784              	 .loc 1 1059 0
 1785 000a 0023     	 movs r3,#0
 1786 000c FB73     	 strb r3,[r7,#15]
1060:../Dave/Generated/FATFS/ff_Src/ff.c **** 
1061:../Dave/Generated/FATFS/ff_Src/ff.c **** 
1062:../Dave/Generated/FATFS/ff_Src/ff.c **** 	if (sector != fs->winsect) {	/* Window offset changed? */
 1787              	 .loc 1 1062 0
 1788 000e 7B68     	 ldr r3,[r7,#4]
 1789 0010 5A6B     	 ldr r2,[r3,#52]
 1790 0012 3B68     	 ldr r3,[r7]
 1791 0014 9A42     	 cmp r2,r3
 1792 0016 1CD0     	 beq .L97
1063:../Dave/Generated/FATFS/ff_Src/ff.c **** #if !FF_FS_READONLY
1064:../Dave/Generated/FATFS/ff_Src/ff.c **** 		res = sync_window(fs);		/* Write-back changes */
 1793              	 .loc 1 1064 0
 1794 0018 7868     	 ldr r0,[r7,#4]
 1795 001a FFF7FEFF 	 bl sync_window
 1796 001e 0346     	 mov r3,r0
 1797 0020 FB73     	 strb r3,[r7,#15]
1065:../Dave/Generated/FATFS/ff_Src/ff.c **** #endif
1066:../Dave/Generated/FATFS/ff_Src/ff.c **** 		if (res == FR_OK) {			/* Fill sector window with new data */
 1798              	 .loc 1 1066 0
 1799 0022 FB7B     	 ldrb r3,[r7,#15]
 1800 0024 002B     	 cmp r3,#0
 1801 0026 14D1     	 bne .L97
1067:../Dave/Generated/FATFS/ff_Src/ff.c **** 			if (disk_read(fs->pdrv, fs->win, sector, 1) != RES_OK) {
 1802              	 .loc 1 1067 0
 1803 0028 7B68     	 ldr r3,[r7,#4]
 1804 002a 5A78     	 ldrb r2,[r3,#1]
 1805 002c 7B68     	 ldr r3,[r7,#4]
 1806 002e 3833     	 adds r3,r3,#56
 1807 0030 1046     	 mov r0,r2
 1808 0032 1946     	 mov r1,r3
 1809 0034 3A68     	 ldr r2,[r7]
 1810 0036 0123     	 movs r3,#1
 1811 0038 FFF7FEFF 	 bl disk_read
 1812 003c 0346     	 mov r3,r0
 1813 003e 002B     	 cmp r3,#0
 1814 0040 04D0     	 beq .L98
1068:../Dave/Generated/FATFS/ff_Src/ff.c **** 				sector = 0xFFFFFFFF;	/* Invalidate window if read data is not valid */
 1815              	 .loc 1 1068 0
 1816 0042 4FF0FF33 	 mov r3,#-1
 1817 0046 3B60     	 str r3,[r7]
1069:../Dave/Generated/FATFS/ff_Src/ff.c **** 				res = FR_DISK_ERR;
 1818              	 .loc 1 1069 0
 1819 0048 0123     	 movs r3,#1
 1820 004a FB73     	 strb r3,[r7,#15]
 1821              	.L98:
1070:../Dave/Generated/FATFS/ff_Src/ff.c **** 			}
1071:../Dave/Generated/FATFS/ff_Src/ff.c **** 			fs->winsect = sector;
 1822              	 .loc 1 1071 0
 1823 004c 7B68     	 ldr r3,[r7,#4]
 1824 004e 3A68     	 ldr r2,[r7]
 1825 0050 5A63     	 str r2,[r3,#52]
 1826              	.L97:
1072:../Dave/Generated/FATFS/ff_Src/ff.c **** 		}
1073:../Dave/Generated/FATFS/ff_Src/ff.c **** 	}
1074:../Dave/Generated/FATFS/ff_Src/ff.c **** 	return res;
 1827              	 .loc 1 1074 0
 1828 0052 FB7B     	 ldrb r3,[r7,#15]
1075:../Dave/Generated/FATFS/ff_Src/ff.c **** }
 1829              	 .loc 1 1075 0
 1830 0054 1846     	 mov r0,r3
 1831 0056 1037     	 adds r7,r7,#16
 1832              	.LCFI108:
 1833              	 .cfi_def_cfa_offset 8
 1834 0058 BD46     	 mov sp,r7
 1835              	.LCFI109:
 1836              	 .cfi_def_cfa_register 13
 1837              	 
 1838 005a 80BD     	 pop {r7,pc}
 1839              	 .cfi_endproc
 1840              	.LFE18:
 1842              	 .section .text.sync_fs,"ax",%progbits
 1843              	 .align 2
 1844              	 .thumb
 1845              	 .thumb_func
 1847              	sync_fs:
 1848              	.LFB19:
1076:../Dave/Generated/FATFS/ff_Src/ff.c **** 
1077:../Dave/Generated/FATFS/ff_Src/ff.c **** 
1078:../Dave/Generated/FATFS/ff_Src/ff.c **** 
1079:../Dave/Generated/FATFS/ff_Src/ff.c **** 
1080:../Dave/Generated/FATFS/ff_Src/ff.c **** #if !FF_FS_READONLY
1081:../Dave/Generated/FATFS/ff_Src/ff.c **** /*-----------------------------------------------------------------------*/
1082:../Dave/Generated/FATFS/ff_Src/ff.c **** /* Synchronize filesystem and data on the storage                        */
1083:../Dave/Generated/FATFS/ff_Src/ff.c **** /*-----------------------------------------------------------------------*/
1084:../Dave/Generated/FATFS/ff_Src/ff.c **** 
1085:../Dave/Generated/FATFS/ff_Src/ff.c **** static FRESULT sync_fs (	/* Returns FR_OK or FR_DISK_ERR */
1086:../Dave/Generated/FATFS/ff_Src/ff.c **** 	FATFS* fs		/* Filesystem object */
1087:../Dave/Generated/FATFS/ff_Src/ff.c **** )
1088:../Dave/Generated/FATFS/ff_Src/ff.c **** {
 1849              	 .loc 1 1088 0
 1850              	 .cfi_startproc
 1851              	 
 1852              	 
 1853 0000 80B5     	 push {r7,lr}
 1854              	.LCFI110:
 1855              	 .cfi_def_cfa_offset 8
 1856              	 .cfi_offset 7,-8
 1857              	 .cfi_offset 14,-4
 1858 0002 84B0     	 sub sp,sp,#16
 1859              	.LCFI111:
 1860              	 .cfi_def_cfa_offset 24
 1861 0004 00AF     	 add r7,sp,#0
 1862              	.LCFI112:
 1863              	 .cfi_def_cfa_register 7
 1864 0006 7860     	 str r0,[r7,#4]
1089:../Dave/Generated/FATFS/ff_Src/ff.c **** 	FRESULT res;
1090:../Dave/Generated/FATFS/ff_Src/ff.c **** 
1091:../Dave/Generated/FATFS/ff_Src/ff.c **** 
1092:../Dave/Generated/FATFS/ff_Src/ff.c **** 	res = sync_window(fs);
 1865              	 .loc 1 1092 0
 1866 0008 7868     	 ldr r0,[r7,#4]
 1867 000a FFF7FEFF 	 bl sync_window
 1868 000e 0346     	 mov r3,r0
 1869 0010 FB73     	 strb r3,[r7,#15]
1093:../Dave/Generated/FATFS/ff_Src/ff.c **** 	if (res == FR_OK) {
 1870              	 .loc 1 1093 0
 1871 0012 FB7B     	 ldrb r3,[r7,#15]
 1872 0014 002B     	 cmp r3,#0
 1873 0016 57D1     	 bne .L101
1094:../Dave/Generated/FATFS/ff_Src/ff.c **** 		if (fs->fs_type == FS_FAT32 && fs->fsi_flag == 1) {	/* FAT32: Update FSInfo sector if needed */
 1874              	 .loc 1 1094 0
 1875 0018 7B68     	 ldr r3,[r7,#4]
 1876 001a 1B78     	 ldrb r3,[r3]
 1877 001c 032B     	 cmp r3,#3
 1878 001e 47D1     	 bne .L102
 1879              	 .loc 1 1094 0 is_stmt 0 discriminator 1
 1880 0020 7B68     	 ldr r3,[r7,#4]
 1881 0022 1B79     	 ldrb r3,[r3,#4]
 1882 0024 012B     	 cmp r3,#1
 1883 0026 43D1     	 bne .L102
1095:../Dave/Generated/FATFS/ff_Src/ff.c **** 			/* Create FSInfo structure */
1096:../Dave/Generated/FATFS/ff_Src/ff.c **** 			mem_set(fs->win, 0, SS(fs));
 1884              	 .loc 1 1096 0 is_stmt 1
 1885 0028 7B68     	 ldr r3,[r7,#4]
 1886 002a 3833     	 adds r3,r3,#56
 1887 002c 1846     	 mov r0,r3
 1888 002e 0021     	 movs r1,#0
 1889 0030 4FF40072 	 mov r2,#512
 1890 0034 FFF7FEFF 	 bl mem_set
1097:../Dave/Generated/FATFS/ff_Src/ff.c **** 			st_word(fs->win + BS_55AA, 0xAA55);
 1891              	 .loc 1 1097 0
 1892 0038 7B68     	 ldr r3,[r7,#4]
 1893 003a 03F23623 	 addw r3,r3,#566
 1894 003e 1846     	 mov r0,r3
 1895 0040 4AF65521 	 movw r1,#43605
 1896 0044 FFF7FEFF 	 bl st_word
1098:../Dave/Generated/FATFS/ff_Src/ff.c **** 			st_dword(fs->win + FSI_LeadSig, 0x41615252);
 1897              	 .loc 1 1098 0
 1898 0048 7B68     	 ldr r3,[r7,#4]
 1899 004a 3833     	 adds r3,r3,#56
 1900 004c 1846     	 mov r0,r3
 1901 004e 2149     	 ldr r1,.L104
 1902 0050 FFF7FEFF 	 bl st_dword
1099:../Dave/Generated/FATFS/ff_Src/ff.c **** 			st_dword(fs->win + FSI_StrucSig, 0x61417272);
 1903              	 .loc 1 1099 0
 1904 0054 7B68     	 ldr r3,[r7,#4]
 1905 0056 03F50773 	 add r3,r3,#540
 1906 005a 1846     	 mov r0,r3
 1907 005c 1E49     	 ldr r1,.L104+4
 1908 005e FFF7FEFF 	 bl st_dword
1100:../Dave/Generated/FATFS/ff_Src/ff.c **** 			st_dword(fs->win + FSI_Free_Count, fs->free_clst);
 1909              	 .loc 1 1100 0
 1910 0062 7B68     	 ldr r3,[r7,#4]
 1911 0064 03F50872 	 add r2,r3,#544
 1912 0068 7B68     	 ldr r3,[r7,#4]
 1913 006a 5B69     	 ldr r3,[r3,#20]
 1914 006c 1046     	 mov r0,r2
 1915 006e 1946     	 mov r1,r3
 1916 0070 FFF7FEFF 	 bl st_dword
1101:../Dave/Generated/FATFS/ff_Src/ff.c **** 			st_dword(fs->win + FSI_Nxt_Free, fs->last_clst);
 1917              	 .loc 1 1101 0
 1918 0074 7B68     	 ldr r3,[r7,#4]
 1919 0076 03F50972 	 add r2,r3,#548
 1920 007a 7B68     	 ldr r3,[r7,#4]
 1921 007c 1B69     	 ldr r3,[r3,#16]
 1922 007e 1046     	 mov r0,r2
 1923 0080 1946     	 mov r1,r3
 1924 0082 FFF7FEFF 	 bl st_dword
1102:../Dave/Generated/FATFS/ff_Src/ff.c **** 			/* Write it into the FSInfo sector */
1103:../Dave/Generated/FATFS/ff_Src/ff.c **** 			fs->winsect = fs->volbase + 1;
 1925              	 .loc 1 1103 0
 1926 0086 7B68     	 ldr r3,[r7,#4]
 1927 0088 5B6A     	 ldr r3,[r3,#36]
 1928 008a 5A1C     	 adds r2,r3,#1
 1929 008c 7B68     	 ldr r3,[r7,#4]
 1930 008e 5A63     	 str r2,[r3,#52]
1104:../Dave/Generated/FATFS/ff_Src/ff.c **** 			disk_write(fs->pdrv, fs->win, fs->winsect, 1);
 1931              	 .loc 1 1104 0
 1932 0090 7B68     	 ldr r3,[r7,#4]
 1933 0092 5978     	 ldrb r1,[r3,#1]
 1934 0094 7B68     	 ldr r3,[r7,#4]
 1935 0096 03F13802 	 add r2,r3,#56
 1936 009a 7B68     	 ldr r3,[r7,#4]
 1937 009c 5B6B     	 ldr r3,[r3,#52]
 1938 009e 0846     	 mov r0,r1
 1939 00a0 1146     	 mov r1,r2
 1940 00a2 1A46     	 mov r2,r3
 1941 00a4 0123     	 movs r3,#1
 1942 00a6 FFF7FEFF 	 bl disk_write
1105:../Dave/Generated/FATFS/ff_Src/ff.c **** 			fs->fsi_flag = 0;
 1943              	 .loc 1 1105 0
 1944 00aa 7B68     	 ldr r3,[r7,#4]
 1945 00ac 0022     	 movs r2,#0
 1946 00ae 1A71     	 strb r2,[r3,#4]
 1947              	.L102:
1106:../Dave/Generated/FATFS/ff_Src/ff.c **** 		}
1107:../Dave/Generated/FATFS/ff_Src/ff.c **** 		/* Make sure that no pending write process in the lower layer */
1108:../Dave/Generated/FATFS/ff_Src/ff.c **** 		if (disk_ioctl(fs->pdrv, CTRL_SYNC, 0) != RES_OK) res = FR_DISK_ERR;
 1948              	 .loc 1 1108 0
 1949 00b0 7B68     	 ldr r3,[r7,#4]
 1950 00b2 5B78     	 ldrb r3,[r3,#1]
 1951 00b4 1846     	 mov r0,r3
 1952 00b6 0021     	 movs r1,#0
 1953 00b8 0022     	 movs r2,#0
 1954 00ba FFF7FEFF 	 bl disk_ioctl
 1955 00be 0346     	 mov r3,r0
 1956 00c0 002B     	 cmp r3,#0
 1957 00c2 01D0     	 beq .L101
 1958              	 .loc 1 1108 0 is_stmt 0 discriminator 1
 1959 00c4 0123     	 movs r3,#1
 1960 00c6 FB73     	 strb r3,[r7,#15]
 1961              	.L101:
1109:../Dave/Generated/FATFS/ff_Src/ff.c **** 	}
1110:../Dave/Generated/FATFS/ff_Src/ff.c **** 
1111:../Dave/Generated/FATFS/ff_Src/ff.c **** 	return res;
 1962              	 .loc 1 1111 0 is_stmt 1
 1963 00c8 FB7B     	 ldrb r3,[r7,#15]
1112:../Dave/Generated/FATFS/ff_Src/ff.c **** }
 1964              	 .loc 1 1112 0
 1965 00ca 1846     	 mov r0,r3
 1966 00cc 1037     	 adds r7,r7,#16
 1967              	.LCFI113:
 1968              	 .cfi_def_cfa_offset 8
 1969 00ce BD46     	 mov sp,r7
 1970              	.LCFI114:
 1971              	 .cfi_def_cfa_register 13
 1972              	 
 1973 00d0 80BD     	 pop {r7,pc}
 1974              	.L105:
 1975 00d2 00BF     	 .align 2
 1976              	.L104:
 1977 00d4 52526141 	 .word 1096897106
 1978 00d8 72724161 	 .word 1631679090
 1979              	 .cfi_endproc
 1980              	.LFE19:
 1982              	 .section .text.clst2sect,"ax",%progbits
 1983              	 .align 2
 1984              	 .thumb
 1985              	 .thumb_func
 1987              	clst2sect:
 1988              	.LFB20:
1113:../Dave/Generated/FATFS/ff_Src/ff.c **** 
1114:../Dave/Generated/FATFS/ff_Src/ff.c **** #endif
1115:../Dave/Generated/FATFS/ff_Src/ff.c **** 
1116:../Dave/Generated/FATFS/ff_Src/ff.c **** 
1117:../Dave/Generated/FATFS/ff_Src/ff.c **** 
1118:../Dave/Generated/FATFS/ff_Src/ff.c **** /*-----------------------------------------------------------------------*/
1119:../Dave/Generated/FATFS/ff_Src/ff.c **** /* Get physical sector number from cluster number                        */
1120:../Dave/Generated/FATFS/ff_Src/ff.c **** /*-----------------------------------------------------------------------*/
1121:../Dave/Generated/FATFS/ff_Src/ff.c **** 
1122:../Dave/Generated/FATFS/ff_Src/ff.c **** static DWORD clst2sect (	/* !=0:Sector number, 0:Failed (invalid cluster#) */
1123:../Dave/Generated/FATFS/ff_Src/ff.c **** 	FATFS* fs,		/* Filesystem object */
1124:../Dave/Generated/FATFS/ff_Src/ff.c **** 	DWORD clst		/* Cluster# to be converted */
1125:../Dave/Generated/FATFS/ff_Src/ff.c **** )
1126:../Dave/Generated/FATFS/ff_Src/ff.c **** {
 1989              	 .loc 1 1126 0
 1990              	 .cfi_startproc
 1991              	 
 1992              	 
 1993              	 
 1994 0000 80B4     	 push {r7}
 1995              	.LCFI115:
 1996              	 .cfi_def_cfa_offset 4
 1997              	 .cfi_offset 7,-4
 1998 0002 83B0     	 sub sp,sp,#12
 1999              	.LCFI116:
 2000              	 .cfi_def_cfa_offset 16
 2001 0004 00AF     	 add r7,sp,#0
 2002              	.LCFI117:
 2003              	 .cfi_def_cfa_register 7
 2004 0006 7860     	 str r0,[r7,#4]
 2005 0008 3960     	 str r1,[r7]
1127:../Dave/Generated/FATFS/ff_Src/ff.c **** 	clst -= 2;		/* Cluster number is origin from 2 */
 2006              	 .loc 1 1127 0
 2007 000a 3B68     	 ldr r3,[r7]
 2008 000c 023B     	 subs r3,r3,#2
 2009 000e 3B60     	 str r3,[r7]
1128:../Dave/Generated/FATFS/ff_Src/ff.c **** 	if (clst >= fs->n_fatent - 2) return 0;		/* Is it invalid cluster number? */
 2010              	 .loc 1 1128 0
 2011 0010 7B68     	 ldr r3,[r7,#4]
 2012 0012 DB69     	 ldr r3,[r3,#28]
 2013 0014 9A1E     	 subs r2,r3,#2
 2014 0016 3B68     	 ldr r3,[r7]
 2015 0018 9A42     	 cmp r2,r3
 2016 001a 01D8     	 bhi .L107
 2017              	 .loc 1 1128 0 is_stmt 0 discriminator 1
 2018 001c 0023     	 movs r3,#0
 2019 001e 08E0     	 b .L108
 2020              	.L107:
1129:../Dave/Generated/FATFS/ff_Src/ff.c **** 	return fs->database + fs->csize * clst;		/* Start sector number of the cluster */
 2021              	 .loc 1 1129 0 is_stmt 1
 2022 0020 7B68     	 ldr r3,[r7,#4]
 2023 0022 1A6B     	 ldr r2,[r3,#48]
 2024 0024 7B68     	 ldr r3,[r7,#4]
 2025 0026 5B89     	 ldrh r3,[r3,#10]
 2026 0028 1946     	 mov r1,r3
 2027 002a 3B68     	 ldr r3,[r7]
 2028 002c 03FB01F3 	 mul r3,r3,r1
 2029 0030 1344     	 add r3,r3,r2
 2030              	.L108:
1130:../Dave/Generated/FATFS/ff_Src/ff.c **** }
 2031              	 .loc 1 1130 0
 2032 0032 1846     	 mov r0,r3
 2033 0034 0C37     	 adds r7,r7,#12
 2034              	.LCFI118:
 2035              	 .cfi_def_cfa_offset 4
 2036 0036 BD46     	 mov sp,r7
 2037              	.LCFI119:
 2038              	 .cfi_def_cfa_register 13
 2039              	 
 2040 0038 5DF8047B 	 ldr r7,[sp],#4
 2041              	.LCFI120:
 2042              	 .cfi_restore 7
 2043              	 .cfi_def_cfa_offset 0
 2044 003c 7047     	 bx lr
 2045              	 .cfi_endproc
 2046              	.LFE20:
 2048 003e 00BF     	 .section .text.get_fat,"ax",%progbits
 2049              	 .align 2
 2050              	 .thumb
 2051              	 .thumb_func
 2053              	get_fat:
 2054              	.LFB21:
1131:../Dave/Generated/FATFS/ff_Src/ff.c **** 
1132:../Dave/Generated/FATFS/ff_Src/ff.c **** 
1133:../Dave/Generated/FATFS/ff_Src/ff.c **** 
1134:../Dave/Generated/FATFS/ff_Src/ff.c **** 
1135:../Dave/Generated/FATFS/ff_Src/ff.c **** /*-----------------------------------------------------------------------*/
1136:../Dave/Generated/FATFS/ff_Src/ff.c **** /* FAT access - Read value of a FAT entry                                */
1137:../Dave/Generated/FATFS/ff_Src/ff.c **** /*-----------------------------------------------------------------------*/
1138:../Dave/Generated/FATFS/ff_Src/ff.c **** 
1139:../Dave/Generated/FATFS/ff_Src/ff.c **** static DWORD get_fat (		/* 0xFFFFFFFF:Disk error, 1:Internal error, 2..0x7FFFFFFF:Cluster status */
1140:../Dave/Generated/FATFS/ff_Src/ff.c **** 	FFOBJID* obj,	/* Corresponding object */
1141:../Dave/Generated/FATFS/ff_Src/ff.c **** 	DWORD clst		/* Cluster number to get the value */
1142:../Dave/Generated/FATFS/ff_Src/ff.c **** )
1143:../Dave/Generated/FATFS/ff_Src/ff.c **** {
 2055              	 .loc 1 1143 0
 2056              	 .cfi_startproc
 2057              	 
 2058              	 
 2059 0000 80B5     	 push {r7,lr}
 2060              	.LCFI121:
 2061              	 .cfi_def_cfa_offset 8
 2062              	 .cfi_offset 7,-8
 2063              	 .cfi_offset 14,-4
 2064 0002 86B0     	 sub sp,sp,#24
 2065              	.LCFI122:
 2066              	 .cfi_def_cfa_offset 32
 2067 0004 00AF     	 add r7,sp,#0
 2068              	.LCFI123:
 2069              	 .cfi_def_cfa_register 7
 2070 0006 7860     	 str r0,[r7,#4]
 2071 0008 3960     	 str r1,[r7]
1144:../Dave/Generated/FATFS/ff_Src/ff.c **** 	UINT wc, bc;
1145:../Dave/Generated/FATFS/ff_Src/ff.c **** 	DWORD val;
1146:../Dave/Generated/FATFS/ff_Src/ff.c **** 	FATFS *fs = obj->fs;
 2072              	 .loc 1 1146 0
 2073 000a 7B68     	 ldr r3,[r7,#4]
 2074 000c 1B68     	 ldr r3,[r3]
 2075 000e 3B61     	 str r3,[r7,#16]
1147:../Dave/Generated/FATFS/ff_Src/ff.c **** 
1148:../Dave/Generated/FATFS/ff_Src/ff.c **** 
1149:../Dave/Generated/FATFS/ff_Src/ff.c **** 	if (clst < 2 || clst >= fs->n_fatent) {	/* Check if in valid range */
 2076              	 .loc 1 1149 0
 2077 0010 3B68     	 ldr r3,[r7]
 2078 0012 012B     	 cmp r3,#1
 2079 0014 04D9     	 bls .L110
 2080              	 .loc 1 1149 0 is_stmt 0 discriminator 1
 2081 0016 3B69     	 ldr r3,[r7,#16]
 2082 0018 DA69     	 ldr r2,[r3,#28]
 2083 001a 3B68     	 ldr r3,[r7]
 2084 001c 9A42     	 cmp r2,r3
 2085 001e 02D8     	 bhi .L111
 2086              	.L110:
1150:../Dave/Generated/FATFS/ff_Src/ff.c **** 		val = 1;	/* Internal error */
 2087              	 .loc 1 1150 0 is_stmt 1
 2088 0020 0123     	 movs r3,#1
 2089 0022 7B61     	 str r3,[r7,#20]
 2090 0024 86E0     	 b .L112
 2091              	.L111:
1151:../Dave/Generated/FATFS/ff_Src/ff.c **** 
1152:../Dave/Generated/FATFS/ff_Src/ff.c **** 	} else {
1153:../Dave/Generated/FATFS/ff_Src/ff.c **** 		val = 0xFFFFFFFF;	/* Default value falls on disk error */
 2092              	 .loc 1 1153 0
 2093 0026 4FF0FF33 	 mov r3,#-1
 2094 002a 7B61     	 str r3,[r7,#20]
1154:../Dave/Generated/FATFS/ff_Src/ff.c **** 
1155:../Dave/Generated/FATFS/ff_Src/ff.c **** 		switch (fs->fs_type) {
 2095              	 .loc 1 1155 0
 2096 002c 3B69     	 ldr r3,[r7,#16]
 2097 002e 1B78     	 ldrb r3,[r3]
 2098 0030 022B     	 cmp r3,#2
 2099 0032 47D0     	 beq .L114
 2100 0034 032B     	 cmp r3,#3
 2101 0036 5FD0     	 beq .L115
 2102 0038 012B     	 cmp r3,#1
 2103 003a 79D1     	 bne .L124
1156:../Dave/Generated/FATFS/ff_Src/ff.c **** 		case FS_FAT12 :
1157:../Dave/Generated/FATFS/ff_Src/ff.c **** 			bc = (UINT)clst; bc += bc / 2;
 2104              	 .loc 1 1157 0
 2105 003c 3B68     	 ldr r3,[r7]
 2106 003e FB60     	 str r3,[r7,#12]
 2107 0040 FB68     	 ldr r3,[r7,#12]
 2108 0042 5B08     	 lsrs r3,r3,#1
 2109 0044 FA68     	 ldr r2,[r7,#12]
 2110 0046 1344     	 add r3,r3,r2
 2111 0048 FB60     	 str r3,[r7,#12]
1158:../Dave/Generated/FATFS/ff_Src/ff.c **** 			if (move_window(fs, fs->fatbase + (bc / SS(fs))) != FR_OK) break;
 2112              	 .loc 1 1158 0
 2113 004a 3B69     	 ldr r3,[r7,#16]
 2114 004c 9A6A     	 ldr r2,[r3,#40]
 2115 004e FB68     	 ldr r3,[r7,#12]
 2116 0050 5B0A     	 lsrs r3,r3,#9
 2117 0052 1344     	 add r3,r3,r2
 2118 0054 3869     	 ldr r0,[r7,#16]
 2119 0056 1946     	 mov r1,r3
 2120 0058 FFF7FEFF 	 bl move_window
 2121 005c 0346     	 mov r3,r0
 2122 005e 002B     	 cmp r3,#0
 2123 0060 00D0     	 beq .L117
 2124 0062 67E0     	 b .L112
 2125              	.L117:
1159:../Dave/Generated/FATFS/ff_Src/ff.c **** 			wc = fs->win[bc++ % SS(fs)];		/* Get 1st byte of the entry */
 2126              	 .loc 1 1159 0
 2127 0064 FB68     	 ldr r3,[r7,#12]
 2128 0066 5A1C     	 adds r2,r3,#1
 2129 0068 FA60     	 str r2,[r7,#12]
 2130 006a C3F30803 	 ubfx r3,r3,#0,#9
 2131 006e 3A69     	 ldr r2,[r7,#16]
 2132 0070 1344     	 add r3,r3,r2
 2133 0072 93F83830 	 ldrb r3,[r3,#56]
 2134 0076 BB60     	 str r3,[r7,#8]
1160:../Dave/Generated/FATFS/ff_Src/ff.c **** 			if (move_window(fs, fs->fatbase + (bc / SS(fs))) != FR_OK) break;
 2135              	 .loc 1 1160 0
 2136 0078 3B69     	 ldr r3,[r7,#16]
 2137 007a 9A6A     	 ldr r2,[r3,#40]
 2138 007c FB68     	 ldr r3,[r7,#12]
 2139 007e 5B0A     	 lsrs r3,r3,#9
 2140 0080 1344     	 add r3,r3,r2
 2141 0082 3869     	 ldr r0,[r7,#16]
 2142 0084 1946     	 mov r1,r3
 2143 0086 FFF7FEFF 	 bl move_window
 2144 008a 0346     	 mov r3,r0
 2145 008c 002B     	 cmp r3,#0
 2146 008e 00D0     	 beq .L118
 2147 0090 50E0     	 b .L112
 2148              	.L118:
1161:../Dave/Generated/FATFS/ff_Src/ff.c **** 			wc |= fs->win[bc % SS(fs)] << 8;	/* Merge 2nd byte of the entry */
 2149              	 .loc 1 1161 0
 2150 0092 FB68     	 ldr r3,[r7,#12]
 2151 0094 C3F30803 	 ubfx r3,r3,#0,#9
 2152 0098 3A69     	 ldr r2,[r7,#16]
 2153 009a 1344     	 add r3,r3,r2
 2154 009c 93F83830 	 ldrb r3,[r3,#56]
 2155 00a0 1B02     	 lsls r3,r3,#8
 2156 00a2 1A46     	 mov r2,r3
 2157 00a4 BB68     	 ldr r3,[r7,#8]
 2158 00a6 1343     	 orrs r3,r3,r2
 2159 00a8 BB60     	 str r3,[r7,#8]
1162:../Dave/Generated/FATFS/ff_Src/ff.c **** 			val = (clst & 1) ? (wc >> 4) : (wc & 0xFFF);	/* Adjust bit position */
 2160              	 .loc 1 1162 0
 2161 00aa 3B68     	 ldr r3,[r7]
 2162 00ac 03F00103 	 and r3,r3,#1
 2163 00b0 002B     	 cmp r3,#0
 2164 00b2 02D0     	 beq .L119
 2165              	 .loc 1 1162 0 is_stmt 0 discriminator 1
 2166 00b4 BB68     	 ldr r3,[r7,#8]
 2167 00b6 1B09     	 lsrs r3,r3,#4
 2168 00b8 02E0     	 b .L120
 2169              	.L119:
 2170              	 .loc 1 1162 0 discriminator 2
 2171 00ba BB68     	 ldr r3,[r7,#8]
 2172 00bc C3F30B03 	 ubfx r3,r3,#0,#12
 2173              	.L120:
 2174              	 .loc 1 1162 0 discriminator 4
 2175 00c0 7B61     	 str r3,[r7,#20]
1163:../Dave/Generated/FATFS/ff_Src/ff.c **** 			break;
 2176              	 .loc 1 1163 0 is_stmt 1 discriminator 4
 2177 00c2 37E0     	 b .L112
 2178              	.L114:
1164:../Dave/Generated/FATFS/ff_Src/ff.c **** 
1165:../Dave/Generated/FATFS/ff_Src/ff.c **** 		case FS_FAT16 :
1166:../Dave/Generated/FATFS/ff_Src/ff.c **** 			if (move_window(fs, fs->fatbase + (clst / (SS(fs) / 2))) != FR_OK) break;
 2179              	 .loc 1 1166 0
 2180 00c4 3B69     	 ldr r3,[r7,#16]
 2181 00c6 9A6A     	 ldr r2,[r3,#40]
 2182 00c8 3B68     	 ldr r3,[r7]
 2183 00ca 1B0A     	 lsrs r3,r3,#8
 2184 00cc 1344     	 add r3,r3,r2
 2185 00ce 3869     	 ldr r0,[r7,#16]
 2186 00d0 1946     	 mov r1,r3
 2187 00d2 FFF7FEFF 	 bl move_window
 2188 00d6 0346     	 mov r3,r0
 2189 00d8 002B     	 cmp r3,#0
 2190 00da 00D0     	 beq .L121
 2191 00dc 2AE0     	 b .L112
 2192              	.L121:
1167:../Dave/Generated/FATFS/ff_Src/ff.c **** 			val = ld_word(fs->win + clst * 2 % SS(fs));		/* Simple WORD array */
 2193              	 .loc 1 1167 0
 2194 00de 3B68     	 ldr r3,[r7]
 2195 00e0 5B00     	 lsls r3,r3,#1
 2196 00e2 03F4FF73 	 and r3,r3,#510
 2197 00e6 3833     	 adds r3,r3,#56
 2198 00e8 3A69     	 ldr r2,[r7,#16]
 2199 00ea 1344     	 add r3,r3,r2
 2200 00ec 1846     	 mov r0,r3
 2201 00ee FFF7FEFF 	 bl ld_word
 2202 00f2 0346     	 mov r3,r0
 2203 00f4 7B61     	 str r3,[r7,#20]
1168:../Dave/Generated/FATFS/ff_Src/ff.c **** 			break;
 2204              	 .loc 1 1168 0
 2205 00f6 1DE0     	 b .L112
 2206              	.L115:
1169:../Dave/Generated/FATFS/ff_Src/ff.c **** 
1170:../Dave/Generated/FATFS/ff_Src/ff.c **** 		case FS_FAT32 :
1171:../Dave/Generated/FATFS/ff_Src/ff.c **** 			if (move_window(fs, fs->fatbase + (clst / (SS(fs) / 4))) != FR_OK) break;
 2207              	 .loc 1 1171 0
 2208 00f8 3B69     	 ldr r3,[r7,#16]
 2209 00fa 9A6A     	 ldr r2,[r3,#40]
 2210 00fc 3B68     	 ldr r3,[r7]
 2211 00fe DB09     	 lsrs r3,r3,#7
 2212 0100 1344     	 add r3,r3,r2
 2213 0102 3869     	 ldr r0,[r7,#16]
 2214 0104 1946     	 mov r1,r3
 2215 0106 FFF7FEFF 	 bl move_window
 2216 010a 0346     	 mov r3,r0
 2217 010c 002B     	 cmp r3,#0
 2218 010e 00D0     	 beq .L122
 2219 0110 10E0     	 b .L112
 2220              	.L122:
1172:../Dave/Generated/FATFS/ff_Src/ff.c **** 			val = ld_dword(fs->win + clst * 4 % SS(fs)) & 0x0FFFFFFF;	/* Simple DWORD array but mask out upp
 2221              	 .loc 1 1172 0
 2222 0112 3B68     	 ldr r3,[r7]
 2223 0114 9B00     	 lsls r3,r3,#2
 2224 0116 03F4FE73 	 and r3,r3,#508
 2225 011a 3833     	 adds r3,r3,#56
 2226 011c 3A69     	 ldr r2,[r7,#16]
 2227 011e 1344     	 add r3,r3,r2
 2228 0120 1846     	 mov r0,r3
 2229 0122 FFF7FEFF 	 bl ld_dword
 2230 0126 0346     	 mov r3,r0
 2231 0128 23F07043 	 bic r3,r3,#-268435456
 2232 012c 7B61     	 str r3,[r7,#20]
1173:../Dave/Generated/FATFS/ff_Src/ff.c **** 			break;
 2233              	 .loc 1 1173 0
 2234 012e 01E0     	 b .L112
 2235              	.L124:
1174:../Dave/Generated/FATFS/ff_Src/ff.c **** #if FF_FS_EXFAT
1175:../Dave/Generated/FATFS/ff_Src/ff.c **** 		case FS_EXFAT :
1176:../Dave/Generated/FATFS/ff_Src/ff.c **** 			if ((obj->objsize != 0 && obj->sclust != 0) || obj->stat == 0) {	/* Object except root dir must 
1177:../Dave/Generated/FATFS/ff_Src/ff.c **** 				DWORD cofs = clst - obj->sclust;	/* Offset from start cluster */
1178:../Dave/Generated/FATFS/ff_Src/ff.c **** 				DWORD clen = (DWORD)((obj->objsize - 1) / SS(fs)) / fs->csize;	/* Number of clusters - 1 */
1179:../Dave/Generated/FATFS/ff_Src/ff.c **** 
1180:../Dave/Generated/FATFS/ff_Src/ff.c **** 				if (obj->stat == 2 && cofs <= clen) {	/* Is it a contiguous chain? */
1181:../Dave/Generated/FATFS/ff_Src/ff.c **** 					val = (cofs == clen) ? 0x7FFFFFFF : clst + 1;	/* No data on the FAT, generate the value */
1182:../Dave/Generated/FATFS/ff_Src/ff.c **** 					break;
1183:../Dave/Generated/FATFS/ff_Src/ff.c **** 				}
1184:../Dave/Generated/FATFS/ff_Src/ff.c **** 				if (obj->stat == 3 && cofs < obj->n_cont) {	/* Is it in the 1st fragment? */
1185:../Dave/Generated/FATFS/ff_Src/ff.c **** 					val = clst + 1; 	/* Generate the value */
1186:../Dave/Generated/FATFS/ff_Src/ff.c **** 					break;
1187:../Dave/Generated/FATFS/ff_Src/ff.c **** 				}
1188:../Dave/Generated/FATFS/ff_Src/ff.c **** 				if (obj->stat != 2) {	/* Get value from FAT if FAT chain is valid */
1189:../Dave/Generated/FATFS/ff_Src/ff.c **** 					if (obj->n_frag != 0) {	/* Is it on the growing edge? */
1190:../Dave/Generated/FATFS/ff_Src/ff.c **** 						val = 0x7FFFFFFF;	/* Generate EOC */
1191:../Dave/Generated/FATFS/ff_Src/ff.c **** 					} else {
1192:../Dave/Generated/FATFS/ff_Src/ff.c **** 						if (move_window(fs, fs->fatbase + (clst / (SS(fs) / 4))) != FR_OK) break;
1193:../Dave/Generated/FATFS/ff_Src/ff.c **** 						val = ld_dword(fs->win + clst * 4 % SS(fs)) & 0x7FFFFFFF;
1194:../Dave/Generated/FATFS/ff_Src/ff.c **** 					}
1195:../Dave/Generated/FATFS/ff_Src/ff.c **** 					break;
1196:../Dave/Generated/FATFS/ff_Src/ff.c **** 				}
1197:../Dave/Generated/FATFS/ff_Src/ff.c **** 			}
1198:../Dave/Generated/FATFS/ff_Src/ff.c **** 			/* go to default */
1199:../Dave/Generated/FATFS/ff_Src/ff.c **** #endif
1200:../Dave/Generated/FATFS/ff_Src/ff.c **** 		default:
1201:../Dave/Generated/FATFS/ff_Src/ff.c **** 			val = 1;	/* Internal error */
 2236              	 .loc 1 1201 0
 2237 0130 0123     	 movs r3,#1
 2238 0132 7B61     	 str r3,[r7,#20]
 2239              	.L112:
1202:../Dave/Generated/FATFS/ff_Src/ff.c **** 		}
1203:../Dave/Generated/FATFS/ff_Src/ff.c **** 	}
1204:../Dave/Generated/FATFS/ff_Src/ff.c **** 
1205:../Dave/Generated/FATFS/ff_Src/ff.c **** 	return val;
 2240              	 .loc 1 1205 0
 2241 0134 7B69     	 ldr r3,[r7,#20]
1206:../Dave/Generated/FATFS/ff_Src/ff.c **** }
 2242              	 .loc 1 1206 0
 2243 0136 1846     	 mov r0,r3
 2244 0138 1837     	 adds r7,r7,#24
 2245              	.LCFI124:
 2246              	 .cfi_def_cfa_offset 8
 2247 013a BD46     	 mov sp,r7
 2248              	.LCFI125:
 2249              	 .cfi_def_cfa_register 13
 2250              	 
 2251 013c 80BD     	 pop {r7,pc}
 2252              	 .cfi_endproc
 2253              	.LFE21:
 2255 013e 00BF     	 .section .text.put_fat,"ax",%progbits
 2256              	 .align 2
 2257              	 .thumb
 2258              	 .thumb_func
 2260              	put_fat:
 2261              	.LFB22:
1207:../Dave/Generated/FATFS/ff_Src/ff.c **** 
1208:../Dave/Generated/FATFS/ff_Src/ff.c **** 
1209:../Dave/Generated/FATFS/ff_Src/ff.c **** 
1210:../Dave/Generated/FATFS/ff_Src/ff.c **** 
1211:../Dave/Generated/FATFS/ff_Src/ff.c **** #if !FF_FS_READONLY
1212:../Dave/Generated/FATFS/ff_Src/ff.c **** /*-----------------------------------------------------------------------*/
1213:../Dave/Generated/FATFS/ff_Src/ff.c **** /* FAT access - Change value of a FAT entry                              */
1214:../Dave/Generated/FATFS/ff_Src/ff.c **** /*-----------------------------------------------------------------------*/
1215:../Dave/Generated/FATFS/ff_Src/ff.c **** 
1216:../Dave/Generated/FATFS/ff_Src/ff.c **** static FRESULT put_fat (	/* FR_OK(0):succeeded, !=0:error */
1217:../Dave/Generated/FATFS/ff_Src/ff.c **** 	FATFS* fs,		/* Corresponding filesystem object */
1218:../Dave/Generated/FATFS/ff_Src/ff.c **** 	DWORD clst,		/* FAT index number (cluster number) to be changed */
1219:../Dave/Generated/FATFS/ff_Src/ff.c **** 	DWORD val		/* New value to be set to the entry */
1220:../Dave/Generated/FATFS/ff_Src/ff.c **** )
1221:../Dave/Generated/FATFS/ff_Src/ff.c **** {
 2262              	 .loc 1 1221 0
 2263              	 .cfi_startproc
 2264              	 
 2265              	 
 2266 0000 90B5     	 push {r4,r7,lr}
 2267              	.LCFI126:
 2268              	 .cfi_def_cfa_offset 12
 2269              	 .cfi_offset 4,-12
 2270              	 .cfi_offset 7,-8
 2271              	 .cfi_offset 14,-4
 2272 0002 89B0     	 sub sp,sp,#36
 2273              	.LCFI127:
 2274              	 .cfi_def_cfa_offset 48
 2275 0004 00AF     	 add r7,sp,#0
 2276              	.LCFI128:
 2277              	 .cfi_def_cfa_register 7
 2278 0006 F860     	 str r0,[r7,#12]
 2279 0008 B960     	 str r1,[r7,#8]
 2280 000a 7A60     	 str r2,[r7,#4]
1222:../Dave/Generated/FATFS/ff_Src/ff.c **** 	UINT bc;
1223:../Dave/Generated/FATFS/ff_Src/ff.c **** 	BYTE *p;
1224:../Dave/Generated/FATFS/ff_Src/ff.c **** 	FRESULT res = FR_INT_ERR;
 2281              	 .loc 1 1224 0
 2282 000c 0223     	 movs r3,#2
 2283 000e FB77     	 strb r3,[r7,#31]
1225:../Dave/Generated/FATFS/ff_Src/ff.c **** 
1226:../Dave/Generated/FATFS/ff_Src/ff.c **** 
1227:../Dave/Generated/FATFS/ff_Src/ff.c **** 	if (clst >= 2 && clst < fs->n_fatent) {	/* Check if in valid range */
 2284              	 .loc 1 1227 0
 2285 0010 BB68     	 ldr r3,[r7,#8]
 2286 0012 012B     	 cmp r3,#1
 2287 0014 40F2CD80 	 bls .L126
 2288              	 .loc 1 1227 0 is_stmt 0 discriminator 1
 2289 0018 FB68     	 ldr r3,[r7,#12]
 2290 001a DA69     	 ldr r2,[r3,#28]
 2291 001c BB68     	 ldr r3,[r7,#8]
 2292 001e 9A42     	 cmp r2,r3
 2293 0020 40F2C780 	 bls .L126
1228:../Dave/Generated/FATFS/ff_Src/ff.c **** 		switch (fs->fs_type) {
 2294              	 .loc 1 1228 0 is_stmt 1
 2295 0024 FB68     	 ldr r3,[r7,#12]
 2296 0026 1B78     	 ldrb r3,[r3]
 2297 0028 022B     	 cmp r3,#2
 2298 002a 72D0     	 beq .L127
 2299 002c 032B     	 cmp r3,#3
 2300 002e 00F09080 	 beq .L128
 2301 0032 012B     	 cmp r3,#1
 2302 0034 40F0BD80 	 bne .L126
1229:../Dave/Generated/FATFS/ff_Src/ff.c **** 		case FS_FAT12 :
1230:../Dave/Generated/FATFS/ff_Src/ff.c **** 			bc = (UINT)clst; bc += bc / 2;	/* bc: byte offset of the entry */
 2303              	 .loc 1 1230 0
 2304 0038 BB68     	 ldr r3,[r7,#8]
 2305 003a BB61     	 str r3,[r7,#24]
 2306 003c BB69     	 ldr r3,[r7,#24]
 2307 003e 5B08     	 lsrs r3,r3,#1
 2308 0040 BA69     	 ldr r2,[r7,#24]
 2309 0042 1344     	 add r3,r3,r2
 2310 0044 BB61     	 str r3,[r7,#24]
1231:../Dave/Generated/FATFS/ff_Src/ff.c **** 			res = move_window(fs, fs->fatbase + (bc / SS(fs)));
 2311              	 .loc 1 1231 0
 2312 0046 FB68     	 ldr r3,[r7,#12]
 2313 0048 9A6A     	 ldr r2,[r3,#40]
 2314 004a BB69     	 ldr r3,[r7,#24]
 2315 004c 5B0A     	 lsrs r3,r3,#9
 2316 004e 1344     	 add r3,r3,r2
 2317 0050 F868     	 ldr r0,[r7,#12]
 2318 0052 1946     	 mov r1,r3
 2319 0054 FFF7FEFF 	 bl move_window
 2320 0058 0346     	 mov r3,r0
 2321 005a FB77     	 strb r3,[r7,#31]
1232:../Dave/Generated/FATFS/ff_Src/ff.c **** 			if (res != FR_OK) break;
 2322              	 .loc 1 1232 0
 2323 005c FB7F     	 ldrb r3,[r7,#31]
 2324 005e 002B     	 cmp r3,#0
 2325 0060 00D0     	 beq .L130
 2326 0062 A6E0     	 b .L126
 2327              	.L130:
1233:../Dave/Generated/FATFS/ff_Src/ff.c **** 			p = fs->win + bc++ % SS(fs);
 2328              	 .loc 1 1233 0
 2329 0064 BB69     	 ldr r3,[r7,#24]
 2330 0066 5A1C     	 adds r2,r3,#1
 2331 0068 BA61     	 str r2,[r7,#24]
 2332 006a C3F30803 	 ubfx r3,r3,#0,#9
 2333 006e 3833     	 adds r3,r3,#56
 2334 0070 FA68     	 ldr r2,[r7,#12]
 2335 0072 1344     	 add r3,r3,r2
 2336 0074 7B61     	 str r3,[r7,#20]
1234:../Dave/Generated/FATFS/ff_Src/ff.c **** 			*p = (clst & 1) ? ((*p & 0x0F) | ((BYTE)val << 4)) : (BYTE)val;		/* Put 1st byte */
 2337              	 .loc 1 1234 0
 2338 0076 BB68     	 ldr r3,[r7,#8]
 2339 0078 03F00103 	 and r3,r3,#1
 2340 007c 002B     	 cmp r3,#0
 2341 007e 0DD0     	 beq .L131
 2342              	 .loc 1 1234 0 is_stmt 0 discriminator 1
 2343 0080 7B69     	 ldr r3,[r7,#20]
 2344 0082 1B78     	 ldrb r3,[r3]
 2345 0084 DBB2     	 uxtb r3,r3
 2346 0086 03F00F03 	 and r3,r3,#15
 2347 008a DAB2     	 uxtb r2,r3
 2348 008c 7B68     	 ldr r3,[r7,#4]
 2349 008e DBB2     	 uxtb r3,r3
 2350 0090 1B01     	 lsls r3,r3,#4
 2351 0092 DBB2     	 uxtb r3,r3
 2352 0094 1343     	 orrs r3,r3,r2
 2353 0096 DBB2     	 uxtb r3,r3
 2354 0098 DBB2     	 uxtb r3,r3
 2355 009a 01E0     	 b .L132
 2356              	.L131:
 2357              	 .loc 1 1234 0 discriminator 2
 2358 009c 7B68     	 ldr r3,[r7,#4]
 2359 009e DBB2     	 uxtb r3,r3
 2360              	.L132:
 2361              	 .loc 1 1234 0 discriminator 4
 2362 00a0 7A69     	 ldr r2,[r7,#20]
 2363 00a2 1370     	 strb r3,[r2]
1235:../Dave/Generated/FATFS/ff_Src/ff.c **** 			fs->wflag = 1;
 2364              	 .loc 1 1235 0 is_stmt 1 discriminator 4
 2365 00a4 FB68     	 ldr r3,[r7,#12]
 2366 00a6 0122     	 movs r2,#1
 2367 00a8 DA70     	 strb r2,[r3,#3]
1236:../Dave/Generated/FATFS/ff_Src/ff.c **** 			res = move_window(fs, fs->fatbase + (bc / SS(fs)));
 2368              	 .loc 1 1236 0 discriminator 4
 2369 00aa FB68     	 ldr r3,[r7,#12]
 2370 00ac 9A6A     	 ldr r2,[r3,#40]
 2371 00ae BB69     	 ldr r3,[r7,#24]
 2372 00b0 5B0A     	 lsrs r3,r3,#9
 2373 00b2 1344     	 add r3,r3,r2
 2374 00b4 F868     	 ldr r0,[r7,#12]
 2375 00b6 1946     	 mov r1,r3
 2376 00b8 FFF7FEFF 	 bl move_window
 2377 00bc 0346     	 mov r3,r0
 2378 00be FB77     	 strb r3,[r7,#31]
1237:../Dave/Generated/FATFS/ff_Src/ff.c **** 			if (res != FR_OK) break;
 2379              	 .loc 1 1237 0 discriminator 4
 2380 00c0 FB7F     	 ldrb r3,[r7,#31]
 2381 00c2 002B     	 cmp r3,#0
 2382 00c4 00D0     	 beq .L133
 2383              	 .loc 1 1237 0 is_stmt 0
 2384 00c6 74E0     	 b .L126
 2385              	.L133:
1238:../Dave/Generated/FATFS/ff_Src/ff.c **** 			p = fs->win + bc % SS(fs);
 2386              	 .loc 1 1238 0 is_stmt 1
 2387 00c8 BB69     	 ldr r3,[r7,#24]
 2388 00ca C3F30803 	 ubfx r3,r3,#0,#9
 2389 00ce 3833     	 adds r3,r3,#56
 2390 00d0 FA68     	 ldr r2,[r7,#12]
 2391 00d2 1344     	 add r3,r3,r2
 2392 00d4 7B61     	 str r3,[r7,#20]
1239:../Dave/Generated/FATFS/ff_Src/ff.c **** 			*p = (clst & 1) ? (BYTE)(val >> 4) : ((*p & 0xF0) | ((BYTE)(val >> 8) & 0x0F));	/* Put 2nd byte 
 2393              	 .loc 1 1239 0
 2394 00d6 BB68     	 ldr r3,[r7,#8]
 2395 00d8 03F00103 	 and r3,r3,#1
 2396 00dc 002B     	 cmp r3,#0
 2397 00de 03D0     	 beq .L134
 2398              	 .loc 1 1239 0 is_stmt 0 discriminator 1
 2399 00e0 7B68     	 ldr r3,[r7,#4]
 2400 00e2 1B09     	 lsrs r3,r3,#4
 2401 00e4 DBB2     	 uxtb r3,r3
 2402 00e6 0EE0     	 b .L135
 2403              	.L134:
 2404              	 .loc 1 1239 0 discriminator 2
 2405 00e8 7B69     	 ldr r3,[r7,#20]
 2406 00ea 1B78     	 ldrb r3,[r3]
 2407 00ec DBB2     	 uxtb r3,r3
 2408 00ee 23F00F03 	 bic r3,r3,#15
 2409 00f2 DAB2     	 uxtb r2,r3
 2410 00f4 7B68     	 ldr r3,[r7,#4]
 2411 00f6 1B0A     	 lsrs r3,r3,#8
 2412 00f8 DBB2     	 uxtb r3,r3
 2413 00fa 03F00F03 	 and r3,r3,#15
 2414 00fe DBB2     	 uxtb r3,r3
 2415 0100 1343     	 orrs r3,r3,r2
 2416 0102 DBB2     	 uxtb r3,r3
 2417 0104 DBB2     	 uxtb r3,r3
 2418              	.L135:
 2419              	 .loc 1 1239 0 discriminator 4
 2420 0106 7A69     	 ldr r2,[r7,#20]
 2421 0108 1370     	 strb r3,[r2]
1240:../Dave/Generated/FATFS/ff_Src/ff.c **** 			fs->wflag = 1;
 2422              	 .loc 1 1240 0 is_stmt 1 discriminator 4
 2423 010a FB68     	 ldr r3,[r7,#12]
 2424 010c 0122     	 movs r2,#1
 2425 010e DA70     	 strb r2,[r3,#3]
1241:../Dave/Generated/FATFS/ff_Src/ff.c **** 			break;
 2426              	 .loc 1 1241 0 discriminator 4
 2427 0110 4FE0     	 b .L126
 2428              	.L127:
1242:../Dave/Generated/FATFS/ff_Src/ff.c **** 
1243:../Dave/Generated/FATFS/ff_Src/ff.c **** 		case FS_FAT16 :
1244:../Dave/Generated/FATFS/ff_Src/ff.c **** 			res = move_window(fs, fs->fatbase + (clst / (SS(fs) / 2)));
 2429              	 .loc 1 1244 0
 2430 0112 FB68     	 ldr r3,[r7,#12]
 2431 0114 9A6A     	 ldr r2,[r3,#40]
 2432 0116 BB68     	 ldr r3,[r7,#8]
 2433 0118 1B0A     	 lsrs r3,r3,#8
 2434 011a 1344     	 add r3,r3,r2
 2435 011c F868     	 ldr r0,[r7,#12]
 2436 011e 1946     	 mov r1,r3
 2437 0120 FFF7FEFF 	 bl move_window
 2438 0124 0346     	 mov r3,r0
 2439 0126 FB77     	 strb r3,[r7,#31]
1245:../Dave/Generated/FATFS/ff_Src/ff.c **** 			if (res != FR_OK) break;
 2440              	 .loc 1 1245 0
 2441 0128 FB7F     	 ldrb r3,[r7,#31]
 2442 012a 002B     	 cmp r3,#0
 2443 012c 00D0     	 beq .L136
 2444 012e 40E0     	 b .L126
 2445              	.L136:
1246:../Dave/Generated/FATFS/ff_Src/ff.c **** 			st_word(fs->win + clst * 2 % SS(fs), (WORD)val);	/* Simple WORD array */
 2446              	 .loc 1 1246 0
 2447 0130 BB68     	 ldr r3,[r7,#8]
 2448 0132 5B00     	 lsls r3,r3,#1
 2449 0134 03F4FF73 	 and r3,r3,#510
 2450 0138 3833     	 adds r3,r3,#56
 2451 013a FA68     	 ldr r2,[r7,#12]
 2452 013c 1A44     	 add r2,r2,r3
 2453 013e 7B68     	 ldr r3,[r7,#4]
 2454 0140 9BB2     	 uxth r3,r3
 2455 0142 1046     	 mov r0,r2
 2456 0144 1946     	 mov r1,r3
 2457 0146 FFF7FEFF 	 bl st_word
1247:../Dave/Generated/FATFS/ff_Src/ff.c **** 			fs->wflag = 1;
 2458              	 .loc 1 1247 0
 2459 014a FB68     	 ldr r3,[r7,#12]
 2460 014c 0122     	 movs r2,#1
 2461 014e DA70     	 strb r2,[r3,#3]
1248:../Dave/Generated/FATFS/ff_Src/ff.c **** 			break;
 2462              	 .loc 1 1248 0
 2463 0150 2FE0     	 b .L126
 2464              	.L128:
1249:../Dave/Generated/FATFS/ff_Src/ff.c **** 
1250:../Dave/Generated/FATFS/ff_Src/ff.c **** 		case FS_FAT32 :
1251:../Dave/Generated/FATFS/ff_Src/ff.c **** #if FF_FS_EXFAT
1252:../Dave/Generated/FATFS/ff_Src/ff.c **** 		case FS_EXFAT :
1253:../Dave/Generated/FATFS/ff_Src/ff.c **** #endif
1254:../Dave/Generated/FATFS/ff_Src/ff.c **** 			res = move_window(fs, fs->fatbase + (clst / (SS(fs) / 4)));
 2465              	 .loc 1 1254 0
 2466 0152 FB68     	 ldr r3,[r7,#12]
 2467 0154 9A6A     	 ldr r2,[r3,#40]
 2468 0156 BB68     	 ldr r3,[r7,#8]
 2469 0158 DB09     	 lsrs r3,r3,#7
 2470 015a 1344     	 add r3,r3,r2
 2471 015c F868     	 ldr r0,[r7,#12]
 2472 015e 1946     	 mov r1,r3
 2473 0160 FFF7FEFF 	 bl move_window
 2474 0164 0346     	 mov r3,r0
 2475 0166 FB77     	 strb r3,[r7,#31]
1255:../Dave/Generated/FATFS/ff_Src/ff.c **** 			if (res != FR_OK) break;
 2476              	 .loc 1 1255 0
 2477 0168 FB7F     	 ldrb r3,[r7,#31]
 2478 016a 002B     	 cmp r3,#0
 2479 016c 00D0     	 beq .L137
 2480 016e 20E0     	 b .L126
 2481              	.L137:
1256:../Dave/Generated/FATFS/ff_Src/ff.c **** 			if (!FF_FS_EXFAT || fs->fs_type != FS_EXFAT) {
1257:../Dave/Generated/FATFS/ff_Src/ff.c **** 				val = (val & 0x0FFFFFFF) | (ld_dword(fs->win + clst * 4 % SS(fs)) & 0xF0000000);
 2482              	 .loc 1 1257 0
 2483 0170 7B68     	 ldr r3,[r7,#4]
 2484 0172 23F07044 	 bic r4,r3,#-268435456
 2485 0176 BB68     	 ldr r3,[r7,#8]
 2486 0178 9B00     	 lsls r3,r3,#2
 2487 017a 03F4FE73 	 and r3,r3,#508
 2488 017e 3833     	 adds r3,r3,#56
 2489 0180 FA68     	 ldr r2,[r7,#12]
 2490 0182 1344     	 add r3,r3,r2
 2491 0184 1846     	 mov r0,r3
 2492 0186 FFF7FEFF 	 bl ld_dword
 2493 018a 0346     	 mov r3,r0
 2494 018c 03F07043 	 and r3,r3,#-268435456
 2495 0190 2343     	 orrs r3,r3,r4
 2496 0192 7B60     	 str r3,[r7,#4]
1258:../Dave/Generated/FATFS/ff_Src/ff.c **** 			}
1259:../Dave/Generated/FATFS/ff_Src/ff.c **** 			st_dword(fs->win + clst * 4 % SS(fs), val);
 2497              	 .loc 1 1259 0
 2498 0194 BB68     	 ldr r3,[r7,#8]
 2499 0196 9B00     	 lsls r3,r3,#2
 2500 0198 03F4FE73 	 and r3,r3,#508
 2501 019c 3833     	 adds r3,r3,#56
 2502 019e FA68     	 ldr r2,[r7,#12]
 2503 01a0 1344     	 add r3,r3,r2
 2504 01a2 1846     	 mov r0,r3
 2505 01a4 7968     	 ldr r1,[r7,#4]
 2506 01a6 FFF7FEFF 	 bl st_dword
1260:../Dave/Generated/FATFS/ff_Src/ff.c **** 			fs->wflag = 1;
 2507              	 .loc 1 1260 0
 2508 01aa FB68     	 ldr r3,[r7,#12]
 2509 01ac 0122     	 movs r2,#1
 2510 01ae DA70     	 strb r2,[r3,#3]
1261:../Dave/Generated/FATFS/ff_Src/ff.c **** 			break;
 2511              	 .loc 1 1261 0
 2512 01b0 00BF     	 nop
 2513              	.L126:
1262:../Dave/Generated/FATFS/ff_Src/ff.c **** 		}
1263:../Dave/Generated/FATFS/ff_Src/ff.c **** 	}
1264:../Dave/Generated/FATFS/ff_Src/ff.c **** 	return res;
 2514              	 .loc 1 1264 0
 2515 01b2 FB7F     	 ldrb r3,[r7,#31]
1265:../Dave/Generated/FATFS/ff_Src/ff.c **** }
 2516              	 .loc 1 1265 0
 2517 01b4 1846     	 mov r0,r3
 2518 01b6 2437     	 adds r7,r7,#36
 2519              	.LCFI129:
 2520              	 .cfi_def_cfa_offset 12
 2521 01b8 BD46     	 mov sp,r7
 2522              	.LCFI130:
 2523              	 .cfi_def_cfa_register 13
 2524              	 
 2525 01ba 90BD     	 pop {r4,r7,pc}
 2526              	 .cfi_endproc
 2527              	.LFE22:
 2529              	 .section .text.remove_chain,"ax",%progbits
 2530              	 .align 2
 2531              	 .thumb
 2532              	 .thumb_func
 2534              	remove_chain:
 2535              	.LFB23:
1266:../Dave/Generated/FATFS/ff_Src/ff.c **** 
1267:../Dave/Generated/FATFS/ff_Src/ff.c **** #endif /* !FF_FS_READONLY */
1268:../Dave/Generated/FATFS/ff_Src/ff.c **** 
1269:../Dave/Generated/FATFS/ff_Src/ff.c **** 
1270:../Dave/Generated/FATFS/ff_Src/ff.c **** 
1271:../Dave/Generated/FATFS/ff_Src/ff.c **** 
1272:../Dave/Generated/FATFS/ff_Src/ff.c **** #if FF_FS_EXFAT && !FF_FS_READONLY
1273:../Dave/Generated/FATFS/ff_Src/ff.c **** /*-----------------------------------------------------------------------*/
1274:../Dave/Generated/FATFS/ff_Src/ff.c **** /* exFAT: Accessing FAT and Allocation Bitmap                            */
1275:../Dave/Generated/FATFS/ff_Src/ff.c **** /*-----------------------------------------------------------------------*/
1276:../Dave/Generated/FATFS/ff_Src/ff.c **** 
1277:../Dave/Generated/FATFS/ff_Src/ff.c **** /*--------------------------------------*/
1278:../Dave/Generated/FATFS/ff_Src/ff.c **** /* Find a contiguous free cluster block */
1279:../Dave/Generated/FATFS/ff_Src/ff.c **** /*--------------------------------------*/
1280:../Dave/Generated/FATFS/ff_Src/ff.c **** 
1281:../Dave/Generated/FATFS/ff_Src/ff.c **** static DWORD find_bitmap (	/* 0:Not found, 2..:Cluster block found, 0xFFFFFFFF:Disk error */
1282:../Dave/Generated/FATFS/ff_Src/ff.c **** 	FATFS* fs,	/* Filesystem object */
1283:../Dave/Generated/FATFS/ff_Src/ff.c **** 	DWORD clst,	/* Cluster number to scan from */
1284:../Dave/Generated/FATFS/ff_Src/ff.c **** 	DWORD ncl	/* Number of contiguous clusters to find (1..) */
1285:../Dave/Generated/FATFS/ff_Src/ff.c **** )
1286:../Dave/Generated/FATFS/ff_Src/ff.c **** {
1287:../Dave/Generated/FATFS/ff_Src/ff.c **** 	BYTE bm, bv;
1288:../Dave/Generated/FATFS/ff_Src/ff.c **** 	UINT i;
1289:../Dave/Generated/FATFS/ff_Src/ff.c **** 	DWORD val, scl, ctr;
1290:../Dave/Generated/FATFS/ff_Src/ff.c **** 
1291:../Dave/Generated/FATFS/ff_Src/ff.c **** 
1292:../Dave/Generated/FATFS/ff_Src/ff.c **** 	clst -= 2;	/* The first bit in the bitmap corresponds to cluster #2 */
1293:../Dave/Generated/FATFS/ff_Src/ff.c **** 	if (clst >= fs->n_fatent - 2) clst = 0;
1294:../Dave/Generated/FATFS/ff_Src/ff.c **** 	scl = val = clst; ctr = 0;
1295:../Dave/Generated/FATFS/ff_Src/ff.c **** 	for (;;) {
1296:../Dave/Generated/FATFS/ff_Src/ff.c **** 		if (move_window(fs, fs->database + val / 8 / SS(fs)) != FR_OK) return 0xFFFFFFFF;	/* (assuming bi
1297:../Dave/Generated/FATFS/ff_Src/ff.c **** 		i = val / 8 % SS(fs); bm = 1 << (val % 8);
1298:../Dave/Generated/FATFS/ff_Src/ff.c **** 		do {
1299:../Dave/Generated/FATFS/ff_Src/ff.c **** 			do {
1300:../Dave/Generated/FATFS/ff_Src/ff.c **** 				bv = fs->win[i] & bm; bm <<= 1;		/* Get bit value */
1301:../Dave/Generated/FATFS/ff_Src/ff.c **** 				if (++val >= fs->n_fatent - 2) {	/* Next cluster (with wrap-around) */
1302:../Dave/Generated/FATFS/ff_Src/ff.c **** 					val = 0; bm = 0; i = SS(fs);
1303:../Dave/Generated/FATFS/ff_Src/ff.c **** 				}
1304:../Dave/Generated/FATFS/ff_Src/ff.c **** 				if (bv == 0) {	/* Is it a free cluster? */
1305:../Dave/Generated/FATFS/ff_Src/ff.c **** 					if (++ctr == ncl) return scl + 2;	/* Check if run length is sufficient for required */
1306:../Dave/Generated/FATFS/ff_Src/ff.c **** 				} else {
1307:../Dave/Generated/FATFS/ff_Src/ff.c **** 					scl = val; ctr = 0;		/* Encountered a cluster in-use, restart to scan */
1308:../Dave/Generated/FATFS/ff_Src/ff.c **** 				}
1309:../Dave/Generated/FATFS/ff_Src/ff.c **** 				if (val == clst) return 0;	/* All cluster scanned? */
1310:../Dave/Generated/FATFS/ff_Src/ff.c **** 			} while (bm != 0);
1311:../Dave/Generated/FATFS/ff_Src/ff.c **** 			bm = 1;
1312:../Dave/Generated/FATFS/ff_Src/ff.c **** 		} while (++i < SS(fs));
1313:../Dave/Generated/FATFS/ff_Src/ff.c **** 	}
1314:../Dave/Generated/FATFS/ff_Src/ff.c **** }
1315:../Dave/Generated/FATFS/ff_Src/ff.c **** 
1316:../Dave/Generated/FATFS/ff_Src/ff.c **** 
1317:../Dave/Generated/FATFS/ff_Src/ff.c **** /*----------------------------------------*/
1318:../Dave/Generated/FATFS/ff_Src/ff.c **** /* Set/Clear a block of allocation bitmap */
1319:../Dave/Generated/FATFS/ff_Src/ff.c **** /*----------------------------------------*/
1320:../Dave/Generated/FATFS/ff_Src/ff.c **** 
1321:../Dave/Generated/FATFS/ff_Src/ff.c **** static FRESULT change_bitmap (
1322:../Dave/Generated/FATFS/ff_Src/ff.c **** 	FATFS* fs,	/* Filesystem object */
1323:../Dave/Generated/FATFS/ff_Src/ff.c **** 	DWORD clst,	/* Cluster number to change from */
1324:../Dave/Generated/FATFS/ff_Src/ff.c **** 	DWORD ncl,	/* Number of clusters to be changed */
1325:../Dave/Generated/FATFS/ff_Src/ff.c **** 	int bv		/* bit value to be set (0 or 1) */
1326:../Dave/Generated/FATFS/ff_Src/ff.c **** )
1327:../Dave/Generated/FATFS/ff_Src/ff.c **** {
1328:../Dave/Generated/FATFS/ff_Src/ff.c **** 	BYTE bm;
1329:../Dave/Generated/FATFS/ff_Src/ff.c **** 	UINT i;
1330:../Dave/Generated/FATFS/ff_Src/ff.c **** 	DWORD sect;
1331:../Dave/Generated/FATFS/ff_Src/ff.c **** 
1332:../Dave/Generated/FATFS/ff_Src/ff.c **** 
1333:../Dave/Generated/FATFS/ff_Src/ff.c **** 	clst -= 2;	/* The first bit corresponds to cluster #2 */
1334:../Dave/Generated/FATFS/ff_Src/ff.c **** 	sect = fs->database + clst / 8 / SS(fs);	/* Sector address (assuming bitmap is located top of the 
1335:../Dave/Generated/FATFS/ff_Src/ff.c **** 	i = clst / 8 % SS(fs);						/* Byte offset in the sector */
1336:../Dave/Generated/FATFS/ff_Src/ff.c **** 	bm = 1 << (clst % 8);						/* Bit mask in the byte */
1337:../Dave/Generated/FATFS/ff_Src/ff.c **** 	for (;;) {
1338:../Dave/Generated/FATFS/ff_Src/ff.c **** 		if (move_window(fs, sect++) != FR_OK) return FR_DISK_ERR;
1339:../Dave/Generated/FATFS/ff_Src/ff.c **** 		do {
1340:../Dave/Generated/FATFS/ff_Src/ff.c **** 			do {
1341:../Dave/Generated/FATFS/ff_Src/ff.c **** 				if (bv == (int)((fs->win[i] & bm) != 0)) return FR_INT_ERR;	/* Is the bit expected value? */
1342:../Dave/Generated/FATFS/ff_Src/ff.c **** 				fs->win[i] ^= bm;	/* Flip the bit */
1343:../Dave/Generated/FATFS/ff_Src/ff.c **** 				fs->wflag = 1;
1344:../Dave/Generated/FATFS/ff_Src/ff.c **** 				if (--ncl == 0) return FR_OK;	/* All bits processed? */
1345:../Dave/Generated/FATFS/ff_Src/ff.c **** 			} while (bm <<= 1);		/* Next bit */
1346:../Dave/Generated/FATFS/ff_Src/ff.c **** 			bm = 1;
1347:../Dave/Generated/FATFS/ff_Src/ff.c **** 		} while (++i < SS(fs));		/* Next byte */
1348:../Dave/Generated/FATFS/ff_Src/ff.c **** 		i = 0;
1349:../Dave/Generated/FATFS/ff_Src/ff.c **** 	}
1350:../Dave/Generated/FATFS/ff_Src/ff.c **** }
1351:../Dave/Generated/FATFS/ff_Src/ff.c **** 
1352:../Dave/Generated/FATFS/ff_Src/ff.c **** 
1353:../Dave/Generated/FATFS/ff_Src/ff.c **** /*---------------------------------------------*/
1354:../Dave/Generated/FATFS/ff_Src/ff.c **** /* Fill the first fragment of the FAT chain    */
1355:../Dave/Generated/FATFS/ff_Src/ff.c **** /*---------------------------------------------*/
1356:../Dave/Generated/FATFS/ff_Src/ff.c **** 
1357:../Dave/Generated/FATFS/ff_Src/ff.c **** static FRESULT fill_first_frag (
1358:../Dave/Generated/FATFS/ff_Src/ff.c **** 	FFOBJID* obj	/* Pointer to the corresponding object */
1359:../Dave/Generated/FATFS/ff_Src/ff.c **** )
1360:../Dave/Generated/FATFS/ff_Src/ff.c **** {
1361:../Dave/Generated/FATFS/ff_Src/ff.c **** 	FRESULT res;
1362:../Dave/Generated/FATFS/ff_Src/ff.c **** 	DWORD cl, n;
1363:../Dave/Generated/FATFS/ff_Src/ff.c **** 
1364:../Dave/Generated/FATFS/ff_Src/ff.c **** 
1365:../Dave/Generated/FATFS/ff_Src/ff.c **** 	if (obj->stat == 3) {	/* Has the object been changed 'fragmented' in this session? */
1366:../Dave/Generated/FATFS/ff_Src/ff.c **** 		for (cl = obj->sclust, n = obj->n_cont; n; cl++, n--) {	/* Create cluster chain on the FAT */
1367:../Dave/Generated/FATFS/ff_Src/ff.c **** 			res = put_fat(obj->fs, cl, cl + 1);
1368:../Dave/Generated/FATFS/ff_Src/ff.c **** 			if (res != FR_OK) return res;
1369:../Dave/Generated/FATFS/ff_Src/ff.c **** 		}
1370:../Dave/Generated/FATFS/ff_Src/ff.c **** 		obj->stat = 0;	/* Change status 'FAT chain is valid' */
1371:../Dave/Generated/FATFS/ff_Src/ff.c **** 	}
1372:../Dave/Generated/FATFS/ff_Src/ff.c **** 	return FR_OK;
1373:../Dave/Generated/FATFS/ff_Src/ff.c **** }
1374:../Dave/Generated/FATFS/ff_Src/ff.c **** 
1375:../Dave/Generated/FATFS/ff_Src/ff.c **** 
1376:../Dave/Generated/FATFS/ff_Src/ff.c **** /*---------------------------------------------*/
1377:../Dave/Generated/FATFS/ff_Src/ff.c **** /* Fill the last fragment of the FAT chain     */
1378:../Dave/Generated/FATFS/ff_Src/ff.c **** /*---------------------------------------------*/
1379:../Dave/Generated/FATFS/ff_Src/ff.c **** 
1380:../Dave/Generated/FATFS/ff_Src/ff.c **** static FRESULT fill_last_frag (
1381:../Dave/Generated/FATFS/ff_Src/ff.c **** 	FFOBJID* obj,	/* Pointer to the corresponding object */
1382:../Dave/Generated/FATFS/ff_Src/ff.c **** 	DWORD lcl,		/* Last cluster of the fragment */
1383:../Dave/Generated/FATFS/ff_Src/ff.c **** 	DWORD term		/* Value to set the last FAT entry */
1384:../Dave/Generated/FATFS/ff_Src/ff.c **** )
1385:../Dave/Generated/FATFS/ff_Src/ff.c **** {
1386:../Dave/Generated/FATFS/ff_Src/ff.c **** 	FRESULT res;
1387:../Dave/Generated/FATFS/ff_Src/ff.c **** 
1388:../Dave/Generated/FATFS/ff_Src/ff.c **** 
1389:../Dave/Generated/FATFS/ff_Src/ff.c **** 	while (obj->n_frag > 0) {	/* Create the chain of last fragment */
1390:../Dave/Generated/FATFS/ff_Src/ff.c **** 		res = put_fat(obj->fs, lcl - obj->n_frag + 1, (obj->n_frag > 1) ? lcl - obj->n_frag + 2 : term);
1391:../Dave/Generated/FATFS/ff_Src/ff.c **** 		if (res != FR_OK) return res;
1392:../Dave/Generated/FATFS/ff_Src/ff.c **** 		obj->n_frag--;
1393:../Dave/Generated/FATFS/ff_Src/ff.c **** 	}
1394:../Dave/Generated/FATFS/ff_Src/ff.c **** 	return FR_OK;
1395:../Dave/Generated/FATFS/ff_Src/ff.c **** }
1396:../Dave/Generated/FATFS/ff_Src/ff.c **** 
1397:../Dave/Generated/FATFS/ff_Src/ff.c **** #endif	/* FF_FS_EXFAT && !FF_FS_READONLY */
1398:../Dave/Generated/FATFS/ff_Src/ff.c **** 
1399:../Dave/Generated/FATFS/ff_Src/ff.c **** 
1400:../Dave/Generated/FATFS/ff_Src/ff.c **** 
1401:../Dave/Generated/FATFS/ff_Src/ff.c **** #if !FF_FS_READONLY
1402:../Dave/Generated/FATFS/ff_Src/ff.c **** /*-----------------------------------------------------------------------*/
1403:../Dave/Generated/FATFS/ff_Src/ff.c **** /* FAT handling - Remove a cluster chain                                 */
1404:../Dave/Generated/FATFS/ff_Src/ff.c **** /*-----------------------------------------------------------------------*/
1405:../Dave/Generated/FATFS/ff_Src/ff.c **** 
1406:../Dave/Generated/FATFS/ff_Src/ff.c **** static FRESULT remove_chain (	/* FR_OK(0):succeeded, !=0:error */
1407:../Dave/Generated/FATFS/ff_Src/ff.c **** 	FFOBJID* obj,		/* Corresponding object */
1408:../Dave/Generated/FATFS/ff_Src/ff.c **** 	DWORD clst,			/* Cluster to remove a chain from */
1409:../Dave/Generated/FATFS/ff_Src/ff.c **** 	DWORD pclst			/* Previous cluster of clst (0:entire chain) */
1410:../Dave/Generated/FATFS/ff_Src/ff.c **** )
1411:../Dave/Generated/FATFS/ff_Src/ff.c **** {
 2536              	 .loc 1 1411 0
 2537              	 .cfi_startproc
 2538              	 
 2539              	 
 2540 0000 80B5     	 push {r7,lr}
 2541              	.LCFI131:
 2542              	 .cfi_def_cfa_offset 8
 2543              	 .cfi_offset 7,-8
 2544              	 .cfi_offset 14,-4
 2545 0002 88B0     	 sub sp,sp,#32
 2546              	.LCFI132:
 2547              	 .cfi_def_cfa_offset 40
 2548 0004 00AF     	 add r7,sp,#0
 2549              	.LCFI133:
 2550              	 .cfi_def_cfa_register 7
 2551 0006 F860     	 str r0,[r7,#12]
 2552 0008 B960     	 str r1,[r7,#8]
 2553 000a 7A60     	 str r2,[r7,#4]
1412:../Dave/Generated/FATFS/ff_Src/ff.c **** 	FRESULT res = FR_OK;
 2554              	 .loc 1 1412 0
 2555 000c 0023     	 movs r3,#0
 2556 000e FB77     	 strb r3,[r7,#31]
1413:../Dave/Generated/FATFS/ff_Src/ff.c **** 	DWORD nxt;
1414:../Dave/Generated/FATFS/ff_Src/ff.c **** 	FATFS *fs = obj->fs;
 2557              	 .loc 1 1414 0
 2558 0010 FB68     	 ldr r3,[r7,#12]
 2559 0012 1B68     	 ldr r3,[r3]
 2560 0014 BB61     	 str r3,[r7,#24]
1415:../Dave/Generated/FATFS/ff_Src/ff.c **** #if FF_FS_EXFAT || FF_USE_TRIM
1416:../Dave/Generated/FATFS/ff_Src/ff.c **** 	DWORD scl = clst, ecl = clst;
1417:../Dave/Generated/FATFS/ff_Src/ff.c **** #endif
1418:../Dave/Generated/FATFS/ff_Src/ff.c **** #if FF_USE_TRIM
1419:../Dave/Generated/FATFS/ff_Src/ff.c **** 	DWORD rt[2];
1420:../Dave/Generated/FATFS/ff_Src/ff.c **** #endif
1421:../Dave/Generated/FATFS/ff_Src/ff.c **** 
1422:../Dave/Generated/FATFS/ff_Src/ff.c **** 	if (clst < 2 || clst >= fs->n_fatent) return FR_INT_ERR;	/* Check if in valid range */
 2561              	 .loc 1 1422 0
 2562 0016 BB68     	 ldr r3,[r7,#8]
 2563 0018 012B     	 cmp r3,#1
 2564 001a 04D9     	 bls .L140
 2565              	 .loc 1 1422 0 is_stmt 0 discriminator 2
 2566 001c BB69     	 ldr r3,[r7,#24]
 2567 001e DA69     	 ldr r2,[r3,#28]
 2568 0020 BB68     	 ldr r3,[r7,#8]
 2569 0022 9A42     	 cmp r2,r3
 2570 0024 01D8     	 bhi .L141
 2571              	.L140:
 2572              	 .loc 1 1422 0 discriminator 3
 2573 0026 0223     	 movs r3,#2
 2574 0028 4AE0     	 b .L142
 2575              	.L141:
1423:../Dave/Generated/FATFS/ff_Src/ff.c **** 
1424:../Dave/Generated/FATFS/ff_Src/ff.c **** 	/* Mark the previous cluster 'EOC' on the FAT if it exists */
1425:../Dave/Generated/FATFS/ff_Src/ff.c **** 	if (pclst != 0 && (!FF_FS_EXFAT || fs->fs_type != FS_EXFAT || obj->stat != 2)) {
 2576              	 .loc 1 1425 0 is_stmt 1
 2577 002a 7B68     	 ldr r3,[r7,#4]
 2578 002c 002B     	 cmp r3,#0
 2579 002e 0CD0     	 beq .L143
1426:../Dave/Generated/FATFS/ff_Src/ff.c **** 		res = put_fat(fs, pclst, 0xFFFFFFFF);
 2580              	 .loc 1 1426 0
 2581 0030 B869     	 ldr r0,[r7,#24]
 2582 0032 7968     	 ldr r1,[r7,#4]
 2583 0034 4FF0FF32 	 mov r2,#-1
 2584 0038 FFF7FEFF 	 bl put_fat
 2585 003c 0346     	 mov r3,r0
 2586 003e FB77     	 strb r3,[r7,#31]
1427:../Dave/Generated/FATFS/ff_Src/ff.c **** 		if (res != FR_OK) return res;
 2587              	 .loc 1 1427 0
 2588 0040 FB7F     	 ldrb r3,[r7,#31]
 2589 0042 002B     	 cmp r3,#0
 2590 0044 01D0     	 beq .L143
 2591              	 .loc 1 1427 0 is_stmt 0 discriminator 1
 2592 0046 FB7F     	 ldrb r3,[r7,#31]
 2593 0048 3AE0     	 b .L142
 2594              	.L143:
1428:../Dave/Generated/FATFS/ff_Src/ff.c **** 	}
1429:../Dave/Generated/FATFS/ff_Src/ff.c **** 
1430:../Dave/Generated/FATFS/ff_Src/ff.c **** 	/* Remove the chain */
1431:../Dave/Generated/FATFS/ff_Src/ff.c **** 	do {
1432:../Dave/Generated/FATFS/ff_Src/ff.c **** 		nxt = get_fat(obj, clst);			/* Get cluster status */
 2595              	 .loc 1 1432 0 is_stmt 1
 2596 004a F868     	 ldr r0,[r7,#12]
 2597 004c B968     	 ldr r1,[r7,#8]
 2598 004e FFF7FEFF 	 bl get_fat
 2599 0052 7861     	 str r0,[r7,#20]
1433:../Dave/Generated/FATFS/ff_Src/ff.c **** 		if (nxt == 0) break;				/* Empty cluster? */
 2600              	 .loc 1 1433 0
 2601 0054 7B69     	 ldr r3,[r7,#20]
 2602 0056 002B     	 cmp r3,#0
 2603 0058 00D1     	 bne .L144
 2604 005a 30E0     	 b .L145
 2605              	.L144:
1434:../Dave/Generated/FATFS/ff_Src/ff.c **** 		if (nxt == 1) return FR_INT_ERR;	/* Internal error? */
 2606              	 .loc 1 1434 0
 2607 005c 7B69     	 ldr r3,[r7,#20]
 2608 005e 012B     	 cmp r3,#1
 2609 0060 01D1     	 bne .L146
 2610              	 .loc 1 1434 0 is_stmt 0 discriminator 1
 2611 0062 0223     	 movs r3,#2
 2612 0064 2CE0     	 b .L142
 2613              	.L146:
1435:../Dave/Generated/FATFS/ff_Src/ff.c **** 		if (nxt == 0xFFFFFFFF) return FR_DISK_ERR;	/* Disk error? */
 2614              	 .loc 1 1435 0 is_stmt 1
 2615 0066 7B69     	 ldr r3,[r7,#20]
 2616 0068 B3F1FF3F 	 cmp r3,#-1
 2617 006c 01D1     	 bne .L147
 2618              	 .loc 1 1435 0 is_stmt 0 discriminator 1
 2619 006e 0123     	 movs r3,#1
 2620 0070 26E0     	 b .L142
 2621              	.L147:
1436:../Dave/Generated/FATFS/ff_Src/ff.c **** 		if (!FF_FS_EXFAT || fs->fs_type != FS_EXFAT) {
1437:../Dave/Generated/FATFS/ff_Src/ff.c **** 			res = put_fat(fs, clst, 0);		/* Mark the cluster 'free' on the FAT */
 2622              	 .loc 1 1437 0 is_stmt 1
 2623 0072 B869     	 ldr r0,[r7,#24]
 2624 0074 B968     	 ldr r1,[r7,#8]
 2625 0076 0022     	 movs r2,#0
 2626 0078 FFF7FEFF 	 bl put_fat
 2627 007c 0346     	 mov r3,r0
 2628 007e FB77     	 strb r3,[r7,#31]
1438:../Dave/Generated/FATFS/ff_Src/ff.c **** 			if (res != FR_OK) return res;
 2629              	 .loc 1 1438 0
 2630 0080 FB7F     	 ldrb r3,[r7,#31]
 2631 0082 002B     	 cmp r3,#0
 2632 0084 01D0     	 beq .L148
 2633              	 .loc 1 1438 0 is_stmt 0 discriminator 1
 2634 0086 FB7F     	 ldrb r3,[r7,#31]
 2635 0088 1AE0     	 b .L142
 2636              	.L148:
1439:../Dave/Generated/FATFS/ff_Src/ff.c **** 		}
1440:../Dave/Generated/FATFS/ff_Src/ff.c **** 		if (fs->free_clst < fs->n_fatent - 2) {	/* Update FSINFO */
 2637              	 .loc 1 1440 0 is_stmt 1
 2638 008a BB69     	 ldr r3,[r7,#24]
 2639 008c 5A69     	 ldr r2,[r3,#20]
 2640 008e BB69     	 ldr r3,[r7,#24]
 2641 0090 DB69     	 ldr r3,[r3,#28]
 2642 0092 023B     	 subs r3,r3,#2
 2643 0094 9A42     	 cmp r2,r3
 2644 0096 0BD2     	 bcs .L149
1441:../Dave/Generated/FATFS/ff_Src/ff.c **** 			fs->free_clst++;
 2645              	 .loc 1 1441 0
 2646 0098 BB69     	 ldr r3,[r7,#24]
 2647 009a 5B69     	 ldr r3,[r3,#20]
 2648 009c 5A1C     	 adds r2,r3,#1
 2649 009e BB69     	 ldr r3,[r7,#24]
 2650 00a0 5A61     	 str r2,[r3,#20]
1442:../Dave/Generated/FATFS/ff_Src/ff.c **** 			fs->fsi_flag |= 1;
 2651              	 .loc 1 1442 0
 2652 00a2 BB69     	 ldr r3,[r7,#24]
 2653 00a4 1B79     	 ldrb r3,[r3,#4]
 2654 00a6 43F00103 	 orr r3,r3,#1
 2655 00aa DAB2     	 uxtb r2,r3
 2656 00ac BB69     	 ldr r3,[r7,#24]
 2657 00ae 1A71     	 strb r2,[r3,#4]
 2658              	.L149:
1443:../Dave/Generated/FATFS/ff_Src/ff.c **** 		}
1444:../Dave/Generated/FATFS/ff_Src/ff.c **** #if FF_FS_EXFAT || FF_USE_TRIM
1445:../Dave/Generated/FATFS/ff_Src/ff.c **** 		if (ecl + 1 == nxt) {	/* Is next cluster contiguous? */
1446:../Dave/Generated/FATFS/ff_Src/ff.c **** 			ecl = nxt;
1447:../Dave/Generated/FATFS/ff_Src/ff.c **** 		} else {				/* End of contiguous cluster block */
1448:../Dave/Generated/FATFS/ff_Src/ff.c **** #if FF_FS_EXFAT
1449:../Dave/Generated/FATFS/ff_Src/ff.c **** 			if (fs->fs_type == FS_EXFAT) {
1450:../Dave/Generated/FATFS/ff_Src/ff.c **** 				res = change_bitmap(fs, scl, ecl - scl + 1, 0);	/* Mark the cluster block 'free' on the bitmap 
1451:../Dave/Generated/FATFS/ff_Src/ff.c **** 				if (res != FR_OK) return res;
1452:../Dave/Generated/FATFS/ff_Src/ff.c **** 			}
1453:../Dave/Generated/FATFS/ff_Src/ff.c **** #endif
1454:../Dave/Generated/FATFS/ff_Src/ff.c **** #if FF_USE_TRIM
1455:../Dave/Generated/FATFS/ff_Src/ff.c **** 			rt[0] = clst2sect(fs, scl);					/* Start of data area freed */
1456:../Dave/Generated/FATFS/ff_Src/ff.c **** 			rt[1] = clst2sect(fs, ecl) + fs->csize - 1;	/* End of data area freed */
1457:../Dave/Generated/FATFS/ff_Src/ff.c **** 			disk_ioctl(fs->pdrv, CTRL_TRIM, rt);		/* Inform device the data in the block is no longer needed
1458:../Dave/Generated/FATFS/ff_Src/ff.c **** #endif
1459:../Dave/Generated/FATFS/ff_Src/ff.c **** 			scl = ecl = nxt;
1460:../Dave/Generated/FATFS/ff_Src/ff.c **** 		}
1461:../Dave/Generated/FATFS/ff_Src/ff.c **** #endif
1462:../Dave/Generated/FATFS/ff_Src/ff.c **** 		clst = nxt;					/* Next cluster */
 2659              	 .loc 1 1462 0
 2660 00b0 7B69     	 ldr r3,[r7,#20]
 2661 00b2 BB60     	 str r3,[r7,#8]
1463:../Dave/Generated/FATFS/ff_Src/ff.c **** 	} while (clst < fs->n_fatent);	/* Repeat while not the last link */
 2662              	 .loc 1 1463 0
 2663 00b4 BB69     	 ldr r3,[r7,#24]
 2664 00b6 DA69     	 ldr r2,[r3,#28]
 2665 00b8 BB68     	 ldr r3,[r7,#8]
 2666 00ba 9A42     	 cmp r2,r3
 2667 00bc C5D8     	 bhi .L143
 2668              	.L145:
1464:../Dave/Generated/FATFS/ff_Src/ff.c **** 
1465:../Dave/Generated/FATFS/ff_Src/ff.c **** #if FF_FS_EXFAT
1466:../Dave/Generated/FATFS/ff_Src/ff.c **** 	/* Some post processes for chain status */
1467:../Dave/Generated/FATFS/ff_Src/ff.c **** 	if (fs->fs_type == FS_EXFAT) {
1468:../Dave/Generated/FATFS/ff_Src/ff.c **** 		if (pclst == 0) {	/* Has the entire chain been removed? */
1469:../Dave/Generated/FATFS/ff_Src/ff.c **** 			obj->stat = 0;		/* Change the chain status 'initial' */
1470:../Dave/Generated/FATFS/ff_Src/ff.c **** 		} else {
1471:../Dave/Generated/FATFS/ff_Src/ff.c **** 			if (obj->stat == 0) {	/* Is it a fragmented chain from the beginning of this session? */
1472:../Dave/Generated/FATFS/ff_Src/ff.c **** 				clst = obj->sclust;		/* Follow the chain to check if it gets contiguous */
1473:../Dave/Generated/FATFS/ff_Src/ff.c **** 				while (clst != pclst) {
1474:../Dave/Generated/FATFS/ff_Src/ff.c **** 					nxt = get_fat(obj, clst);
1475:../Dave/Generated/FATFS/ff_Src/ff.c **** 					if (nxt < 2) return FR_INT_ERR;
1476:../Dave/Generated/FATFS/ff_Src/ff.c **** 					if (nxt == 0xFFFFFFFF) return FR_DISK_ERR;
1477:../Dave/Generated/FATFS/ff_Src/ff.c **** 					if (nxt != clst + 1) break;	/* Not contiguous? */
1478:../Dave/Generated/FATFS/ff_Src/ff.c **** 					clst++;
1479:../Dave/Generated/FATFS/ff_Src/ff.c **** 				}
1480:../Dave/Generated/FATFS/ff_Src/ff.c **** 				if (clst == pclst) {	/* Has the chain got contiguous again? */
1481:../Dave/Generated/FATFS/ff_Src/ff.c **** 					obj->stat = 2;		/* Change the chain status 'contiguous' */
1482:../Dave/Generated/FATFS/ff_Src/ff.c **** 				}
1483:../Dave/Generated/FATFS/ff_Src/ff.c **** 			} else {
1484:../Dave/Generated/FATFS/ff_Src/ff.c **** 				if (obj->stat == 3 && pclst >= obj->sclust && pclst <= obj->sclust + obj->n_cont) {	/* Was the 
1485:../Dave/Generated/FATFS/ff_Src/ff.c **** 					obj->stat = 2;	/* Change the chain status 'contiguous' */
1486:../Dave/Generated/FATFS/ff_Src/ff.c **** 				}
1487:../Dave/Generated/FATFS/ff_Src/ff.c **** 			}
1488:../Dave/Generated/FATFS/ff_Src/ff.c **** 		}
1489:../Dave/Generated/FATFS/ff_Src/ff.c **** 	}
1490:../Dave/Generated/FATFS/ff_Src/ff.c **** #endif
1491:../Dave/Generated/FATFS/ff_Src/ff.c **** 	return FR_OK;
 2669              	 .loc 1 1491 0
 2670 00be 0023     	 movs r3,#0
 2671              	.L142:
1492:../Dave/Generated/FATFS/ff_Src/ff.c **** }
 2672              	 .loc 1 1492 0
 2673 00c0 1846     	 mov r0,r3
 2674 00c2 2037     	 adds r7,r7,#32
 2675              	.LCFI134:
 2676              	 .cfi_def_cfa_offset 8
 2677 00c4 BD46     	 mov sp,r7
 2678              	.LCFI135:
 2679              	 .cfi_def_cfa_register 13
 2680              	 
 2681 00c6 80BD     	 pop {r7,pc}
 2682              	 .cfi_endproc
 2683              	.LFE23:
 2685              	 .section .text.create_chain,"ax",%progbits
 2686              	 .align 2
 2687              	 .thumb
 2688              	 .thumb_func
 2690              	create_chain:
 2691              	.LFB24:
1493:../Dave/Generated/FATFS/ff_Src/ff.c **** 
1494:../Dave/Generated/FATFS/ff_Src/ff.c **** 
1495:../Dave/Generated/FATFS/ff_Src/ff.c **** 
1496:../Dave/Generated/FATFS/ff_Src/ff.c **** 
1497:../Dave/Generated/FATFS/ff_Src/ff.c **** /*-----------------------------------------------------------------------*/
1498:../Dave/Generated/FATFS/ff_Src/ff.c **** /* FAT handling - Stretch a chain or Create a new chain                  */
1499:../Dave/Generated/FATFS/ff_Src/ff.c **** /*-----------------------------------------------------------------------*/
1500:../Dave/Generated/FATFS/ff_Src/ff.c **** 
1501:../Dave/Generated/FATFS/ff_Src/ff.c **** static DWORD create_chain (	/* 0:No free cluster, 1:Internal error, 0xFFFFFFFF:Disk error, >=2:New 
1502:../Dave/Generated/FATFS/ff_Src/ff.c **** 	FFOBJID* obj,		/* Corresponding object */
1503:../Dave/Generated/FATFS/ff_Src/ff.c **** 	DWORD clst			/* Cluster# to stretch, 0:Create a new chain */
1504:../Dave/Generated/FATFS/ff_Src/ff.c **** )
1505:../Dave/Generated/FATFS/ff_Src/ff.c **** {
 2692              	 .loc 1 1505 0
 2693              	 .cfi_startproc
 2694              	 
 2695              	 
 2696 0000 80B5     	 push {r7,lr}
 2697              	.LCFI136:
 2698              	 .cfi_def_cfa_offset 8
 2699              	 .cfi_offset 7,-8
 2700              	 .cfi_offset 14,-4
 2701 0002 88B0     	 sub sp,sp,#32
 2702              	.LCFI137:
 2703              	 .cfi_def_cfa_offset 40
 2704 0004 00AF     	 add r7,sp,#0
 2705              	.LCFI138:
 2706              	 .cfi_def_cfa_register 7
 2707 0006 7860     	 str r0,[r7,#4]
 2708 0008 3960     	 str r1,[r7]
1506:../Dave/Generated/FATFS/ff_Src/ff.c **** 	DWORD cs, ncl, scl;
1507:../Dave/Generated/FATFS/ff_Src/ff.c **** 	FRESULT res;
1508:../Dave/Generated/FATFS/ff_Src/ff.c **** 	FATFS *fs = obj->fs;
 2709              	 .loc 1 1508 0
 2710 000a 7B68     	 ldr r3,[r7,#4]
 2711 000c 1B68     	 ldr r3,[r3]
 2712 000e 3B61     	 str r3,[r7,#16]
1509:../Dave/Generated/FATFS/ff_Src/ff.c **** 
1510:../Dave/Generated/FATFS/ff_Src/ff.c **** 
1511:../Dave/Generated/FATFS/ff_Src/ff.c **** 	if (clst == 0) {	/* Create a new chain */
 2713              	 .loc 1 1511 0
 2714 0010 3B68     	 ldr r3,[r7]
 2715 0012 002B     	 cmp r3,#0
 2716 0014 0DD1     	 bne .L151
1512:../Dave/Generated/FATFS/ff_Src/ff.c **** 		scl = fs->last_clst;				/* Suggested cluster to start to find */
 2717              	 .loc 1 1512 0
 2718 0016 3B69     	 ldr r3,[r7,#16]
 2719 0018 1B69     	 ldr r3,[r3,#16]
 2720 001a BB61     	 str r3,[r7,#24]
1513:../Dave/Generated/FATFS/ff_Src/ff.c **** 		if (scl == 0 || scl >= fs->n_fatent) scl = 1;
 2721              	 .loc 1 1513 0
 2722 001c BB69     	 ldr r3,[r7,#24]
 2723 001e 002B     	 cmp r3,#0
 2724 0020 04D0     	 beq .L152
 2725              	 .loc 1 1513 0 is_stmt 0 discriminator 2
 2726 0022 3B69     	 ldr r3,[r7,#16]
 2727 0024 DA69     	 ldr r2,[r3,#28]
 2728 0026 BB69     	 ldr r3,[r7,#24]
 2729 0028 9A42     	 cmp r2,r3
 2730 002a 1BD8     	 bhi .L154
 2731              	.L152:
 2732              	 .loc 1 1513 0 discriminator 3
 2733 002c 0123     	 movs r3,#1
 2734 002e BB61     	 str r3,[r7,#24]
 2735 0030 18E0     	 b .L154
 2736              	.L151:
1514:../Dave/Generated/FATFS/ff_Src/ff.c **** 	}
1515:../Dave/Generated/FATFS/ff_Src/ff.c **** 	else {				/* Stretch a chain */
1516:../Dave/Generated/FATFS/ff_Src/ff.c **** 		cs = get_fat(obj, clst);			/* Check the cluster status */
 2737              	 .loc 1 1516 0 is_stmt 1
 2738 0032 7868     	 ldr r0,[r7,#4]
 2739 0034 3968     	 ldr r1,[r7]
 2740 0036 FFF7FEFF 	 bl get_fat
 2741 003a F860     	 str r0,[r7,#12]
1517:../Dave/Generated/FATFS/ff_Src/ff.c **** 		if (cs < 2) return 1;				/* Test for insanity */
 2742              	 .loc 1 1517 0
 2743 003c FB68     	 ldr r3,[r7,#12]
 2744 003e 012B     	 cmp r3,#1
 2745 0040 01D8     	 bhi .L155
 2746              	 .loc 1 1517 0 is_stmt 0 discriminator 1
 2747 0042 0123     	 movs r3,#1
 2748 0044 AAE0     	 b .L156
 2749              	.L155:
1518:../Dave/Generated/FATFS/ff_Src/ff.c **** 		if (cs == 0xFFFFFFFF) return cs;	/* Test for disk error */
 2750              	 .loc 1 1518 0 is_stmt 1
 2751 0046 FB68     	 ldr r3,[r7,#12]
 2752 0048 B3F1FF3F 	 cmp r3,#-1
 2753 004c 01D1     	 bne .L157
 2754              	 .loc 1 1518 0 is_stmt 0 discriminator 1
 2755 004e FB68     	 ldr r3,[r7,#12]
 2756 0050 A4E0     	 b .L156
 2757              	.L157:
1519:../Dave/Generated/FATFS/ff_Src/ff.c **** 		if (cs < fs->n_fatent) return cs;	/* It is already followed by next cluster */
 2758              	 .loc 1 1519 0 is_stmt 1
 2759 0052 3B69     	 ldr r3,[r7,#16]
 2760 0054 DA69     	 ldr r2,[r3,#28]
 2761 0056 FB68     	 ldr r3,[r7,#12]
 2762 0058 9A42     	 cmp r2,r3
 2763 005a 01D9     	 bls .L158
 2764              	 .loc 1 1519 0 is_stmt 0 discriminator 1
 2765 005c FB68     	 ldr r3,[r7,#12]
 2766 005e 9DE0     	 b .L156
 2767              	.L158:
1520:../Dave/Generated/FATFS/ff_Src/ff.c **** 		scl = clst;							/* Cluster to start to find */
 2768              	 .loc 1 1520 0 is_stmt 1
 2769 0060 3B68     	 ldr r3,[r7]
 2770 0062 BB61     	 str r3,[r7,#24]
 2771              	.L154:
1521:../Dave/Generated/FATFS/ff_Src/ff.c **** 	}
1522:../Dave/Generated/FATFS/ff_Src/ff.c **** 	if (fs->free_clst == 0) return 0;		/* No free cluster */
 2772              	 .loc 1 1522 0
 2773 0064 3B69     	 ldr r3,[r7,#16]
 2774 0066 5B69     	 ldr r3,[r3,#20]
 2775 0068 002B     	 cmp r3,#0
 2776 006a 01D1     	 bne .L159
 2777              	 .loc 1 1522 0 is_stmt 0 discriminator 1
 2778 006c 0023     	 movs r3,#0
 2779 006e 95E0     	 b .L156
 2780              	.L159:
1523:../Dave/Generated/FATFS/ff_Src/ff.c **** 
1524:../Dave/Generated/FATFS/ff_Src/ff.c **** #if FF_FS_EXFAT
1525:../Dave/Generated/FATFS/ff_Src/ff.c **** 	if (fs->fs_type == FS_EXFAT) {	/* On the exFAT volume */
1526:../Dave/Generated/FATFS/ff_Src/ff.c **** 		ncl = find_bitmap(fs, scl, 1);				/* Find a free cluster */
1527:../Dave/Generated/FATFS/ff_Src/ff.c **** 		if (ncl == 0 || ncl == 0xFFFFFFFF) return ncl;	/* No free cluster or hard error? */
1528:../Dave/Generated/FATFS/ff_Src/ff.c **** 		res = change_bitmap(fs, ncl, 1, 1);			/* Mark the cluster 'in use' */
1529:../Dave/Generated/FATFS/ff_Src/ff.c **** 		if (res == FR_INT_ERR) return 1;
1530:../Dave/Generated/FATFS/ff_Src/ff.c **** 		if (res == FR_DISK_ERR) return 0xFFFFFFFF;
1531:../Dave/Generated/FATFS/ff_Src/ff.c **** 		if (clst == 0) {							/* Is it a new chain? */
1532:../Dave/Generated/FATFS/ff_Src/ff.c **** 			obj->stat = 2;							/* Set status 'contiguous' */
1533:../Dave/Generated/FATFS/ff_Src/ff.c **** 		} else {									/* It is a stretched chain */
1534:../Dave/Generated/FATFS/ff_Src/ff.c **** 			if (obj->stat == 2 && ncl != scl + 1) {	/* Is the chain got fragmented? */
1535:../Dave/Generated/FATFS/ff_Src/ff.c **** 				obj->n_cont = scl - obj->sclust;	/* Set size of the contiguous part */
1536:../Dave/Generated/FATFS/ff_Src/ff.c **** 				obj->stat = 3;						/* Change status 'just fragmented' */
1537:../Dave/Generated/FATFS/ff_Src/ff.c **** 			}
1538:../Dave/Generated/FATFS/ff_Src/ff.c **** 		}
1539:../Dave/Generated/FATFS/ff_Src/ff.c **** 		if (obj->stat != 2) {	/* Is the file non-contiguous? */
1540:../Dave/Generated/FATFS/ff_Src/ff.c **** 			if (ncl == clst + 1) {	/* Is the cluster next to previous one? */
1541:../Dave/Generated/FATFS/ff_Src/ff.c **** 				obj->n_frag = obj->n_frag ? obj->n_frag + 1 : 2;	/* Increment size of last framgent */
1542:../Dave/Generated/FATFS/ff_Src/ff.c **** 			} else {				/* New fragment */
1543:../Dave/Generated/FATFS/ff_Src/ff.c **** 				if (obj->n_frag == 0) obj->n_frag = 1;
1544:../Dave/Generated/FATFS/ff_Src/ff.c **** 				res = fill_last_frag(obj, clst, ncl);	/* Fill last fragment on the FAT and link it to new one *
1545:../Dave/Generated/FATFS/ff_Src/ff.c **** 				if (res == FR_OK) obj->n_frag = 1;
1546:../Dave/Generated/FATFS/ff_Src/ff.c **** 			}
1547:../Dave/Generated/FATFS/ff_Src/ff.c **** 		}
1548:../Dave/Generated/FATFS/ff_Src/ff.c **** 	} else
1549:../Dave/Generated/FATFS/ff_Src/ff.c **** #endif
1550:../Dave/Generated/FATFS/ff_Src/ff.c **** 	{	/* On the FAT/FAT32 volume */
1551:../Dave/Generated/FATFS/ff_Src/ff.c **** 		ncl = 0;
 2781              	 .loc 1 1551 0 is_stmt 1
 2782 0070 0023     	 movs r3,#0
 2783 0072 FB61     	 str r3,[r7,#28]
1552:../Dave/Generated/FATFS/ff_Src/ff.c **** 		if (scl == clst) {						/* Stretching an existing chain? */
 2784              	 .loc 1 1552 0
 2785 0074 BA69     	 ldr r2,[r7,#24]
 2786 0076 3B68     	 ldr r3,[r7]
 2787 0078 9A42     	 cmp r2,r3
 2788 007a 29D1     	 bne .L160
1553:../Dave/Generated/FATFS/ff_Src/ff.c **** 			ncl = scl + 1;						/* Test if next cluster is free */
 2789              	 .loc 1 1553 0
 2790 007c BB69     	 ldr r3,[r7,#24]
 2791 007e 0133     	 adds r3,r3,#1
 2792 0080 FB61     	 str r3,[r7,#28]
1554:../Dave/Generated/FATFS/ff_Src/ff.c **** 			if (ncl >= fs->n_fatent) ncl = 2;
 2793              	 .loc 1 1554 0
 2794 0082 3B69     	 ldr r3,[r7,#16]
 2795 0084 DA69     	 ldr r2,[r3,#28]
 2796 0086 FB69     	 ldr r3,[r7,#28]
 2797 0088 9A42     	 cmp r2,r3
 2798 008a 01D8     	 bhi .L161
 2799              	 .loc 1 1554 0 is_stmt 0 discriminator 1
 2800 008c 0223     	 movs r3,#2
 2801 008e FB61     	 str r3,[r7,#28]
 2802              	.L161:
1555:../Dave/Generated/FATFS/ff_Src/ff.c **** 			cs = get_fat(obj, ncl);				/* Get next cluster status */
 2803              	 .loc 1 1555 0 is_stmt 1
 2804 0090 7868     	 ldr r0,[r7,#4]
 2805 0092 F969     	 ldr r1,[r7,#28]
 2806 0094 FFF7FEFF 	 bl get_fat
 2807 0098 F860     	 str r0,[r7,#12]
1556:../Dave/Generated/FATFS/ff_Src/ff.c **** 			if (cs == 1 || cs == 0xFFFFFFFF) return cs;	/* Test for error */
 2808              	 .loc 1 1556 0
 2809 009a FB68     	 ldr r3,[r7,#12]
 2810 009c 012B     	 cmp r3,#1
 2811 009e 03D0     	 beq .L162
 2812              	 .loc 1 1556 0 is_stmt 0 discriminator 2
 2813 00a0 FB68     	 ldr r3,[r7,#12]
 2814 00a2 B3F1FF3F 	 cmp r3,#-1
 2815 00a6 01D1     	 bne .L163
 2816              	.L162:
 2817              	 .loc 1 1556 0 discriminator 3
 2818 00a8 FB68     	 ldr r3,[r7,#12]
 2819 00aa 77E0     	 b .L156
 2820              	.L163:
1557:../Dave/Generated/FATFS/ff_Src/ff.c **** 			if (cs != 0) {						/* Not free? */
 2821              	 .loc 1 1557 0 is_stmt 1
 2822 00ac FB68     	 ldr r3,[r7,#12]
 2823 00ae 002B     	 cmp r3,#0
 2824 00b0 0ED0     	 beq .L160
1558:../Dave/Generated/FATFS/ff_Src/ff.c **** 				cs = fs->last_clst;				/* Start at suggested cluster if it is valid */
 2825              	 .loc 1 1558 0
 2826 00b2 3B69     	 ldr r3,[r7,#16]
 2827 00b4 1B69     	 ldr r3,[r3,#16]
 2828 00b6 FB60     	 str r3,[r7,#12]
1559:../Dave/Generated/FATFS/ff_Src/ff.c **** 				if (cs >= 2 && cs < fs->n_fatent) scl = cs;
 2829              	 .loc 1 1559 0
 2830 00b8 FB68     	 ldr r3,[r7,#12]
 2831 00ba 012B     	 cmp r3,#1
 2832 00bc 06D9     	 bls .L164
 2833              	 .loc 1 1559 0 is_stmt 0 discriminator 1
 2834 00be 3B69     	 ldr r3,[r7,#16]
 2835 00c0 DA69     	 ldr r2,[r3,#28]
 2836 00c2 FB68     	 ldr r3,[r7,#12]
 2837 00c4 9A42     	 cmp r2,r3
 2838 00c6 01D9     	 bls .L164
 2839              	 .loc 1 1559 0 discriminator 2
 2840 00c8 FB68     	 ldr r3,[r7,#12]
 2841 00ca BB61     	 str r3,[r7,#24]
 2842              	.L164:
1560:../Dave/Generated/FATFS/ff_Src/ff.c **** 				ncl = 0;
 2843              	 .loc 1 1560 0 is_stmt 1
 2844 00cc 0023     	 movs r3,#0
 2845 00ce FB61     	 str r3,[r7,#28]
 2846              	.L160:
1561:../Dave/Generated/FATFS/ff_Src/ff.c **** 			}
1562:../Dave/Generated/FATFS/ff_Src/ff.c **** 		}
1563:../Dave/Generated/FATFS/ff_Src/ff.c **** 		if (ncl == 0) {	/* The new cluster cannot be contiguous and find another fragment */
 2847              	 .loc 1 1563 0
 2848 00d0 FB69     	 ldr r3,[r7,#28]
 2849 00d2 002B     	 cmp r3,#0
 2850 00d4 2AD1     	 bne .L165
1564:../Dave/Generated/FATFS/ff_Src/ff.c **** 			ncl = scl;	/* Start cluster */
 2851              	 .loc 1 1564 0
 2852 00d6 BB69     	 ldr r3,[r7,#24]
 2853 00d8 FB61     	 str r3,[r7,#28]
 2854              	.L171:
1565:../Dave/Generated/FATFS/ff_Src/ff.c **** 			for (;;) {
1566:../Dave/Generated/FATFS/ff_Src/ff.c **** 				ncl++;							/* Next cluster */
 2855              	 .loc 1 1566 0
 2856 00da FB69     	 ldr r3,[r7,#28]
 2857 00dc 0133     	 adds r3,r3,#1
 2858 00de FB61     	 str r3,[r7,#28]
1567:../Dave/Generated/FATFS/ff_Src/ff.c **** 				if (ncl >= fs->n_fatent) {		/* Check wrap-around */
 2859              	 .loc 1 1567 0
 2860 00e0 3B69     	 ldr r3,[r7,#16]
 2861 00e2 DA69     	 ldr r2,[r3,#28]
 2862 00e4 FB69     	 ldr r3,[r7,#28]
 2863 00e6 9A42     	 cmp r2,r3
 2864 00e8 07D8     	 bhi .L166
1568:../Dave/Generated/FATFS/ff_Src/ff.c **** 					ncl = 2;
 2865              	 .loc 1 1568 0
 2866 00ea 0223     	 movs r3,#2
 2867 00ec FB61     	 str r3,[r7,#28]
1569:../Dave/Generated/FATFS/ff_Src/ff.c **** 					if (ncl > scl) return 0;	/* No free cluster found? */
 2868              	 .loc 1 1569 0
 2869 00ee FA69     	 ldr r2,[r7,#28]
 2870 00f0 BB69     	 ldr r3,[r7,#24]
 2871 00f2 9A42     	 cmp r2,r3
 2872 00f4 01D9     	 bls .L166
 2873              	 .loc 1 1569 0 is_stmt 0 discriminator 1
 2874 00f6 0023     	 movs r3,#0
 2875 00f8 50E0     	 b .L156
 2876              	.L166:
1570:../Dave/Generated/FATFS/ff_Src/ff.c **** 				}
1571:../Dave/Generated/FATFS/ff_Src/ff.c **** 				cs = get_fat(obj, ncl);			/* Get the cluster status */
 2877              	 .loc 1 1571 0 is_stmt 1
 2878 00fa 7868     	 ldr r0,[r7,#4]
 2879 00fc F969     	 ldr r1,[r7,#28]
 2880 00fe FFF7FEFF 	 bl get_fat
 2881 0102 F860     	 str r0,[r7,#12]
1572:../Dave/Generated/FATFS/ff_Src/ff.c **** 				if (cs == 0) break;				/* Found a free cluster? */
 2882              	 .loc 1 1572 0
 2883 0104 FB68     	 ldr r3,[r7,#12]
 2884 0106 002B     	 cmp r3,#0
 2885 0108 00D1     	 bne .L167
 2886 010a 0FE0     	 b .L165
 2887              	.L167:
1573:../Dave/Generated/FATFS/ff_Src/ff.c **** 				if (cs == 1 || cs == 0xFFFFFFFF) return cs;	/* Test for error */
 2888              	 .loc 1 1573 0
 2889 010c FB68     	 ldr r3,[r7,#12]
 2890 010e 012B     	 cmp r3,#1
 2891 0110 03D0     	 beq .L168
 2892              	 .loc 1 1573 0 is_stmt 0 discriminator 2
 2893 0112 FB68     	 ldr r3,[r7,#12]
 2894 0114 B3F1FF3F 	 cmp r3,#-1
 2895 0118 01D1     	 bne .L169
 2896              	.L168:
 2897              	 .loc 1 1573 0 discriminator 3
 2898 011a FB68     	 ldr r3,[r7,#12]
 2899 011c 3EE0     	 b .L156
 2900              	.L169:
1574:../Dave/Generated/FATFS/ff_Src/ff.c **** 				if (ncl == scl) return 0;		/* No free cluster found? */
 2901              	 .loc 1 1574 0 is_stmt 1
 2902 011e FA69     	 ldr r2,[r7,#28]
 2903 0120 BB69     	 ldr r3,[r7,#24]
 2904 0122 9A42     	 cmp r2,r3
 2905 0124 01D1     	 bne .L170
 2906              	 .loc 1 1574 0 is_stmt 0 discriminator 1
 2907 0126 0023     	 movs r3,#0
 2908 0128 38E0     	 b .L156
 2909              	.L170:
1575:../Dave/Generated/FATFS/ff_Src/ff.c **** 			}
 2910              	 .loc 1 1575 0 is_stmt 1
 2911 012a D6E7     	 b .L171
 2912              	.L165:
1576:../Dave/Generated/FATFS/ff_Src/ff.c **** 		}
1577:../Dave/Generated/FATFS/ff_Src/ff.c **** 		res = put_fat(fs, ncl, 0xFFFFFFFF);		/* Mark the new cluster 'EOC' */
 2913              	 .loc 1 1577 0
 2914 012c 3869     	 ldr r0,[r7,#16]
 2915 012e F969     	 ldr r1,[r7,#28]
 2916 0130 4FF0FF32 	 mov r2,#-1
 2917 0134 FFF7FEFF 	 bl put_fat
 2918 0138 0346     	 mov r3,r0
 2919 013a FB75     	 strb r3,[r7,#23]
1578:../Dave/Generated/FATFS/ff_Src/ff.c **** 		if (res == FR_OK && clst != 0) {
 2920              	 .loc 1 1578 0
 2921 013c FB7D     	 ldrb r3,[r7,#23]
 2922 013e 002B     	 cmp r3,#0
 2923 0140 09D1     	 bne .L172
 2924              	 .loc 1 1578 0 is_stmt 0 discriminator 1
 2925 0142 3B68     	 ldr r3,[r7]
 2926 0144 002B     	 cmp r3,#0
 2927 0146 06D0     	 beq .L172
1579:../Dave/Generated/FATFS/ff_Src/ff.c **** 			res = put_fat(fs, clst, ncl);		/* Link it from the previous one if needed */
 2928              	 .loc 1 1579 0 is_stmt 1
 2929 0148 3869     	 ldr r0,[r7,#16]
 2930 014a 3968     	 ldr r1,[r7]
 2931 014c FA69     	 ldr r2,[r7,#28]
 2932 014e FFF7FEFF 	 bl put_fat
 2933 0152 0346     	 mov r3,r0
 2934 0154 FB75     	 strb r3,[r7,#23]
 2935              	.L172:
1580:../Dave/Generated/FATFS/ff_Src/ff.c **** 		}
1581:../Dave/Generated/FATFS/ff_Src/ff.c **** 	}
1582:../Dave/Generated/FATFS/ff_Src/ff.c **** 
1583:../Dave/Generated/FATFS/ff_Src/ff.c **** 	if (res == FR_OK) {			/* Update FSINFO if function succeeded. */
 2936              	 .loc 1 1583 0
 2937 0156 FB7D     	 ldrb r3,[r7,#23]
 2938 0158 002B     	 cmp r3,#0
 2939 015a 16D1     	 bne .L173
1584:../Dave/Generated/FATFS/ff_Src/ff.c **** 		fs->last_clst = ncl;
 2940              	 .loc 1 1584 0
 2941 015c 3B69     	 ldr r3,[r7,#16]
 2942 015e FA69     	 ldr r2,[r7,#28]
 2943 0160 1A61     	 str r2,[r3,#16]
1585:../Dave/Generated/FATFS/ff_Src/ff.c **** 		if (fs->free_clst <= fs->n_fatent - 2) fs->free_clst--;
 2944              	 .loc 1 1585 0
 2945 0162 3B69     	 ldr r3,[r7,#16]
 2946 0164 5A69     	 ldr r2,[r3,#20]
 2947 0166 3B69     	 ldr r3,[r7,#16]
 2948 0168 DB69     	 ldr r3,[r3,#28]
 2949 016a 023B     	 subs r3,r3,#2
 2950 016c 9A42     	 cmp r2,r3
 2951 016e 04D8     	 bhi .L174
 2952              	 .loc 1 1585 0 is_stmt 0 discriminator 1
 2953 0170 3B69     	 ldr r3,[r7,#16]
 2954 0172 5B69     	 ldr r3,[r3,#20]
 2955 0174 5A1E     	 subs r2,r3,#1
 2956 0176 3B69     	 ldr r3,[r7,#16]
 2957 0178 5A61     	 str r2,[r3,#20]
 2958              	.L174:
1586:../Dave/Generated/FATFS/ff_Src/ff.c **** 		fs->fsi_flag |= 1;
 2959              	 .loc 1 1586 0 is_stmt 1
 2960 017a 3B69     	 ldr r3,[r7,#16]
 2961 017c 1B79     	 ldrb r3,[r3,#4]
 2962 017e 43F00103 	 orr r3,r3,#1
 2963 0182 DAB2     	 uxtb r2,r3
 2964 0184 3B69     	 ldr r3,[r7,#16]
 2965 0186 1A71     	 strb r2,[r3,#4]
 2966 0188 07E0     	 b .L175
 2967              	.L173:
1587:../Dave/Generated/FATFS/ff_Src/ff.c **** 	} else {
1588:../Dave/Generated/FATFS/ff_Src/ff.c **** 		ncl = (res == FR_DISK_ERR) ? 0xFFFFFFFF : 1;	/* Failed. Generate error status */
 2968              	 .loc 1 1588 0
 2969 018a FB7D     	 ldrb r3,[r7,#23]
 2970 018c 012B     	 cmp r3,#1
 2971 018e 02D1     	 bne .L176
 2972              	 .loc 1 1588 0 is_stmt 0 discriminator 1
 2973 0190 4FF0FF33 	 mov r3,#-1
 2974 0194 00E0     	 b .L177
 2975              	.L176:
 2976              	 .loc 1 1588 0 discriminator 2
 2977 0196 0123     	 movs r3,#1
 2978              	.L177:
 2979              	 .loc 1 1588 0 discriminator 4
 2980 0198 FB61     	 str r3,[r7,#28]
 2981              	.L175:
1589:../Dave/Generated/FATFS/ff_Src/ff.c **** 	}
1590:../Dave/Generated/FATFS/ff_Src/ff.c **** 
1591:../Dave/Generated/FATFS/ff_Src/ff.c **** 	return ncl;		/* Return new cluster number or error status */
 2982              	 .loc 1 1591 0 is_stmt 1
 2983 019a FB69     	 ldr r3,[r7,#28]
 2984              	.L156:
1592:../Dave/Generated/FATFS/ff_Src/ff.c **** }
 2985              	 .loc 1 1592 0
 2986 019c 1846     	 mov r0,r3
 2987 019e 2037     	 adds r7,r7,#32
 2988              	.LCFI139:
 2989              	 .cfi_def_cfa_offset 8
 2990 01a0 BD46     	 mov sp,r7
 2991              	.LCFI140:
 2992              	 .cfi_def_cfa_register 13
 2993              	 
 2994 01a2 80BD     	 pop {r7,pc}
 2995              	 .cfi_endproc
 2996              	.LFE24:
 2998              	 .section .text.dir_clear,"ax",%progbits
 2999              	 .align 2
 3000              	 .thumb
 3001              	 .thumb_func
 3003              	dir_clear:
 3004              	.LFB25:
1593:../Dave/Generated/FATFS/ff_Src/ff.c **** 
1594:../Dave/Generated/FATFS/ff_Src/ff.c **** #endif /* !FF_FS_READONLY */
1595:../Dave/Generated/FATFS/ff_Src/ff.c **** 
1596:../Dave/Generated/FATFS/ff_Src/ff.c **** 
1597:../Dave/Generated/FATFS/ff_Src/ff.c **** 
1598:../Dave/Generated/FATFS/ff_Src/ff.c **** 
1599:../Dave/Generated/FATFS/ff_Src/ff.c **** #if FF_USE_FASTSEEK
1600:../Dave/Generated/FATFS/ff_Src/ff.c **** /*-----------------------------------------------------------------------*/
1601:../Dave/Generated/FATFS/ff_Src/ff.c **** /* FAT handling - Convert offset into cluster with link map table        */
1602:../Dave/Generated/FATFS/ff_Src/ff.c **** /*-----------------------------------------------------------------------*/
1603:../Dave/Generated/FATFS/ff_Src/ff.c **** 
1604:../Dave/Generated/FATFS/ff_Src/ff.c **** static DWORD clmt_clust (	/* <2:Error, >=2:Cluster number */
1605:../Dave/Generated/FATFS/ff_Src/ff.c **** 	FIL* fp,		/* Pointer to the file object */
1606:../Dave/Generated/FATFS/ff_Src/ff.c **** 	FSIZE_t ofs		/* File offset to be converted to cluster# */
1607:../Dave/Generated/FATFS/ff_Src/ff.c **** )
1608:../Dave/Generated/FATFS/ff_Src/ff.c **** {
1609:../Dave/Generated/FATFS/ff_Src/ff.c **** 	DWORD cl, ncl, *tbl;
1610:../Dave/Generated/FATFS/ff_Src/ff.c **** 	FATFS *fs = fp->obj.fs;
1611:../Dave/Generated/FATFS/ff_Src/ff.c **** 
1612:../Dave/Generated/FATFS/ff_Src/ff.c **** 
1613:../Dave/Generated/FATFS/ff_Src/ff.c **** 	tbl = fp->cltbl + 1;	/* Top of CLMT */
1614:../Dave/Generated/FATFS/ff_Src/ff.c **** 	cl = (DWORD)(ofs / SS(fs) / fs->csize);	/* Cluster order from top of the file */
1615:../Dave/Generated/FATFS/ff_Src/ff.c **** 	for (;;) {
1616:../Dave/Generated/FATFS/ff_Src/ff.c **** 		ncl = *tbl++;			/* Number of cluters in the fragment */
1617:../Dave/Generated/FATFS/ff_Src/ff.c **** 		if (ncl == 0) return 0;	/* End of table? (error) */
1618:../Dave/Generated/FATFS/ff_Src/ff.c **** 		if (cl < ncl) break;	/* In this fragment? */
1619:../Dave/Generated/FATFS/ff_Src/ff.c **** 		cl -= ncl; tbl++;		/* Next fragment */
1620:../Dave/Generated/FATFS/ff_Src/ff.c **** 	}
1621:../Dave/Generated/FATFS/ff_Src/ff.c **** 	return cl + *tbl;	/* Return the cluster number */
1622:../Dave/Generated/FATFS/ff_Src/ff.c **** }
1623:../Dave/Generated/FATFS/ff_Src/ff.c **** 
1624:../Dave/Generated/FATFS/ff_Src/ff.c **** #endif	/* FF_USE_FASTSEEK */
1625:../Dave/Generated/FATFS/ff_Src/ff.c **** 
1626:../Dave/Generated/FATFS/ff_Src/ff.c **** 
1627:../Dave/Generated/FATFS/ff_Src/ff.c **** 
1628:../Dave/Generated/FATFS/ff_Src/ff.c **** 
1629:../Dave/Generated/FATFS/ff_Src/ff.c **** /*-----------------------------------------------------------------------*/
1630:../Dave/Generated/FATFS/ff_Src/ff.c **** /* Directory handling - Fill a cluster with zeros                        */
1631:../Dave/Generated/FATFS/ff_Src/ff.c **** /*-----------------------------------------------------------------------*/
1632:../Dave/Generated/FATFS/ff_Src/ff.c **** 
1633:../Dave/Generated/FATFS/ff_Src/ff.c **** #if !FF_FS_READONLY
1634:../Dave/Generated/FATFS/ff_Src/ff.c **** static FRESULT dir_clear (	/* Returns FR_OK or FR_DISK_ERR */
1635:../Dave/Generated/FATFS/ff_Src/ff.c **** 	FATFS *fs,		/* Filesystem object */
1636:../Dave/Generated/FATFS/ff_Src/ff.c **** 	DWORD clst		/* Directory table to clear */
1637:../Dave/Generated/FATFS/ff_Src/ff.c **** )
1638:../Dave/Generated/FATFS/ff_Src/ff.c **** {
 3005              	 .loc 1 1638 0
 3006              	 .cfi_startproc
 3007              	 
 3008              	 
 3009 0000 80B5     	 push {r7,lr}
 3010              	.LCFI141:
 3011              	 .cfi_def_cfa_offset 8
 3012              	 .cfi_offset 7,-8
 3013              	 .cfi_offset 14,-4
 3014 0002 86B0     	 sub sp,sp,#24
 3015              	.LCFI142:
 3016              	 .cfi_def_cfa_offset 32
 3017 0004 00AF     	 add r7,sp,#0
 3018              	.LCFI143:
 3019              	 .cfi_def_cfa_register 7
 3020 0006 7860     	 str r0,[r7,#4]
 3021 0008 3960     	 str r1,[r7]
1639:../Dave/Generated/FATFS/ff_Src/ff.c **** 	DWORD sect;
1640:../Dave/Generated/FATFS/ff_Src/ff.c **** 	UINT n, szb;
1641:../Dave/Generated/FATFS/ff_Src/ff.c **** 	BYTE *ibuf;
1642:../Dave/Generated/FATFS/ff_Src/ff.c **** 
1643:../Dave/Generated/FATFS/ff_Src/ff.c **** 
1644:../Dave/Generated/FATFS/ff_Src/ff.c **** 	if (sync_window(fs) != FR_OK) return FR_DISK_ERR;	/* Flush disk access window */
 3022              	 .loc 1 1644 0
 3023 000a 7868     	 ldr r0,[r7,#4]
 3024 000c FFF7FEFF 	 bl sync_window
 3025 0010 0346     	 mov r3,r0
 3026 0012 002B     	 cmp r3,#0
 3027 0014 01D0     	 beq .L179
 3028              	 .loc 1 1644 0 is_stmt 0 discriminator 1
 3029 0016 0123     	 movs r3,#1
 3030 0018 38E0     	 b .L180
 3031              	.L179:
1645:../Dave/Generated/FATFS/ff_Src/ff.c **** 	sect = clst2sect(fs, clst);		/* Top of the cluster */
 3032              	 .loc 1 1645 0 is_stmt 1
 3033 001a 7868     	 ldr r0,[r7,#4]
 3034 001c 3968     	 ldr r1,[r7]
 3035 001e FFF7FEFF 	 bl clst2sect
 3036 0022 3861     	 str r0,[r7,#16]
1646:../Dave/Generated/FATFS/ff_Src/ff.c **** 	fs->winsect = sect;				/* Set window to top of the cluster */
 3037              	 .loc 1 1646 0
 3038 0024 7B68     	 ldr r3,[r7,#4]
 3039 0026 3A69     	 ldr r2,[r7,#16]
 3040 0028 5A63     	 str r2,[r3,#52]
1647:../Dave/Generated/FATFS/ff_Src/ff.c **** 	mem_set(fs->win, 0, SS(fs));	/* Clear window buffer */
 3041              	 .loc 1 1647 0
 3042 002a 7B68     	 ldr r3,[r7,#4]
 3043 002c 3833     	 adds r3,r3,#56
 3044 002e 1846     	 mov r0,r3
 3045 0030 0021     	 movs r1,#0
 3046 0032 4FF40072 	 mov r2,#512
 3047 0036 FFF7FEFF 	 bl mem_set
1648:../Dave/Generated/FATFS/ff_Src/ff.c **** #if FF_USE_LFN == 3		/* Quick table clear by using multi-secter write */
1649:../Dave/Generated/FATFS/ff_Src/ff.c **** 	/* Allocate a temporary buffer */
1650:../Dave/Generated/FATFS/ff_Src/ff.c **** 	for (szb = ((DWORD)fs->csize * SS(fs) >= MAX_MALLOC) ? MAX_MALLOC : fs->csize * SS(fs), ibuf = 0; 
1651:../Dave/Generated/FATFS/ff_Src/ff.c **** 	if (szb > SS(fs)) {		/* Buffer allocated? */
1652:../Dave/Generated/FATFS/ff_Src/ff.c **** 		mem_set(ibuf, 0, szb);
1653:../Dave/Generated/FATFS/ff_Src/ff.c **** 		szb /= SS(fs);		/* Bytes -> Sectors */
1654:../Dave/Generated/FATFS/ff_Src/ff.c **** 		for (n = 0; n < fs->csize && disk_write(fs->pdrv, ibuf, sect + n, szb) == RES_OK; n += szb) ;	/* 
1655:../Dave/Generated/FATFS/ff_Src/ff.c **** 		ff_memfree(ibuf);
1656:../Dave/Generated/FATFS/ff_Src/ff.c **** 	} else
1657:../Dave/Generated/FATFS/ff_Src/ff.c **** #endif
1658:../Dave/Generated/FATFS/ff_Src/ff.c **** 	{
1659:../Dave/Generated/FATFS/ff_Src/ff.c **** 		ibuf = fs->win; szb = 1;	/* Use window buffer (many single-sector writes may take a time) */
 3048              	 .loc 1 1659 0
 3049 003a 7B68     	 ldr r3,[r7,#4]
 3050 003c 3833     	 adds r3,r3,#56
 3051 003e FB60     	 str r3,[r7,#12]
 3052 0040 0123     	 movs r3,#1
 3053 0042 BB60     	 str r3,[r7,#8]
1660:../Dave/Generated/FATFS/ff_Src/ff.c **** 		for (n = 0; n < fs->csize && disk_write(fs->pdrv, ibuf, sect + n, szb) == RES_OK; n += szb) ;	/* 
 3054              	 .loc 1 1660 0
 3055 0044 0023     	 movs r3,#0
 3056 0046 7B61     	 str r3,[r7,#20]
 3057 0048 03E0     	 b .L181
 3058              	.L183:
 3059              	 .loc 1 1660 0 is_stmt 0 discriminator 4
 3060 004a 7A69     	 ldr r2,[r7,#20]
 3061 004c BB68     	 ldr r3,[r7,#8]
 3062 004e 1344     	 add r3,r3,r2
 3063 0050 7B61     	 str r3,[r7,#20]
 3064              	.L181:
 3065              	 .loc 1 1660 0 discriminator 1
 3066 0052 7B68     	 ldr r3,[r7,#4]
 3067 0054 5B89     	 ldrh r3,[r3,#10]
 3068 0056 1A46     	 mov r2,r3
 3069 0058 7B69     	 ldr r3,[r7,#20]
 3070 005a 9A42     	 cmp r2,r3
 3071 005c 0DD9     	 bls .L182
 3072              	 .loc 1 1660 0 discriminator 3
 3073 005e 7B68     	 ldr r3,[r7,#4]
 3074 0060 5978     	 ldrb r1,[r3,#1]
 3075 0062 3A69     	 ldr r2,[r7,#16]
 3076 0064 7B69     	 ldr r3,[r7,#20]
 3077 0066 1344     	 add r3,r3,r2
 3078 0068 0846     	 mov r0,r1
 3079 006a F968     	 ldr r1,[r7,#12]
 3080 006c 1A46     	 mov r2,r3
 3081 006e BB68     	 ldr r3,[r7,#8]
 3082 0070 FFF7FEFF 	 bl disk_write
 3083 0074 0346     	 mov r3,r0
 3084 0076 002B     	 cmp r3,#0
 3085 0078 E7D0     	 beq .L183
 3086              	.L182:
1661:../Dave/Generated/FATFS/ff_Src/ff.c **** 	}
1662:../Dave/Generated/FATFS/ff_Src/ff.c **** 	return (n == fs->csize) ? FR_OK : FR_DISK_ERR;
 3087              	 .loc 1 1662 0 is_stmt 1
 3088 007a 7B68     	 ldr r3,[r7,#4]
 3089 007c 5B89     	 ldrh r3,[r3,#10]
 3090 007e 1A46     	 mov r2,r3
 3091 0080 7B69     	 ldr r3,[r7,#20]
 3092 0082 9A42     	 cmp r2,r3
 3093 0084 14BF     	 ite ne
 3094 0086 0123     	 movne r3,#1
 3095 0088 0023     	 moveq r3,#0
 3096 008a DBB2     	 uxtb r3,r3
 3097              	.L180:
1663:../Dave/Generated/FATFS/ff_Src/ff.c **** }
 3098              	 .loc 1 1663 0
 3099 008c 1846     	 mov r0,r3
 3100 008e 1837     	 adds r7,r7,#24
 3101              	.LCFI144:
 3102              	 .cfi_def_cfa_offset 8
 3103 0090 BD46     	 mov sp,r7
 3104              	.LCFI145:
 3105              	 .cfi_def_cfa_register 13
 3106              	 
 3107 0092 80BD     	 pop {r7,pc}
 3108              	 .cfi_endproc
 3109              	.LFE25:
 3111              	 .section .text.dir_sdi,"ax",%progbits
 3112              	 .align 2
 3113              	 .thumb
 3114              	 .thumb_func
 3116              	dir_sdi:
 3117              	.LFB26:
1664:../Dave/Generated/FATFS/ff_Src/ff.c **** #endif	/* !FF_FS_READONLY */
1665:../Dave/Generated/FATFS/ff_Src/ff.c **** 
1666:../Dave/Generated/FATFS/ff_Src/ff.c **** 
1667:../Dave/Generated/FATFS/ff_Src/ff.c **** 
1668:../Dave/Generated/FATFS/ff_Src/ff.c **** 
1669:../Dave/Generated/FATFS/ff_Src/ff.c **** /*-----------------------------------------------------------------------*/
1670:../Dave/Generated/FATFS/ff_Src/ff.c **** /* Directory handling - Set directory index                              */
1671:../Dave/Generated/FATFS/ff_Src/ff.c **** /*-----------------------------------------------------------------------*/
1672:../Dave/Generated/FATFS/ff_Src/ff.c **** 
1673:../Dave/Generated/FATFS/ff_Src/ff.c **** static FRESULT dir_sdi (	/* FR_OK(0):succeeded, !=0:error */
1674:../Dave/Generated/FATFS/ff_Src/ff.c **** 	DIR* dp,		/* Pointer to directory object */
1675:../Dave/Generated/FATFS/ff_Src/ff.c **** 	DWORD ofs		/* Offset of directory table */
1676:../Dave/Generated/FATFS/ff_Src/ff.c **** )
1677:../Dave/Generated/FATFS/ff_Src/ff.c **** {
 3118              	 .loc 1 1677 0
 3119              	 .cfi_startproc
 3120              	 
 3121              	 
 3122 0000 80B5     	 push {r7,lr}
 3123              	.LCFI146:
 3124              	 .cfi_def_cfa_offset 8
 3125              	 .cfi_offset 7,-8
 3126              	 .cfi_offset 14,-4
 3127 0002 86B0     	 sub sp,sp,#24
 3128              	.LCFI147:
 3129              	 .cfi_def_cfa_offset 32
 3130 0004 00AF     	 add r7,sp,#0
 3131              	.LCFI148:
 3132              	 .cfi_def_cfa_register 7
 3133 0006 7860     	 str r0,[r7,#4]
 3134 0008 3960     	 str r1,[r7]
1678:../Dave/Generated/FATFS/ff_Src/ff.c **** 	DWORD csz, clst;
1679:../Dave/Generated/FATFS/ff_Src/ff.c **** 	FATFS *fs = dp->obj.fs;
 3135              	 .loc 1 1679 0
 3136 000a 7B68     	 ldr r3,[r7,#4]
 3137 000c 1B68     	 ldr r3,[r3]
 3138 000e 3B61     	 str r3,[r7,#16]
1680:../Dave/Generated/FATFS/ff_Src/ff.c **** 
1681:../Dave/Generated/FATFS/ff_Src/ff.c **** 
1682:../Dave/Generated/FATFS/ff_Src/ff.c **** 	if (ofs >= (DWORD)((FF_FS_EXFAT && fs->fs_type == FS_EXFAT) ? MAX_DIR_EX : MAX_DIR) || ofs % SZDIR
 3139              	 .loc 1 1682 0
 3140 0010 3B68     	 ldr r3,[r7]
 3141 0012 B3F5001F 	 cmp r3,#2097152
 3142 0016 04D2     	 bcs .L185
 3143              	 .loc 1 1682 0 is_stmt 0 discriminator 1
 3144 0018 3B68     	 ldr r3,[r7]
 3145 001a 03F01F03 	 and r3,r3,#31
 3146 001e 002B     	 cmp r3,#0
 3147 0020 01D0     	 beq .L186
 3148              	.L185:
1683:../Dave/Generated/FATFS/ff_Src/ff.c **** 		return FR_INT_ERR;
 3149              	 .loc 1 1683 0 is_stmt 1
 3150 0022 0223     	 movs r3,#2
 3151 0024 62E0     	 b .L187
 3152              	.L186:
1684:../Dave/Generated/FATFS/ff_Src/ff.c **** 	}
1685:../Dave/Generated/FATFS/ff_Src/ff.c **** 	dp->dptr = ofs;				/* Set current offset */
 3153              	 .loc 1 1685 0
 3154 0026 7B68     	 ldr r3,[r7,#4]
 3155 0028 3A68     	 ldr r2,[r7]
 3156 002a 5A61     	 str r2,[r3,#20]
1686:../Dave/Generated/FATFS/ff_Src/ff.c **** 	clst = dp->obj.sclust;		/* Table start cluster (0:root) */
 3157              	 .loc 1 1686 0
